TN:
SF:/Users/dogukanarat/Workspace/DevelopmentTestSystem/Libraries/DtsCommon/DtsCircularBuffer.c
FN:4,dtsCircularBufferInitialize
FN:15,dtsCircularBufferSetBuffer
FN:37,dtsCircularBufferClear
FN:57,dtsCircularBufferPush
FN:118,dtsCircularBufferPop
FNDA:15,dtsCircularBufferInitialize
FNDA:3,dtsCircularBufferClear
FNDA:6,dtsCircularBufferPush
FNDA:3,dtsCircularBufferPop
FNDA:12,dtsCircularBufferSetBuffer
FNF:5
FNH:5
DA:4,15
DA:6,15
DA:7,15
DA:8,15
DA:9,15
DA:10,15
DA:12,15
DA:15,12
DA:17,12
DA:19,12
DA:21,0
DA:22,0
DA:25,12
DA:26,12
DA:27,12
DA:28,12
DA:29,12
DA:31,12
DA:34,12
DA:37,3
DA:39,3
DA:41,3
DA:43,0
DA:44,0
DA:47,3
DA:48,3
DA:49,3
DA:51,3
DA:54,3
DA:57,6
DA:59,6
DA:61,6
DA:63,0
DA:64,0
DA:65,6
DA:67,0
DA:68,0
DA:69,6
DA:71,0
DA:72,0
DA:75,6
DA:76,6
DA:78,6
DA:80,0
DA:81,0
DA:82,0
DA:85,6
DA:86,6
DA:89,6
DA:90,6
DA:91,6
DA:92,6
DA:94,6
DA:95,6
DA:97,0
DA:98,0
DA:100,6
DA:102,0
DA:103,0
DA:104,0
DA:105,0
DA:107,0
DA:108,0
DA:110,6
DA:112,6
DA:115,6
DA:118,3
DA:120,3
DA:122,3
DA:124,0
DA:125,0
DA:126,3
DA:128,0
DA:129,0
DA:130,3
DA:132,0
DA:133,0
DA:136,3
DA:137,3
DA:139,3
DA:141,0
DA:142,0
DA:143,0
DA:146,3
DA:147,3
DA:150,3
DA:151,3
DA:152,3
DA:153,3
DA:155,3
DA:156,3
DA:158,0
DA:159,0
DA:161,3
DA:163,0
DA:164,0
DA:165,0
DA:166,0
DA:168,0
DA:169,0
DA:171,3
DA:173,3
DA:176,3
LF:103
LH:65
end_of_record
TN:
SF:/Users/dogukanarat/Workspace/DevelopmentTestSystem/Libraries/DtsCommon/DtsIterator.c
FN:5,dtsIteratorInitialize
FN:58,dtsIteratorGetSize
FN:63,dtsIteratorReset
FN:80,dtsIteratorReserve
FN:105,dtsIteratorWrite
FN:140,dtsIteratorRead
FN:175,dtsIteratorNext
FN:205,dtsIteratorPrevious
FNDA:3,dtsIteratorGetSize
FNDA:435,dtsIteratorRead
FNDA:75,dtsIteratorNext
FNDA:3,dtsIteratorReset
FNDA:12,dtsIteratorReserve
FNDA:96,dtsIteratorInitialize
FNDA:0,dtsIteratorPrevious
FNDA:894,dtsIteratorWrite
FNF:8
FNH:7
DA:5,96
DA:13,96
DA:15,96
DA:17,87
DA:19,87
DA:21,12
DA:22,12
DA:25,87
DA:27,12
DA:28,12
DA:31,75
DA:34,87
DA:36,87
DA:37,87
DA:38,87
DA:39,87
DA:40,87
DA:41,87
DA:42,87
DA:43,87
DA:44,87
DA:47,9
DA:49,6
DA:50,6
DA:52,9
DA:55,96
DA:58,3
DA:60,3
DA:63,3
DA:65,3
DA:67,3
DA:69,3
DA:70,3
DA:71,3
DA:74,0
DA:77,3
DA:80,12
DA:82,12
DA:84,12
DA:86,12
DA:88,12
DA:89,12
DA:90,12
DA:91,12
DA:94,0
DA:96,12
DA:99,0
DA:102,12
DA:105,894
DA:107,894
DA:110,1782
DA:111,894
DA:112,891
DA:113,888
DA:114,888
DA:117,888
DA:119,885
DA:120,885
DA:122,885
DA:124,885
DA:125,885
DA:126,885
DA:129,3
DA:131,888
DA:134,6
DA:137,894
DA:140,435
DA:142,435
DA:145,864
DA:146,435
DA:147,432
DA:148,429
DA:149,429
DA:152,429
DA:154,426
DA:155,426
DA:157,426
DA:159,426
DA:160,426
DA:161,426
DA:164,3
DA:166,429
DA:169,6
DA:172,435
DA:175,75
DA:177,75
DA:180,150
DA:181,75
DA:182,75
DA:183,75
DA:186,75
DA:188,63
DA:189,63
DA:190,63
DA:191,63
DA:194,12
DA:196,75
DA:199,0
DA:202,75
DA:205,0
DA:207,0
DA:232,0
LF:102
LH:95
end_of_record
TN:
SF:/Users/dogukanarat/Workspace/DevelopmentTestSystem/Libraries/DtsCommon/DtsMonitor.c
FN:4,dtsMonitorForBool
FN:39,dtsMonitorForInt32
FN:74,dtsMonitorForFloat64
FNDA:3,dtsMonitorForFloat64
FNDA:3,dtsMonitorForBool
FNDA:3,dtsMonitorForInt32
FNF:3
FNH:3
DA:4,3
DA:6,3
DA:8,3
DA:10,3
DA:11,3
DA:14,3
DA:15,3
DA:18,3
DA:19,3
DA:20,3
DA:23,0
DA:25,3
DA:28,0
DA:30,3
DA:33,0
DA:36,3
DA:39,3
DA:41,3
DA:43,3
DA:45,3
DA:46,3
DA:49,3
DA:50,3
DA:53,3
DA:54,3
DA:55,3
DA:58,0
DA:60,3
DA:63,0
DA:65,3
DA:68,0
DA:71,3
DA:74,3
DA:76,3
DA:78,3
DA:80,3
DA:81,3
DA:84,3
DA:85,3
DA:88,3
DA:89,3
DA:90,3
DA:93,0
DA:95,3
DA:98,0
DA:100,3
DA:103,0
DA:106,3
LF:48
LH:39
end_of_record
TN:
SF:/Users/dogukanarat/Workspace/DevelopmentTestSystem/Libraries/DtsCommon/DtsParameterController.c
FN:3,dtsParameterControllerInitialize
FN:27,dtsParameterControllerFind
FNDA:45,dtsParameterControllerFind
FNDA:66,dtsParameterControllerInitialize
FNF:2
FNH:2
DA:3,66
DA:5,66
DA:7,66
DA:9,66
DA:10,66
DA:11,66
DA:12,66
DA:13,66
DA:16,0
DA:18,0
DA:19,0
DA:21,0
DA:24,66
DA:27,45
DA:29,45
DA:31,45
DA:33,45
DA:35,90
DA:37,90
DA:39,45
DA:40,45
DA:41,45
DA:45,45
DA:47,45
DA:48,45
DA:51,0
DA:54,45
LF:27
LH:22
end_of_record
TN:
SF:/Users/dogukanarat/Workspace/DevelopmentTestSystem/Libraries/DtsCommon/DtsProtocol.c
FN:8,dtsProtocolSetHeader
FN:24,dtsProtocolCreateDiscoveryMessage
FN:40,dtsProtocolResolveDiscoveryMessage
FN:73,dtsProtocolSetValue
FN:89,dtsProtocolSetParameter
FN:104,dtsProtocolCreateMonitorMessage
FN:158,dtsProtocolResolveMonitorMessage
FNDA:21,dtsProtocolSetHeader
FNDA:93,dtsProtocolSetValue
FNDA:9,dtsProtocolCreateDiscoveryMessage
FNDA:30,dtsProtocolSetParameter
FNDA:3,dtsProtocolResolveMonitorMessage
FNDA:9,dtsProtocolCreateMonitorMessage
FNDA:6,dtsProtocolResolveDiscoveryMessage
FNF:7
FNH:7
DA:8,21
DA:10,21
DA:12,21
DA:14,21
DA:15,21
DA:18,0
DA:21,21
DA:24,9
DA:26,9
DA:28,9
DA:30,9
DA:31,9
DA:34,0
DA:37,9
DA:40,6
DA:42,6
DA:43,6
DA:45,6
DA:47,6
DA:49,6
DA:51,6
DA:53,6
DA:54,6
DA:57,0
DA:59,6
DA:62,0
DA:64,6
DA:67,0
DA:70,6
DA:73,93
DA:75,93
DA:77,93
DA:79,93
DA:80,93
DA:83,0
DA:86,93
DA:89,30
DA:91,30
DA:93,30
DA:95,30
DA:97,30
DA:99,30
DA:100,30
DA:101,30
DA:104,9
DA:106,9
DA:108,9
DA:111,9
DA:112,9
DA:114,9
DA:116,9
DA:117,9
DA:121,9
DA:123,9
DA:125,9
DA:126,9
DA:128,9
DA:130,9
DA:132,36
DA:134,27
DA:136,27
DA:137,27
DA:138,27
DA:146,9
DA:147,9
DA:150,0
DA:155,9
DA:158,3
DA:160,3
DA:161,3
DA:162,3
DA:164,3
DA:166,3
DA:168,3
DA:170,3
DA:171,3
DA:174,0
DA:177,3
DA:179,12
DA:181,9
DA:182,9
DA:183,9
DA:184,9
DA:186,9
DA:188,9
DA:190,9
DA:191,9
DA:194,0
DA:197,9
DA:199,9
DA:200,9
DA:202,9
DA:204,9
DA:205,9
DA:207,9
DA:209,9
DA:210,9
DA:213,9
DA:214,3
DA:217,0
DA:219,3
DA:222,0
DA:225,3
LF:103
LH:92
end_of_record
TN:
SF:/Users/dogukanarat/Workspace/DevelopmentTestSystem/Libraries/DtsCommon/DtsServer.c
FN:3,dtsServerInitialize
FN:72,dtsServerMain
FN:99,dtsServerResolverMain
FN:137,dtsServerProcessStateTransition
FN:159,dtsServerMonitorMain
FN:184,dtsServerUpdateMain
FNDA:3,dtsServerProcessStateTransition
FNDA:3,dtsServerMonitorMain
FNDA:3,dtsServerUpdateMain
FNDA:3,dtsServerResolverMain
FNDA:3,dtsServerMain
FNDA:6,dtsServerInitialize
FNF:6
FNH:6
DA:3,6
DA:12,6
DA:14,6
DA:16,12
DA:17,6
DA:18,6
DA:19,6
DA:21,6
DA:22,6
DA:24,6
DA:26,6
DA:27,6
DA:29,6
DA:31,6
DA:32,6
DA:33,6
DA:34,6
DA:37,6
DA:39,6
DA:41,6
DA:42,6
DA:43,6
DA:44,6
DA:47,6
DA:49,6
DA:51,6
DA:52,6
DA:53,6
DA:54,6
DA:55,6
DA:56,6
DA:57,6
DA:58,6
DA:61,0
DA:63,6
DA:66,0
DA:69,6
DA:72,3
DA:74,3
DA:75,3
DA:76,3
DA:77,3
DA:78,3
DA:80,3
DA:82,3
DA:84,3
DA:86,3
DA:89,6
DA:90,3
DA:91,3
DA:93,3
DA:94,3
DA:96,3
DA:99,3
DA:101,3
DA:103,3
DA:105,3
DA:107,3
DA:109,3
DA:111,3
DA:113,3
DA:115,3
DA:116,3
DA:119,0
DA:122,3
DA:123,3
DA:126,0
DA:128,3
DA:131,0
DA:134,3
DA:137,3
DA:139,3
DA:141,3
DA:143,3
DA:144,3
DA:146,3
DA:147,3
DA:149,3
DA:150,3
DA:153,0
DA:156,3
DA:159,3
DA:161,3
DA:163,3
DA:165,3
DA:167,3
DA:168,3
DA:169,3
DA:170,3
DA:173,0
DA:175,3
DA:178,0
DA:181,3
DA:184,3
DA:186,3
LF:95
LH:87
end_of_record
TN:
SF:/Users/dogukanarat/Workspace/DevelopmentTestSystem/Libraries/DtsCommon/DtsUpdate.c
FN:4,dtsUpdateForBool
FN:38,dtsUpdateForInt32
FN:73,dtsUpdateForFloat64
FNDA:6,dtsUpdateForInt32
FNDA:6,dtsUpdateForBool
FNDA:6,dtsUpdateForFloat64
FNF:3
FNH:3
DA:4,6
DA:6,6
DA:8,6
DA:10,6
DA:11,6
DA:14,12
DA:15,6
DA:16,6
DA:18,3
DA:19,3
DA:22,3
DA:24,6
DA:27,0
DA:29,6
DA:32,0
DA:35,6
DA:38,6
DA:40,6
DA:42,6
DA:44,6
DA:46,6
DA:49,12
DA:50,6
DA:51,6
DA:53,3
DA:54,3
DA:57,3
DA:59,6
DA:62,0
DA:64,6
DA:67,0
DA:70,6
DA:73,6
DA:75,6
DA:77,6
DA:79,6
DA:81,6
DA:84,12
DA:85,6
DA:86,6
DA:88,3
DA:89,3
DA:90,3
DA:92,3
DA:95,3
DA:96,3
DA:97,3
DA:100,6
DA:103,0
DA:104,0
DA:105,0
DA:108,6
DA:111,0
DA:112,0
DA:113,0
DA:117,6
LF:56
LH:46
end_of_record
TN:
SF:/Users/dogukanarat/Workspace/DevelopmentTestSystem/Libraries/DtsCommon/DtsUtilities.c
FN:4,dtsMemSet
FN:9,dtsMemCopy
FN:14,dtsSwap
FNDA:1341,dtsMemCopy
FNDA:3,dtsMemSet
FNDA:3,dtsSwap
FNF:3
FNH:3
DA:4,3
DA:6,3
DA:9,1341
DA:11,1341
DA:14,3
DA:16,3
DA:18,3
DA:20,3
DA:21,3
DA:22,3
DA:23,6
DA:25,3
DA:26,3
DA:27,3
DA:28,3
DA:29,3
DA:30,3
DA:33,0
DA:36,3
LF:19
LH:18
end_of_record
TN:
SF:/Users/dogukanarat/Workspace/DevelopmentTestSystem/Tests/UnitTest/Main.cpp
FN:10,main
FNDA:90,main
FNF:1
FNH:1
DA:10,90
DA:12,90
DA:13,90
LF:3
LH:3
end_of_record
TN:
SF:/Users/dogukanarat/Workspace/DevelopmentTestSystem/Tests/UnitTest/TestDtsCircularBuffer.cpp
FN:0,__cxx_global_var_init
FN:0,__cxx_global_var_init.12
FN:0,__cxx_global_var_init.21
FN:0,__cxx_global_var_init.16
FN:0,__cxx_global_var_init.18
FN:8,_ZN54DtsCircularBufferTest_dtsCircularBufferInitialize_TestC1Ev
FN:8,_ZN54DtsCircularBufferTest_dtsCircularBufferInitialize_TestD0Ev
FN:8,_ZN54DtsCircularBufferTest_dtsCircularBufferInitialize_TestD1Ev
FN:8,_ZN54DtsCircularBufferTest_dtsCircularBufferInitialize_Test8TestBodyEv
FN:8,_ZN54DtsCircularBufferTest_dtsCircularBufferInitialize_TestD2Ev
FN:8,_ZN54DtsCircularBufferTest_dtsCircularBufferInitialize_TestC2Ev
FN:20,_ZN53DtsCircularBufferTest_dtsCircularBufferSetBuffer_TestD1Ev
FN:20,_ZN53DtsCircularBufferTest_dtsCircularBufferSetBuffer_TestD0Ev
FN:20,_ZN53DtsCircularBufferTest_dtsCircularBufferSetBuffer_TestD2Ev
FN:20,_ZN53DtsCircularBufferTest_dtsCircularBufferSetBuffer_TestC2Ev
FN:20,_ZN53DtsCircularBufferTest_dtsCircularBufferSetBuffer_Test8TestBodyEv
FN:20,_ZN53DtsCircularBufferTest_dtsCircularBufferSetBuffer_TestC1Ev
FN:35,_ZN49DtsCircularBufferTest_dtsCircularBufferClear_TestC2Ev
FN:35,_ZN49DtsCircularBufferTest_dtsCircularBufferClear_TestD0Ev
FN:35,_ZN49DtsCircularBufferTest_dtsCircularBufferClear_TestC1Ev
FN:35,_ZN49DtsCircularBufferTest_dtsCircularBufferClear_Test8TestBodyEv
FN:35,_ZN49DtsCircularBufferTest_dtsCircularBufferClear_TestD1Ev
FN:35,_ZN49DtsCircularBufferTest_dtsCircularBufferClear_TestD2Ev
FN:52,_ZN48DtsCircularBufferTest_dtsCircularBufferPush_TestD1Ev
FN:52,_ZN48DtsCircularBufferTest_dtsCircularBufferPush_TestC1Ev
FN:52,_ZN48DtsCircularBufferTest_dtsCircularBufferPush_Test8TestBodyEv
FN:52,_ZN48DtsCircularBufferTest_dtsCircularBufferPush_TestD2Ev
FN:52,_ZN48DtsCircularBufferTest_dtsCircularBufferPush_TestD0Ev
FN:52,_ZN48DtsCircularBufferTest_dtsCircularBufferPush_TestC2Ev
FN:70,_ZN47DtsCircularBufferTest_dtsCircularBufferPop_Test8TestBodyEv
FN:70,_ZN47DtsCircularBufferTest_dtsCircularBufferPop_TestD1Ev
FN:70,_ZN47DtsCircularBufferTest_dtsCircularBufferPop_TestD0Ev
FN:70,_ZN47DtsCircularBufferTest_dtsCircularBufferPop_TestD2Ev
FN:70,_ZN47DtsCircularBufferTest_dtsCircularBufferPop_TestC1Ev
FN:70,_ZN47DtsCircularBufferTest_dtsCircularBufferPop_TestC2Ev
FNDA:3,_ZN53DtsCircularBufferTest_dtsCircularBufferSetBuffer_TestC2Ev
FNDA:3,_ZN54DtsCircularBufferTest_dtsCircularBufferInitialize_Test8TestBodyEv
FNDA:3,_ZN47DtsCircularBufferTest_dtsCircularBufferPop_TestC2Ev
FNDA:3,_ZN48DtsCircularBufferTest_dtsCircularBufferPush_TestC1Ev
FNDA:3,_ZN48DtsCircularBufferTest_dtsCircularBufferPush_Test8TestBodyEv
FNDA:3,_ZN49DtsCircularBufferTest_dtsCircularBufferClear_Test8TestBodyEv
FNDA:90,__cxx_global_var_init.16
FNDA:90,__cxx_global_var_init.21
FNDA:3,_ZN54DtsCircularBufferTest_dtsCircularBufferInitialize_TestC2Ev
FNDA:3,_ZN48DtsCircularBufferTest_dtsCircularBufferPush_TestC2Ev
FNDA:3,_ZN48DtsCircularBufferTest_dtsCircularBufferPush_TestD0Ev
FNDA:90,__cxx_global_var_init.18
FNDA:3,_ZN53DtsCircularBufferTest_dtsCircularBufferSetBuffer_TestC1Ev
FNDA:3,_ZN49DtsCircularBufferTest_dtsCircularBufferClear_TestD2Ev
FNDA:3,_ZN53DtsCircularBufferTest_dtsCircularBufferSetBuffer_Test8TestBodyEv
FNDA:3,_ZN48DtsCircularBufferTest_dtsCircularBufferPush_TestD2Ev
FNDA:3,_ZN49DtsCircularBufferTest_dtsCircularBufferClear_TestD1Ev
FNDA:3,_ZN54DtsCircularBufferTest_dtsCircularBufferInitialize_TestD2Ev
FNDA:3,_ZN54DtsCircularBufferTest_dtsCircularBufferInitialize_TestD1Ev
FNDA:3,_ZN48DtsCircularBufferTest_dtsCircularBufferPush_TestD1Ev
FNDA:3,_ZN49DtsCircularBufferTest_dtsCircularBufferClear_TestD0Ev
FNDA:3,_ZN49DtsCircularBufferTest_dtsCircularBufferClear_TestC2Ev
FNDA:3,_ZN47DtsCircularBufferTest_dtsCircularBufferPop_TestD0Ev
FNDA:3,_ZN54DtsCircularBufferTest_dtsCircularBufferInitialize_TestC1Ev
FNDA:3,_ZN47DtsCircularBufferTest_dtsCircularBufferPop_Test8TestBodyEv
FNDA:3,_ZN47DtsCircularBufferTest_dtsCircularBufferPop_TestD1Ev
FNDA:90,__cxx_global_var_init
FNDA:3,_ZN54DtsCircularBufferTest_dtsCircularBufferInitialize_TestD0Ev
FNDA:3,_ZN53DtsCircularBufferTest_dtsCircularBufferSetBuffer_TestD2Ev
FNDA:3,_ZN53DtsCircularBufferTest_dtsCircularBufferSetBuffer_TestD0Ev
FNDA:90,__cxx_global_var_init.12
FNDA:3,_ZN47DtsCircularBufferTest_dtsCircularBufferPop_TestC1Ev
FNDA:3,_ZN47DtsCircularBufferTest_dtsCircularBufferPop_TestD2Ev
FNDA:3,_ZN53DtsCircularBufferTest_dtsCircularBufferSetBuffer_TestD1Ev
FNDA:3,_ZN49DtsCircularBufferTest_dtsCircularBufferClear_TestC1Ev
FNF:35
FNH:35
DA:8,108
DA:11,3
DA:12,3
DA:13,3
DA:14,3
DA:15,3
DA:16,3
DA:17,3
DA:18,3
DA:20,108
DA:23,3
DA:24,3
DA:26,3
DA:27,3
DA:28,3
DA:29,3
DA:30,3
DA:31,3
DA:32,3
DA:33,3
DA:35,108
DA:38,3
DA:39,3
DA:41,3
DA:42,3
DA:43,3
DA:44,3
DA:45,3
DA:46,3
DA:47,3
DA:48,3
DA:49,3
DA:50,3
DA:52,108
DA:55,3
DA:56,3
DA:58,3
DA:59,3
DA:60,3
DA:61,3
DA:62,3
DA:63,3
DA:64,3
DA:65,3
DA:66,3
DA:67,3
DA:68,3
DA:70,108
DA:73,3
DA:74,3
DA:76,3
DA:77,3
DA:78,3
DA:79,3
DA:80,3
DA:82,3
DA:83,3
DA:84,3
DA:85,3
DA:86,3
DA:87,3
DA:88,3
DA:89,3
LF:63
LH:63
end_of_record
TN:
SF:/Users/dogukanarat/Workspace/DevelopmentTestSystem/Tests/UnitTest/TestDtsIterator.cpp
FN:0,__cxx_global_var_init.20
FN:0,__cxx_global_var_init.29
FN:0,__cxx_global_var_init.33
FN:0,__cxx_global_var_init.17
FN:0,__cxx_global_var_init.13
FN:0,__cxx_global_var_init.41
FN:0,__cxx_global_var_init.15
FN:0,__cxx_global_var_init.36
FN:0,__cxx_global_var_init.31
FN:0,__cxx_global_var_init
FN:0,__cxx_global_var_init.39
FN:0,__cxx_global_var_init.25
FN:0,__cxx_global_var_init.43
FN:0,__cxx_global_var_init.11
FN:0,__cxx_global_var_init.45
FN:8,_ZN42DtsIteratorTest_dtsIteratorInitialize_TestD0Ev
FN:8,_ZN42DtsIteratorTest_dtsIteratorInitialize_TestD2Ev
FN:8,_ZN42DtsIteratorTest_dtsIteratorInitialize_TestC2Ev
FN:8,_ZN42DtsIteratorTest_dtsIteratorInitialize_TestC1Ev
FN:8,_ZN42DtsIteratorTest_dtsIteratorInitialize_Test8TestBodyEv
FN:8,_ZN42DtsIteratorTest_dtsIteratorInitialize_TestD1Ev
FN:22,_ZN50DtsIteratorTest_dtsIteratorInitializeWithNull_Test8TestBodyEv
FN:22,_ZN50DtsIteratorTest_dtsIteratorInitializeWithNull_TestD0Ev
FN:22,_ZN50DtsIteratorTest_dtsIteratorInitializeWithNull_TestC1Ev
FN:22,_ZN50DtsIteratorTest_dtsIteratorInitializeWithNull_TestD1Ev
FN:22,_ZN50DtsIteratorTest_dtsIteratorInitializeWithNull_TestD2Ev
FN:22,_ZN50DtsIteratorTest_dtsIteratorInitializeWithNull_TestC2Ev
FN:31,_ZN54DtsIteratorTest_dtsIteratorInitializeWithZeroSize_TestC1Ev
FN:31,_ZN54DtsIteratorTest_dtsIteratorInitializeWithZeroSize_TestC2Ev
FN:31,_ZN54DtsIteratorTest_dtsIteratorInitializeWithZeroSize_TestD0Ev
FN:31,_ZN54DtsIteratorTest_dtsIteratorInitializeWithZeroSize_Test8TestBodyEv
FN:31,_ZN54DtsIteratorTest_dtsIteratorInitializeWithZeroSize_TestD1Ev
FN:31,_ZN54DtsIteratorTest_dtsIteratorInitializeWithZeroSize_TestD2Ev
FN:41,_ZN58DtsIteratorTest_dtsIteratorInitializeWithNullIterator_TestD2Ev
FN:41,_ZN58DtsIteratorTest_dtsIteratorInitializeWithNullIterator_Test8TestBodyEv
FN:41,_ZN58DtsIteratorTest_dtsIteratorInitializeWithNullIterator_TestD0Ev
FN:41,_ZN58DtsIteratorTest_dtsIteratorInitializeWithNullIterator_TestC1Ev
FN:41,_ZN58DtsIteratorTest_dtsIteratorInitializeWithNullIterator_TestD1Ev
FN:41,_ZN58DtsIteratorTest_dtsIteratorInitializeWithNullIterator_TestC2Ev
FN:50,_ZN39DtsIteratorTest_dtsIteratorGetSize_TestD2Ev
FN:50,_ZN39DtsIteratorTest_dtsIteratorGetSize_TestD1Ev
FN:50,_ZN39DtsIteratorTest_dtsIteratorGetSize_Test8TestBodyEv
FN:50,_ZN39DtsIteratorTest_dtsIteratorGetSize_TestC1Ev
FN:50,_ZN39DtsIteratorTest_dtsIteratorGetSize_TestD0Ev
FN:50,_ZN39DtsIteratorTest_dtsIteratorGetSize_TestC2Ev
FN:67,_ZN39DtsIteratorTest_dtsIteratorReserve_TestD0Ev
FN:67,_ZN39DtsIteratorTest_dtsIteratorReserve_TestC1Ev
FN:67,_ZN39DtsIteratorTest_dtsIteratorReserve_Test8TestBodyEv
FN:67,_ZN39DtsIteratorTest_dtsIteratorReserve_TestD1Ev
FN:67,_ZN39DtsIteratorTest_dtsIteratorReserve_TestD2Ev
FN:67,_ZN39DtsIteratorTest_dtsIteratorReserve_TestC2Ev
FN:84,_ZN37DtsIteratorTest_dtsIteratorWrite_TestD2Ev
FN:84,_ZN37DtsIteratorTest_dtsIteratorWrite_TestC2Ev
FN:84,_ZN37DtsIteratorTest_dtsIteratorWrite_TestC1Ev
FN:84,_ZN37DtsIteratorTest_dtsIteratorWrite_Test8TestBodyEv
FN:84,_ZN37DtsIteratorTest_dtsIteratorWrite_TestD1Ev
FN:84,_ZN37DtsIteratorTest_dtsIteratorWrite_TestD0Ev
FN:106,_ZN45DtsIteratorTest_dtsIteratorWriteWithNull_TestC2Ev
FN:106,_ZN45DtsIteratorTest_dtsIteratorWriteWithNull_TestD0Ev
FN:106,_ZN45DtsIteratorTest_dtsIteratorWriteWithNull_TestD2Ev
FN:106,_ZN45DtsIteratorTest_dtsIteratorWriteWithNull_Test8TestBodyEv
FN:106,_ZN45DtsIteratorTest_dtsIteratorWriteWithNull_TestD1Ev
FN:106,_ZN45DtsIteratorTest_dtsIteratorWriteWithNull_TestC1Ev
FN:120,_ZN49DtsIteratorTest_dtsIteratorWriteWithZeroSize_TestC1Ev
FN:120,_ZN49DtsIteratorTest_dtsIteratorWriteWithZeroSize_TestD0Ev
FN:120,_ZN49DtsIteratorTest_dtsIteratorWriteWithZeroSize_TestD1Ev
FN:120,_ZN49DtsIteratorTest_dtsIteratorWriteWithZeroSize_TestC2Ev
FN:120,_ZN49DtsIteratorTest_dtsIteratorWriteWithZeroSize_Test8TestBodyEv
FN:120,_ZN49DtsIteratorTest_dtsIteratorWriteWithZeroSize_TestD2Ev
FN:134,_ZN52DtsIteratorTest_dtsIteratorWriteWithSmallChunks_TestD2Ev
FN:134,_ZN52DtsIteratorTest_dtsIteratorWriteWithSmallChunks_TestC2Ev
FN:134,_ZN52DtsIteratorTest_dtsIteratorWriteWithSmallChunks_TestD0Ev
FN:134,_ZN52DtsIteratorTest_dtsIteratorWriteWithSmallChunks_TestD1Ev
FN:134,_ZN52DtsIteratorTest_dtsIteratorWriteWithSmallChunks_TestC1Ev
FN:134,_ZN52DtsIteratorTest_dtsIteratorWriteWithSmallChunks_Test8TestBodyEv
FN:167,_ZN36DtsIteratorTest_dtsIteratorRead_TestD2Ev
FN:167,_ZN36DtsIteratorTest_dtsIteratorRead_TestD1Ev
FN:167,_ZN36DtsIteratorTest_dtsIteratorRead_Test8TestBodyEv
FN:167,_ZN36DtsIteratorTest_dtsIteratorRead_TestC2Ev
FN:167,_ZN36DtsIteratorTest_dtsIteratorRead_TestD0Ev
FN:167,_ZN36DtsIteratorTest_dtsIteratorRead_TestC1Ev
FN:194,_ZN44DtsIteratorTest_dtsIteratorReadWithNull_TestC1Ev
FN:194,_ZN44DtsIteratorTest_dtsIteratorReadWithNull_TestD0Ev
FN:194,_ZN44DtsIteratorTest_dtsIteratorReadWithNull_TestC2Ev
FN:194,_ZN44DtsIteratorTest_dtsIteratorReadWithNull_TestD2Ev
FN:194,_ZN44DtsIteratorTest_dtsIteratorReadWithNull_TestD1Ev
FN:194,_ZN44DtsIteratorTest_dtsIteratorReadWithNull_Test8TestBodyEv
FN:207,_ZN48DtsIteratorTest_dtsIteratorReadWithZeroSize_TestD2Ev
FN:207,_ZN48DtsIteratorTest_dtsIteratorReadWithZeroSize_TestC2Ev
FN:207,_ZN48DtsIteratorTest_dtsIteratorReadWithZeroSize_TestD0Ev
FN:207,_ZN48DtsIteratorTest_dtsIteratorReadWithZeroSize_TestD1Ev
FN:207,_ZN48DtsIteratorTest_dtsIteratorReadWithZeroSize_Test8TestBodyEv
FN:207,_ZN48DtsIteratorTest_dtsIteratorReadWithZeroSize_TestC1Ev
FN:221,_ZN51DtsIteratorTest_dtsIteratorReadWithSmallChunks_TestD1Ev
FN:221,_ZN51DtsIteratorTest_dtsIteratorReadWithSmallChunks_TestC1Ev
FN:221,_ZN51DtsIteratorTest_dtsIteratorReadWithSmallChunks_TestC2Ev
FN:221,_ZN51DtsIteratorTest_dtsIteratorReadWithSmallChunks_TestD2Ev
FN:221,_ZN51DtsIteratorTest_dtsIteratorReadWithSmallChunks_Test8TestBodyEv
FN:221,_ZN51DtsIteratorTest_dtsIteratorReadWithSmallChunks_TestD0Ev
FN:254,_ZN47DtsIteratorTest_dtsIteratorForwardIterator_TestC1Ev
FN:254,_ZN47DtsIteratorTest_dtsIteratorForwardIterator_Test8TestBodyEv
FN:254,_ZN47DtsIteratorTest_dtsIteratorForwardIterator_TestD0Ev
FN:254,_ZN47DtsIteratorTest_dtsIteratorForwardIterator_TestD1Ev
FN:254,_ZN47DtsIteratorTest_dtsIteratorForwardIterator_TestD2Ev
FN:254,_ZN47DtsIteratorTest_dtsIteratorForwardIterator_TestC2Ev
FNDA:3,_ZN47DtsIteratorTest_dtsIteratorForwardIterator_TestC1Ev
FNDA:3,_ZN36DtsIteratorTest_dtsIteratorRead_Test8TestBodyEv
FNDA:3,_ZN58DtsIteratorTest_dtsIteratorInitializeWithNullIterator_TestD0Ev
FNDA:90,__cxx_global_var_init.41
FNDA:3,_ZN37DtsIteratorTest_dtsIteratorWrite_TestC1Ev
FNDA:90,__cxx_global_var_init.15
FNDA:3,_ZN50DtsIteratorTest_dtsIteratorInitializeWithNull_TestC1Ev
FNDA:3,_ZN39DtsIteratorTest_dtsIteratorReserve_Test8TestBodyEv
FNDA:3,_ZN39DtsIteratorTest_dtsIteratorReserve_TestC1Ev
FNDA:3,_ZN45DtsIteratorTest_dtsIteratorWriteWithNull_TestD0Ev
FNDA:90,__cxx_global_var_init.17
FNDA:3,_ZN36DtsIteratorTest_dtsIteratorRead_TestD2Ev
FNDA:3,_ZN36DtsIteratorTest_dtsIteratorRead_TestD1Ev
FNDA:3,_ZN52DtsIteratorTest_dtsIteratorWriteWithSmallChunks_TestC2Ev
FNDA:90,__cxx_global_var_init.13
FNDA:3,_ZN54DtsIteratorTest_dtsIteratorInitializeWithZeroSize_Test8TestBodyEv
FNDA:90,__cxx_global_var_init.36
FNDA:3,_ZN47DtsIteratorTest_dtsIteratorForwardIterator_Test8TestBodyEv
FNDA:3,_ZN45DtsIteratorTest_dtsIteratorWriteWithNull_TestD2Ev
FNDA:3,_ZN47DtsIteratorTest_dtsIteratorForwardIterator_TestD0Ev
FNDA:3,_ZN50DtsIteratorTest_dtsIteratorInitializeWithNull_TestD1Ev
FNDA:3,_ZN50DtsIteratorTest_dtsIteratorInitializeWithNull_TestD2Ev
FNDA:3,_ZN52DtsIteratorTest_dtsIteratorWriteWithSmallChunks_TestD0Ev
FNDA:3,_ZN58DtsIteratorTest_dtsIteratorInitializeWithNullIterator_TestC1Ev
FNDA:3,_ZN54DtsIteratorTest_dtsIteratorInitializeWithZeroSize_TestD0Ev
FNDA:3,_ZN36DtsIteratorTest_dtsIteratorRead_TestC2Ev
FNDA:3,_ZN39DtsIteratorTest_dtsIteratorReserve_TestD1Ev
FNDA:3,_ZN44DtsIteratorTest_dtsIteratorReadWithNull_TestC2Ev
FNDA:3,_ZN44DtsIteratorTest_dtsIteratorReadWithNull_TestC1Ev
FNDA:3,_ZN44DtsIteratorTest_dtsIteratorReadWithNull_TestD0Ev
FNDA:90,__cxx_global_var_init.20
FNDA:3,_ZN48DtsIteratorTest_dtsIteratorReadWithZeroSize_TestD2Ev
FNDA:3,_ZN45DtsIteratorTest_dtsIteratorWriteWithNull_TestC2Ev
FNDA:90,__cxx_global_var_init.29
FNDA:3,_ZN52DtsIteratorTest_dtsIteratorWriteWithSmallChunks_TestD2Ev
FNDA:3,_ZN58DtsIteratorTest_dtsIteratorInitializeWithNullIterator_TestD2Ev
FNDA:3,_ZN58DtsIteratorTest_dtsIteratorInitializeWithNullIterator_Test8TestBodyEv
FNDA:3,_ZN39DtsIteratorTest_dtsIteratorGetSize_TestD2Ev
FNDA:3,_ZN49DtsIteratorTest_dtsIteratorWriteWithZeroSize_TestC1Ev
FNDA:3,_ZN49DtsIteratorTest_dtsIteratorWriteWithZeroSize_TestD0Ev
FNDA:3,_ZN39DtsIteratorTest_dtsIteratorGetSize_TestD1Ev
FNDA:3,_ZN49DtsIteratorTest_dtsIteratorWriteWithZeroSize_TestD1Ev
FNDA:3,_ZN50DtsIteratorTest_dtsIteratorInitializeWithNull_Test8TestBodyEv
FNDA:3,_ZN42DtsIteratorTest_dtsIteratorInitialize_TestC2Ev
FNDA:3,_ZN54DtsIteratorTest_dtsIteratorInitializeWithZeroSize_TestC1Ev
FNDA:3,_ZN39DtsIteratorTest_dtsIteratorGetSize_TestC1Ev
FNDA:3,_ZN51DtsIteratorTest_dtsIteratorReadWithSmallChunks_TestC1Ev
FNDA:3,_ZN54DtsIteratorTest_dtsIteratorInitializeWithZeroSize_TestC2Ev
FNDA:90,__cxx_global_var_init.33
FNDA:3,_ZN42DtsIteratorTest_dtsIteratorInitialize_TestC1Ev
FNDA:3,_ZN50DtsIteratorTest_dtsIteratorInitializeWithNull_TestD0Ev
FNDA:3,_ZN37DtsIteratorTest_dtsIteratorWrite_TestC2Ev
FNDA:3,_ZN39DtsIteratorTest_dtsIteratorReserve_TestD0Ev
FNDA:3,_ZN39DtsIteratorTest_dtsIteratorGetSize_Test8TestBodyEv
FNDA:3,_ZN37DtsIteratorTest_dtsIteratorWrite_TestD2Ev
FNDA:3,_ZN51DtsIteratorTest_dtsIteratorReadWithSmallChunks_TestD1Ev
FNDA:3,_ZN42DtsIteratorTest_dtsIteratorInitialize_TestD2Ev
FNDA:3,_ZN42DtsIteratorTest_dtsIteratorInitialize_TestD0Ev
FNDA:3,_ZN37DtsIteratorTest_dtsIteratorWrite_TestD1Ev
FNDA:3,_ZN58DtsIteratorTest_dtsIteratorInitializeWithNullIterator_TestD1Ev
FNDA:3,_ZN36DtsIteratorTest_dtsIteratorRead_TestD0Ev
FNDA:90,__cxx_global_var_init.39
FNDA:3,_ZN51DtsIteratorTest_dtsIteratorReadWithSmallChunks_TestD2Ev
FNDA:3,_ZN44DtsIteratorTest_dtsIteratorReadWithNull_Test8TestBodyEv
FNDA:3,_ZN48DtsIteratorTest_dtsIteratorReadWithZeroSize_TestC1Ev
FNDA:90,__cxx_global_var_init.11
FNDA:3,_ZN51DtsIteratorTest_dtsIteratorReadWithSmallChunks_Test8TestBodyEv
FNDA:3,_ZN52DtsIteratorTest_dtsIteratorWriteWithSmallChunks_Test8TestBodyEv
FNDA:3,_ZN42DtsIteratorTest_dtsIteratorInitialize_TestD1Ev
FNDA:3,_ZN36DtsIteratorTest_dtsIteratorRead_TestC1Ev
FNDA:3,_ZN47DtsIteratorTest_dtsIteratorForwardIterator_TestC2Ev
FNDA:3,_ZN37DtsIteratorTest_dtsIteratorWrite_TestD0Ev
FNDA:90,__cxx_global_var_init.45
FNDA:3,_ZN49DtsIteratorTest_dtsIteratorWriteWithZeroSize_TestD2Ev
FNDA:3,_ZN51DtsIteratorTest_dtsIteratorReadWithSmallChunks_TestD0Ev
FNDA:3,_ZN50DtsIteratorTest_dtsIteratorInitializeWithNull_TestC2Ev
FNDA:3,_ZN58DtsIteratorTest_dtsIteratorInitializeWithNullIterator_TestC2Ev
FNDA:90,__cxx_global_var_init.25
FNDA:90,__cxx_global_var_init.43
FNDA:3,_ZN52DtsIteratorTest_dtsIteratorWriteWithSmallChunks_TestD1Ev
FNDA:3,_ZN44DtsIteratorTest_dtsIteratorReadWithNull_TestD1Ev
FNDA:3,_ZN48DtsIteratorTest_dtsIteratorReadWithZeroSize_TestC2Ev
FNDA:3,_ZN54DtsIteratorTest_dtsIteratorInitializeWithZeroSize_TestD1Ev
FNDA:3,_ZN45DtsIteratorTest_dtsIteratorWriteWithNull_Test8TestBodyEv
FNDA:3,_ZN44DtsIteratorTest_dtsIteratorReadWithNull_TestD2Ev
FNDA:3,_ZN49DtsIteratorTest_dtsIteratorWriteWithZeroSize_TestC2Ev
FNDA:3,_ZN37DtsIteratorTest_dtsIteratorWrite_Test8TestBodyEv
FNDA:3,_ZN39DtsIteratorTest_dtsIteratorGetSize_TestD0Ev
FNDA:3,_ZN52DtsIteratorTest_dtsIteratorWriteWithSmallChunks_TestC1Ev
FNDA:3,_ZN51DtsIteratorTest_dtsIteratorReadWithSmallChunks_TestC2Ev
FNDA:3,_ZN54DtsIteratorTest_dtsIteratorInitializeWithZeroSize_TestD2Ev
FNDA:90,__cxx_global_var_init.31
FNDA:3,_ZN48DtsIteratorTest_dtsIteratorReadWithZeroSize_Test8TestBodyEv
FNDA:3,_ZN39DtsIteratorTest_dtsIteratorReserve_TestD2Ev
FNDA:3,_ZN48DtsIteratorTest_dtsIteratorReadWithZeroSize_TestD0Ev
FNDA:3,_ZN48DtsIteratorTest_dtsIteratorReadWithZeroSize_TestD1Ev
FNDA:3,_ZN39DtsIteratorTest_dtsIteratorReserve_TestC2Ev
FNDA:3,_ZN45DtsIteratorTest_dtsIteratorWriteWithNull_TestC1Ev
FNDA:90,__cxx_global_var_init
FNDA:3,_ZN49DtsIteratorTest_dtsIteratorWriteWithZeroSize_Test8TestBodyEv
FNDA:3,_ZN47DtsIteratorTest_dtsIteratorForwardIterator_TestD1Ev
FNDA:3,_ZN39DtsIteratorTest_dtsIteratorGetSize_TestC2Ev
FNDA:3,_ZN45DtsIteratorTest_dtsIteratorWriteWithNull_TestD1Ev
FNDA:3,_ZN47DtsIteratorTest_dtsIteratorForwardIterator_TestD2Ev
FNDA:3,_ZN42DtsIteratorTest_dtsIteratorInitialize_Test8TestBodyEv
FNF:105
FNH:105
DA:8,108
DA:13,3
DA:15,3
DA:17,3
DA:18,3
DA:19,3
DA:20,3
DA:22,108
DA:26,3
DA:28,3
DA:29,3
DA:31,108
DA:36,3
DA:38,3
DA:39,3
DA:41,108
DA:45,3
DA:47,3
DA:48,3
DA:50,108
DA:55,3
DA:57,387
DA:59,384
DA:60,384
DA:62,3
DA:64,3
DA:65,3
DA:67,108
DA:72,3
DA:74,3
DA:76,3
DA:78,3
DA:80,3
DA:81,3
DA:82,3
DA:84,108
DA:89,3
DA:92,3
DA:94,3
DA:96,3
DA:98,3
DA:100,387
DA:102,384
DA:103,384
DA:104,3
DA:106,108
DA:111,3
DA:113,3
DA:115,3
DA:117,3
DA:118,3
DA:120,108
DA:125,3
DA:129,3
DA:131,3
DA:132,3
DA:134,108
DA:139,3
DA:141,3
DA:142,3
DA:144,387
DA:146,384
DA:147,384
DA:149,3
DA:151,387
DA:153,384
DA:155,384
DA:157,384
DA:159,384
DA:160,384
DA:162,3
DA:164,3
DA:165,3
DA:167,108
DA:170,3
DA:173,387
DA:175,384
DA:176,384
DA:178,3
DA:182,3
DA:184,3
DA:186,3
DA:188,387
DA:190,384
DA:191,384
DA:192,3
DA:194,108
DA:197,3
DA:200,3
DA:202,3
DA:204,3
DA:205,3
DA:207,108
DA:212,3
DA:216,3
DA:218,3
DA:219,3
DA:221,108
DA:225,3
DA:228,3
DA:229,3
DA:231,387
DA:233,384
DA:234,384
DA:236,3
DA:238,387
DA:240,384
DA:242,384
DA:244,384
DA:246,384
DA:247,384
DA:249,3
DA:251,3
DA:252,3
DA:254,108
DA:264,39
DA:266,36
DA:267,36
DA:268,36
DA:272,3
DA:274,3
DA:282,39
DA:284,36
DA:286,36
DA:288,36
DA:289,36
DA:291,3
DA:293,3
DA:294,3
LF:129
LH:129
end_of_record
TN:
SF:/Users/dogukanarat/Workspace/DevelopmentTestSystem/Tests/UnitTest/TestDtsMonitor.cpp
FN:0,__cxx_global_var_init.7
FN:0,__cxx_global_var_init.10
FN:0,__cxx_global_var_init
FN:3,_ZN37TestDtsMonitor_dtsMonitorForBool_TestD2Ev
FN:3,_ZN37TestDtsMonitor_dtsMonitorForBool_TestD1Ev
FN:3,_ZN37TestDtsMonitor_dtsMonitorForBool_Test8TestBodyEv
FN:3,_ZN37TestDtsMonitor_dtsMonitorForBool_TestC2Ev
FN:3,_ZN37TestDtsMonitor_dtsMonitorForBool_TestC1Ev
FN:3,_ZN37TestDtsMonitor_dtsMonitorForBool_TestD0Ev
FN:18,_ZN38TestDtsMonitor_dtsMonitorForInt32_TestD1Ev
FN:18,_ZN38TestDtsMonitor_dtsMonitorForInt32_Test8TestBodyEv
FN:18,_ZN38TestDtsMonitor_dtsMonitorForInt32_TestC2Ev
FN:18,_ZN38TestDtsMonitor_dtsMonitorForInt32_TestD2Ev
FN:18,_ZN38TestDtsMonitor_dtsMonitorForInt32_TestD0Ev
FN:18,_ZN38TestDtsMonitor_dtsMonitorForInt32_TestC1Ev
FN:33,_ZN40TestDtsMonitor_dtsMonitorForFloat64_TestC1Ev
FN:33,_ZN40TestDtsMonitor_dtsMonitorForFloat64_TestD0Ev
FN:33,_ZN40TestDtsMonitor_dtsMonitorForFloat64_TestD1Ev
FN:33,_ZN40TestDtsMonitor_dtsMonitorForFloat64_TestD2Ev
FN:33,_ZN40TestDtsMonitor_dtsMonitorForFloat64_Test8TestBodyEv
FN:33,_ZN40TestDtsMonitor_dtsMonitorForFloat64_TestC2Ev
FNDA:3,_ZN37TestDtsMonitor_dtsMonitorForBool_TestD2Ev
FNDA:3,_ZN38TestDtsMonitor_dtsMonitorForInt32_TestD1Ev
FNDA:3,_ZN37TestDtsMonitor_dtsMonitorForBool_TestD1Ev
FNDA:3,_ZN40TestDtsMonitor_dtsMonitorForFloat64_TestC1Ev
FNDA:3,_ZN37TestDtsMonitor_dtsMonitorForBool_Test8TestBodyEv
FNDA:90,__cxx_global_var_init.7
FNDA:3,_ZN37TestDtsMonitor_dtsMonitorForBool_TestC2Ev
FNDA:3,_ZN40TestDtsMonitor_dtsMonitorForFloat64_TestD0Ev
FNDA:3,_ZN40TestDtsMonitor_dtsMonitorForFloat64_TestD1Ev
FNDA:3,_ZN38TestDtsMonitor_dtsMonitorForInt32_Test8TestBodyEv
FNDA:3,_ZN40TestDtsMonitor_dtsMonitorForFloat64_TestD2Ev
FNDA:3,_ZN37TestDtsMonitor_dtsMonitorForBool_TestC1Ev
FNDA:3,_ZN38TestDtsMonitor_dtsMonitorForInt32_TestC2Ev
FNDA:90,__cxx_global_var_init.10
FNDA:3,_ZN37TestDtsMonitor_dtsMonitorForBool_TestD0Ev
FNDA:3,_ZN38TestDtsMonitor_dtsMonitorForInt32_TestD2Ev
FNDA:90,__cxx_global_var_init
FNDA:3,_ZN40TestDtsMonitor_dtsMonitorForFloat64_Test8TestBodyEv
FNDA:3,_ZN38TestDtsMonitor_dtsMonitorForInt32_TestD0Ev
FNDA:3,_ZN38TestDtsMonitor_dtsMonitorForInt32_TestC1Ev
FNDA:3,_ZN40TestDtsMonitor_dtsMonitorForFloat64_TestC2Ev
FNF:21
FNH:21
DA:3,108
DA:5,3
DA:6,3
DA:9,3
DA:10,3
DA:12,3
DA:14,3
DA:15,3
DA:16,3
DA:18,108
DA:20,3
DA:21,3
DA:24,3
DA:25,3
DA:27,3
DA:29,3
DA:30,3
DA:31,3
DA:33,108
DA:35,3
DA:36,3
DA:37,3
DA:40,3
DA:42,3
DA:48,3
DA:50,3
DA:56,3
DA:57,3
DA:58,3
LF:29
LH:29
end_of_record
TN:
SF:/Users/dogukanarat/Workspace/DevelopmentTestSystem/Tests/UnitTest/TestDtsMonitor.h
FN:18,_ZN14TestDtsMonitorC2Ev
FN:21,_ZN14TestDtsMonitorD2Ev
FN:21,_ZN14TestDtsMonitorD1Ev
FN:21,_ZN14TestDtsMonitorD0Ev
FN:25,_ZN14TestDtsMonitor5SetUpEv
FN:33,_ZN14TestDtsMonitor8TearDownEv
FNDA:9,_ZN14TestDtsMonitor5SetUpEv
FNDA:9,_ZN14TestDtsMonitorC2Ev
FNDA:9,_ZN14TestDtsMonitor8TearDownEv
FNDA:0,_ZN14TestDtsMonitorD1Ev
FNDA:0,_ZN14TestDtsMonitorD0Ev
FNDA:9,_ZN14TestDtsMonitorD2Ev
FNF:6
FNH:4
DA:18,27
DA:19,18
DA:20,9
DA:21,9
DA:22,0
DA:23,9
DA:25,9
DA:27,9
DA:28,9
DA:31,9
DA:33,9
DA:35,9
LF:12
LH:11
end_of_record
TN:
SF:/Users/dogukanarat/Workspace/DevelopmentTestSystem/Tests/UnitTest/TestDtsParameterController.cpp
FN:0,__cxx_global_var_init.10
FN:0,__cxx_global_var_init
FN:3,_ZN64TestDtsParameterController_dtsParameterControllerInitialize_TestD2Ev
FN:3,_ZN64TestDtsParameterController_dtsParameterControllerInitialize_TestC2Ev
FN:3,_ZN64TestDtsParameterController_dtsParameterControllerInitialize_TestC1Ev
FN:3,_ZN64TestDtsParameterController_dtsParameterControllerInitialize_TestD1Ev
FN:3,_ZN64TestDtsParameterController_dtsParameterControllerInitialize_TestD0Ev
FN:3,_ZN64TestDtsParameterController_dtsParameterControllerInitialize_Test8TestBodyEv
FN:16,_ZN58TestDtsParameterController_dtsParameterControllerFind_TestC1Ev
FN:16,_ZN58TestDtsParameterController_dtsParameterControllerFind_TestC2Ev
FN:16,_ZN58TestDtsParameterController_dtsParameterControllerFind_TestD1Ev
FN:16,_ZN58TestDtsParameterController_dtsParameterControllerFind_Test8TestBodyEv
FN:16,_ZN58TestDtsParameterController_dtsParameterControllerFind_TestD2Ev
FN:16,_ZN58TestDtsParameterController_dtsParameterControllerFind_TestD0Ev
FNDA:3,_ZN58TestDtsParameterController_dtsParameterControllerFind_TestD2Ev
FNDA:3,_ZN64TestDtsParameterController_dtsParameterControllerInitialize_TestD1Ev
FNDA:3,_ZN64TestDtsParameterController_dtsParameterControllerInitialize_Test8TestBodyEv
FNDA:3,_ZN58TestDtsParameterController_dtsParameterControllerFind_TestD0Ev
FNDA:3,_ZN64TestDtsParameterController_dtsParameterControllerInitialize_TestD0Ev
FNDA:3,_ZN58TestDtsParameterController_dtsParameterControllerFind_TestD1Ev
FNDA:3,_ZN58TestDtsParameterController_dtsParameterControllerFind_Test8TestBodyEv
FNDA:90,__cxx_global_var_init
FNDA:3,_ZN64TestDtsParameterController_dtsParameterControllerInitialize_TestC2Ev
FNDA:3,_ZN58TestDtsParameterController_dtsParameterControllerFind_TestC1Ev
FNDA:3,_ZN58TestDtsParameterController_dtsParameterControllerFind_TestC2Ev
FNDA:3,_ZN64TestDtsParameterController_dtsParameterControllerInitialize_TestC1Ev
FNDA:3,_ZN64TestDtsParameterController_dtsParameterControllerInitialize_TestD2Ev
FNDA:90,__cxx_global_var_init.10
FNF:14
FNH:14
DA:3,108
DA:5,3
DA:6,3
DA:10,3
DA:11,3
DA:12,3
DA:13,3
DA:14,3
DA:16,108
DA:18,3
DA:20,3
DA:21,3
DA:25,3
DA:26,3
DA:28,3
DA:29,3
DA:33,3
DA:34,3
DA:36,3
DA:37,3
DA:41,3
DA:42,3
DA:43,3
LF:23
LH:23
end_of_record
TN:
SF:/Users/dogukanarat/Workspace/DevelopmentTestSystem/Tests/UnitTest/TestDtsParameterController.h
FN:17,_ZN26TestDtsParameterControllerC2Ev
FN:20,_ZN26TestDtsParameterControllerD2Ev
FN:20,_ZN26TestDtsParameterControllerD0Ev
FN:20,_ZN26TestDtsParameterControllerD1Ev
FN:24,_ZN26TestDtsParameterController5SetUpEv
FN:32,_ZN26TestDtsParameterController8TearDownEv
FNDA:0,_ZN26TestDtsParameterControllerD0Ev
FNDA:6,_ZN26TestDtsParameterControllerD2Ev
FNDA:6,_ZN26TestDtsParameterController5SetUpEv
FNDA:6,_ZN26TestDtsParameterControllerC2Ev
FNDA:0,_ZN26TestDtsParameterControllerD1Ev
FNDA:6,_ZN26TestDtsParameterController8TearDownEv
FNF:6
FNH:4
DA:17,18
DA:18,12
DA:19,6
DA:20,6
DA:21,0
DA:22,6
DA:24,6
DA:26,6
DA:27,6
DA:30,6
DA:32,6
DA:34,6
LF:12
LH:11
end_of_record
TN:
SF:/Users/dogukanarat/Workspace/DevelopmentTestSystem/Tests/UnitTest/TestDtsProtocol.cpp
FN:0,__cxx_global_var_init.44
FN:0,__cxx_global_var_init.18
FN:0,__cxx_global_var_init.52
FN:0,__cxx_global_var_init
FN:0,__cxx_global_var_init.56
FN:0,__cxx_global_var_init.11
FN:0,__cxx_global_var_init.27
FN:10,_ZN41TestDtsProtocol_dtsProtocolSetHeader_TestC2Ev
FN:10,_ZN41TestDtsProtocol_dtsProtocolSetHeader_Test8TestBodyEv
FN:10,_ZN41TestDtsProtocol_dtsProtocolSetHeader_TestD0Ev
FN:10,_ZN41TestDtsProtocol_dtsProtocolSetHeader_TestD2Ev
FN:10,_ZN41TestDtsProtocol_dtsProtocolSetHeader_TestD1Ev
FN:10,_ZN41TestDtsProtocol_dtsProtocolSetHeader_TestC1Ev
FN:30,_ZN40TestDtsProtocol_dtsProtocolSetValue_TestD1Ev
FN:30,_ZN40TestDtsProtocol_dtsProtocolSetValue_TestD2Ev
FN:30,_ZN40TestDtsProtocol_dtsProtocolSetValue_TestD0Ev
FN:30,_ZN40TestDtsProtocol_dtsProtocolSetValue_TestC2Ev
FN:30,_ZN40TestDtsProtocol_dtsProtocolSetValue_TestC1Ev
FN:30,_ZN40TestDtsProtocol_dtsProtocolSetValue_Test8TestBodyEv
FN:53,_ZN44TestDtsProtocol_dtsProtocolSetParameter_TestC1Ev
FN:53,_ZN44TestDtsProtocol_dtsProtocolSetParameter_TestD1Ev
FN:53,_ZN44TestDtsProtocol_dtsProtocolSetParameter_TestC2Ev
FN:53,_ZN44TestDtsProtocol_dtsProtocolSetParameter_TestD0Ev
FN:53,_ZN44TestDtsProtocol_dtsProtocolSetParameter_TestD2Ev
FN:53,_ZN44TestDtsProtocol_dtsProtocolSetParameter_Test8TestBodyEv
FN:86,_ZN52TestDtsProtocol_dtsProtocolCreateMonitorMessage_TestD2Ev
FN:86,_ZN52TestDtsProtocol_dtsProtocolCreateMonitorMessage_Test8TestBodyEv
FN:86,_ZN52TestDtsProtocol_dtsProtocolCreateMonitorMessage_TestC1Ev
FN:86,_ZN52TestDtsProtocol_dtsProtocolCreateMonitorMessage_TestD0Ev
FN:86,_ZN52TestDtsProtocol_dtsProtocolCreateMonitorMessage_TestC2Ev
FN:86,_ZN52TestDtsProtocol_dtsProtocolCreateMonitorMessage_TestD1Ev
FN:173,_ZN53TestDtsProtocol_dtsProtocolResolveMonitorMessage_TestD2Ev
FN:173,_ZN53TestDtsProtocol_dtsProtocolResolveMonitorMessage_TestC2Ev
FN:173,_ZN53TestDtsProtocol_dtsProtocolResolveMonitorMessage_Test8TestBodyEv
FN:173,_ZN53TestDtsProtocol_dtsProtocolResolveMonitorMessage_TestC1Ev
FN:173,_ZN53TestDtsProtocol_dtsProtocolResolveMonitorMessage_TestD0Ev
FN:173,_ZN53TestDtsProtocol_dtsProtocolResolveMonitorMessage_TestD1Ev
FN:237,_ZN54TestDtsProtocol_dtsProtocolCreateDiscoveryMessage_TestD2Ev
FN:237,_ZN54TestDtsProtocol_dtsProtocolCreateDiscoveryMessage_TestD1Ev
FN:237,_ZN54TestDtsProtocol_dtsProtocolCreateDiscoveryMessage_Test8TestBodyEv
FN:237,_ZN54TestDtsProtocol_dtsProtocolCreateDiscoveryMessage_TestD0Ev
FN:237,_ZN54TestDtsProtocol_dtsProtocolCreateDiscoveryMessage_TestC1Ev
FN:237,_ZN54TestDtsProtocol_dtsProtocolCreateDiscoveryMessage_TestC2Ev
FN:258,_ZN63TestDtsProtocol_dtsProtocolResolveDiscoveryResponseMessage_Test8TestBodyEv
FN:258,_ZN63TestDtsProtocol_dtsProtocolResolveDiscoveryResponseMessage_TestD1Ev
FN:258,_ZN63TestDtsProtocol_dtsProtocolResolveDiscoveryResponseMessage_TestD0Ev
FN:258,_ZN63TestDtsProtocol_dtsProtocolResolveDiscoveryResponseMessage_TestC2Ev
FN:258,_ZN63TestDtsProtocol_dtsProtocolResolveDiscoveryResponseMessage_TestC1Ev
FN:258,_ZN63TestDtsProtocol_dtsProtocolResolveDiscoveryResponseMessage_TestD2Ev
FNDA:3,_ZN52TestDtsProtocol_dtsProtocolCreateMonitorMessage_TestD1Ev
FNDA:3,_ZN53TestDtsProtocol_dtsProtocolResolveMonitorMessage_TestD1Ev
FNDA:3,_ZN40TestDtsProtocol_dtsProtocolSetValue_Test8TestBodyEv
FNDA:3,_ZN54TestDtsProtocol_dtsProtocolCreateDiscoveryMessage_TestC2Ev
FNDA:3,_ZN52TestDtsProtocol_dtsProtocolCreateMonitorMessage_TestC2Ev
FNDA:3,_ZN44TestDtsProtocol_dtsProtocolSetParameter_TestD2Ev
FNDA:3,_ZN44TestDtsProtocol_dtsProtocolSetParameter_TestD0Ev
FNDA:3,_ZN41TestDtsProtocol_dtsProtocolSetHeader_TestD1Ev
FNDA:3,_ZN52TestDtsProtocol_dtsProtocolCreateMonitorMessage_TestD0Ev
FNDA:3,_ZN40TestDtsProtocol_dtsProtocolSetValue_TestC1Ev
FNDA:3,_ZN41TestDtsProtocol_dtsProtocolSetHeader_TestC1Ev
FNDA:3,_ZN54TestDtsProtocol_dtsProtocolCreateDiscoveryMessage_TestC1Ev
FNDA:90,__cxx_global_var_init.27
FNDA:90,__cxx_global_var_init.11
FNDA:3,_ZN44TestDtsProtocol_dtsProtocolSetParameter_Test8TestBodyEv
FNDA:3,_ZN63TestDtsProtocol_dtsProtocolResolveDiscoveryResponseMessage_TestD2Ev
FNDA:3,_ZN52TestDtsProtocol_dtsProtocolCreateMonitorMessage_TestC1Ev
FNDA:90,__cxx_global_var_init.56
FNDA:3,_ZN53TestDtsProtocol_dtsProtocolResolveMonitorMessage_TestD0Ev
FNDA:3,_ZN63TestDtsProtocol_dtsProtocolResolveDiscoveryResponseMessage_TestC1Ev
FNDA:3,_ZN54TestDtsProtocol_dtsProtocolCreateDiscoveryMessage_TestD0Ev
FNDA:3,_ZN52TestDtsProtocol_dtsProtocolCreateMonitorMessage_TestD2Ev
FNDA:3,_ZN52TestDtsProtocol_dtsProtocolCreateMonitorMessage_Test8TestBodyEv
FNDA:3,_ZN63TestDtsProtocol_dtsProtocolResolveDiscoveryResponseMessage_TestC2Ev
FNDA:3,_ZN53TestDtsProtocol_dtsProtocolResolveMonitorMessage_TestC1Ev
FNDA:90,__cxx_global_var_init
FNDA:3,_ZN54TestDtsProtocol_dtsProtocolCreateDiscoveryMessage_Test8TestBodyEv
FNDA:3,_ZN40TestDtsProtocol_dtsProtocolSetValue_TestC2Ev
FNDA:3,_ZN63TestDtsProtocol_dtsProtocolResolveDiscoveryResponseMessage_TestD0Ev
FNDA:3,_ZN54TestDtsProtocol_dtsProtocolCreateDiscoveryMessage_TestD1Ev
FNDA:90,__cxx_global_var_init.52
FNDA:3,_ZN53TestDtsProtocol_dtsProtocolResolveMonitorMessage_Test8TestBodyEv
FNDA:3,_ZN41TestDtsProtocol_dtsProtocolSetHeader_TestD2Ev
FNDA:3,_ZN40TestDtsProtocol_dtsProtocolSetValue_TestD0Ev
FNDA:3,_ZN54TestDtsProtocol_dtsProtocolCreateDiscoveryMessage_TestD2Ev
FNDA:3,_ZN41TestDtsProtocol_dtsProtocolSetHeader_TestC2Ev
FNDA:3,_ZN40TestDtsProtocol_dtsProtocolSetValue_TestD2Ev
FNDA:3,_ZN44TestDtsProtocol_dtsProtocolSetParameter_TestC1Ev
FNDA:90,__cxx_global_var_init.18
FNDA:3,_ZN63TestDtsProtocol_dtsProtocolResolveDiscoveryResponseMessage_Test8TestBodyEv
FNDA:90,__cxx_global_var_init.44
FNDA:3,_ZN40TestDtsProtocol_dtsProtocolSetValue_TestD1Ev
FNDA:3,_ZN44TestDtsProtocol_dtsProtocolSetParameter_TestC2Ev
FNDA:3,_ZN63TestDtsProtocol_dtsProtocolResolveDiscoveryResponseMessage_TestD1Ev
FNDA:3,_ZN44TestDtsProtocol_dtsProtocolSetParameter_TestD1Ev
FNDA:3,_ZN53TestDtsProtocol_dtsProtocolResolveMonitorMessage_TestD2Ev
FNDA:3,_ZN41TestDtsProtocol_dtsProtocolSetHeader_TestD0Ev
FNDA:3,_ZN53TestDtsProtocol_dtsProtocolResolveMonitorMessage_TestC2Ev
FNDA:3,_ZN41TestDtsProtocol_dtsProtocolSetHeader_Test8TestBodyEv
FNF:49
FNH:49
DA:10,108
DA:14,3
DA:16,3
DA:18,3
DA:20,3
DA:22,3
DA:24,3
DA:25,3
DA:27,3
DA:28,3
DA:30,108
DA:34,3
DA:35,3
DA:37,3
DA:39,3
DA:41,3
DA:43,3
DA:45,3
DA:46,3
DA:47,3
DA:48,3
DA:50,3
DA:51,3
DA:53,108
DA:57,3
DA:59,3
DA:61,3
DA:63,3
DA:65,3
DA:67,3
DA:69,3
DA:72,3
DA:73,3
DA:76,3
DA:77,3
DA:80,3
DA:81,3
DA:82,3
DA:83,3
DA:84,3
DA:86,108
DA:90,3
DA:92,3
DA:94,3
DA:96,3
DA:99,3
DA:101,3
DA:102,3
DA:107,3
DA:108,3
DA:110,3
DA:112,3
DA:114,3
DA:116,3
DA:119,3
DA:120,3
DA:123,3
DA:124,3
DA:128,3
DA:129,3
DA:132,3
DA:133,3
DA:136,3
DA:137,3
DA:138,3
DA:139,3
DA:140,3
DA:141,3
DA:142,3
DA:143,3
DA:147,3
DA:148,3
DA:151,3
DA:152,3
DA:155,3
DA:156,3
DA:157,3
DA:158,3
DA:162,3
DA:163,3
DA:166,3
DA:167,3
DA:170,3
DA:171,3
DA:173,108
DA:178,3
DA:180,3
DA:182,3
DA:184,3
DA:186,3
DA:188,3
DA:191,3
DA:193,3
DA:194,3
DA:199,3
DA:200,3
DA:202,3
DA:204,3
DA:208,3
DA:214,3
DA:216,3
DA:218,3
DA:220,3
DA:225,3
DA:230,3
DA:235,3
DA:237,108
DA:241,3
DA:243,3
DA:245,3
DA:247,3
DA:249,3
DA:251,3
DA:254,3
DA:255,3
DA:256,3
DA:258,108
DA:262,3
DA:264,3
DA:266,3
DA:268,3
DA:270,3
DA:272,3
DA:275,3
DA:277,3
DA:279,3
DA:281,3
DA:283,3
DA:284,3
LF:129
LH:129
end_of_record
TN:
SF:/Users/dogukanarat/Workspace/DevelopmentTestSystem/Tests/UnitTest/TestDtsProtocol.h
FN:19,_ZN15TestDtsProtocolC2Ev
FN:22,_ZN15TestDtsProtocolD0Ev
FN:22,_ZN15TestDtsProtocolD1Ev
FN:22,_ZN15TestDtsProtocolD2Ev
FN:26,_ZN15TestDtsProtocol5SetUpEv
FN:34,_ZN15TestDtsProtocol8TearDownEv
FNDA:0,_ZN15TestDtsProtocolD0Ev
FNDA:21,_ZN15TestDtsProtocol5SetUpEv
FNDA:21,_ZN15TestDtsProtocolC2Ev
FNDA:21,_ZN15TestDtsProtocol8TearDownEv
FNDA:0,_ZN15TestDtsProtocolD1Ev
FNDA:21,_ZN15TestDtsProtocolD2Ev
FNF:6
FNH:4
DA:19,63
DA:20,42
DA:21,21
DA:22,21
DA:23,0
DA:24,21
DA:26,21
DA:28,21
DA:29,21
DA:32,21
DA:34,21
DA:36,21
LF:12
LH:11
end_of_record
TN:
SF:/Users/dogukanarat/Workspace/DevelopmentTestSystem/Tests/UnitTest/TestDtsServer.cpp
FN:0,__cxx_global_var_init.14
FN:0,__cxx_global_var_init
FN:3,_ZN42TestDtsServer_TestDtsServerInitialize_TestD0Ev
FN:3,_ZN42TestDtsServer_TestDtsServerInitialize_TestC1Ev
FN:3,_ZN42TestDtsServer_TestDtsServerInitialize_TestD1Ev
FN:3,_ZN42TestDtsServer_TestDtsServerInitialize_Test8TestBodyEv
FN:3,_ZN42TestDtsServer_TestDtsServerInitialize_TestC2Ev
FN:3,_ZN42TestDtsServer_TestDtsServerInitialize_TestD2Ev
FN:25,_ZN49TestDtsServer_TestDtsServerMonitoringFeature_Test8TestBodyEv
FN:25,_ZN49TestDtsServer_TestDtsServerMonitoringFeature_TestC2Ev
FN:25,_ZN49TestDtsServer_TestDtsServerMonitoringFeature_TestD0Ev
FN:25,_ZN49TestDtsServer_TestDtsServerMonitoringFeature_TestC1Ev
FN:25,_ZN49TestDtsServer_TestDtsServerMonitoringFeature_TestD2Ev
FN:25,_ZN49TestDtsServer_TestDtsServerMonitoringFeature_TestD1Ev
FNDA:3,_ZN49TestDtsServer_TestDtsServerMonitoringFeature_TestC2Ev
FNDA:3,_ZN49TestDtsServer_TestDtsServerMonitoringFeature_Test8TestBodyEv
FNDA:90,__cxx_global_var_init.14
FNDA:3,_ZN42TestDtsServer_TestDtsServerInitialize_TestD1Ev
FNDA:3,_ZN42TestDtsServer_TestDtsServerInitialize_TestC1Ev
FNDA:3,_ZN49TestDtsServer_TestDtsServerMonitoringFeature_TestD0Ev
FNDA:90,__cxx_global_var_init
FNDA:3,_ZN49TestDtsServer_TestDtsServerMonitoringFeature_TestC1Ev
FNDA:3,_ZN42TestDtsServer_TestDtsServerInitialize_Test8TestBodyEv
FNDA:3,_ZN42TestDtsServer_TestDtsServerInitialize_TestC2Ev
FNDA:3,_ZN49TestDtsServer_TestDtsServerMonitoringFeature_TestD2Ev
FNDA:3,_ZN42TestDtsServer_TestDtsServerInitialize_TestD2Ev
FNDA:3,_ZN49TestDtsServer_TestDtsServerMonitoringFeature_TestD1Ev
FNDA:3,_ZN42TestDtsServer_TestDtsServerInitialize_TestD0Ev
FNF:14
FNH:14
DA:3,108
DA:5,3
DA:7,3
DA:8,3
DA:11,3
DA:13,3
DA:16,3
DA:17,3
DA:18,3
DA:19,3
DA:20,3
DA:21,3
DA:23,3
DA:25,108
DA:27,3
DA:29,3
DA:30,3
DA:33,3
DA:35,3
DA:40,3
DA:42,3
DA:43,3
DA:48,3
DA:50,3
DA:52,3
DA:54,3
DA:56,3
DA:58,3
DA:60,3
DA:61,3
DA:62,3
LF:31
LH:31
end_of_record
TN:
SF:/Users/dogukanarat/Workspace/DevelopmentTestSystem/Tests/UnitTest/TestDtsServer.h
FN:17,_ZN13TestDtsServerC2Ev
FN:20,_ZN13TestDtsServerD2Ev
FN:20,_ZN13TestDtsServerD0Ev
FN:20,_ZN13TestDtsServerD1Ev
FN:24,_ZN13TestDtsServer5SetUpEv
FN:28,_ZN13TestDtsServer8TearDownEv
FNDA:0,_ZN13TestDtsServerD0Ev
FNDA:6,_ZN13TestDtsServerC2Ev
FNDA:0,_ZN13TestDtsServerD1Ev
FNDA:6,_ZN13TestDtsServerD2Ev
FNDA:6,_ZN13TestDtsServer5SetUpEv
FNDA:6,_ZN13TestDtsServer8TearDownEv
FNF:6
FNH:4
DA:17,18
DA:18,12
DA:19,6
DA:20,6
DA:21,0
DA:22,6
DA:24,6
DA:26,6
DA:28,6
DA:30,6
LF:10
LH:9
end_of_record
TN:
SF:/Users/dogukanarat/Workspace/DevelopmentTestSystem/Tests/UnitTest/TestDtsUpdate.cpp
FN:0,__cxx_global_var_init
FN:0,__cxx_global_var_init.10
FN:0,__cxx_global_var_init.5
FN:0,__cxx_global_var_init.13
FN:0,__cxx_global_var_init.15
FN:0,__cxx_global_var_init.8
FN:3,_ZN42TestDtsUpdate_dtsUpdateForBoolDefault_TestC2Ev
FN:3,_ZN42TestDtsUpdate_dtsUpdateForBoolDefault_TestD2Ev
FN:3,_ZN42TestDtsUpdate_dtsUpdateForBoolDefault_TestC1Ev
FN:3,_ZN42TestDtsUpdate_dtsUpdateForBoolDefault_TestD1Ev
FN:3,_ZN42TestDtsUpdate_dtsUpdateForBoolDefault_Test8TestBodyEv
FN:3,_ZN42TestDtsUpdate_dtsUpdateForBoolDefault_TestD0Ev
FN:17,_ZN42TestDtsUpdate_dtsUpdateForBoolUpdated_TestC1Ev
FN:17,_ZN42TestDtsUpdate_dtsUpdateForBoolUpdated_TestD0Ev
FN:17,_ZN42TestDtsUpdate_dtsUpdateForBoolUpdated_TestC2Ev
FN:17,_ZN42TestDtsUpdate_dtsUpdateForBoolUpdated_TestD1Ev
FN:17,_ZN42TestDtsUpdate_dtsUpdateForBoolUpdated_Test8TestBodyEv
FN:17,_ZN42TestDtsUpdate_dtsUpdateForBoolUpdated_TestD2Ev
FN:31,_ZN43TestDtsUpdate_dtsUpdateForInt32Default_TestC1Ev
FN:31,_ZN43TestDtsUpdate_dtsUpdateForInt32Default_TestD0Ev
FN:31,_ZN43TestDtsUpdate_dtsUpdateForInt32Default_TestD2Ev
FN:31,_ZN43TestDtsUpdate_dtsUpdateForInt32Default_TestC2Ev
FN:31,_ZN43TestDtsUpdate_dtsUpdateForInt32Default_TestD1Ev
FN:31,_ZN43TestDtsUpdate_dtsUpdateForInt32Default_Test8TestBodyEv
FN:45,_ZN43TestDtsUpdate_dtsUpdateForInt32Updated_TestC2Ev
FN:45,_ZN43TestDtsUpdate_dtsUpdateForInt32Updated_TestD2Ev
FN:45,_ZN43TestDtsUpdate_dtsUpdateForInt32Updated_TestD0Ev
FN:45,_ZN43TestDtsUpdate_dtsUpdateForInt32Updated_TestC1Ev
FN:45,_ZN43TestDtsUpdate_dtsUpdateForInt32Updated_Test8TestBodyEv
FN:45,_ZN43TestDtsUpdate_dtsUpdateForInt32Updated_TestD1Ev
FN:59,_ZN45TestDtsUpdate_dtsUpdateForFloat64Default_Test8TestBodyEv
FN:59,_ZN45TestDtsUpdate_dtsUpdateForFloat64Default_TestC1Ev
FN:59,_ZN45TestDtsUpdate_dtsUpdateForFloat64Default_TestD0Ev
FN:59,_ZN45TestDtsUpdate_dtsUpdateForFloat64Default_TestD1Ev
FN:59,_ZN45TestDtsUpdate_dtsUpdateForFloat64Default_TestC2Ev
FN:59,_ZN45TestDtsUpdate_dtsUpdateForFloat64Default_TestD2Ev
FN:74,_ZN45TestDtsUpdate_dtsUpdateForFloat64Updated_TestC1Ev
FN:74,_ZN45TestDtsUpdate_dtsUpdateForFloat64Updated_TestD2Ev
FN:74,_ZN45TestDtsUpdate_dtsUpdateForFloat64Updated_Test8TestBodyEv
FN:74,_ZN45TestDtsUpdate_dtsUpdateForFloat64Updated_TestD0Ev
FN:74,_ZN45TestDtsUpdate_dtsUpdateForFloat64Updated_TestC2Ev
FN:74,_ZN45TestDtsUpdate_dtsUpdateForFloat64Updated_TestD1Ev
FNDA:90,__cxx_global_var_init.10
FNDA:3,_ZN45TestDtsUpdate_dtsUpdateForFloat64Updated_Test8TestBodyEv
FNDA:3,_ZN43TestDtsUpdate_dtsUpdateForInt32Default_TestD0Ev
FNDA:3,_ZN42TestDtsUpdate_dtsUpdateForBoolUpdated_TestC1Ev
FNDA:3,_ZN43TestDtsUpdate_dtsUpdateForInt32Default_TestC1Ev
FNDA:3,_ZN45TestDtsUpdate_dtsUpdateForFloat64Updated_TestC1Ev
FNDA:3,_ZN42TestDtsUpdate_dtsUpdateForBoolDefault_TestC2Ev
FNDA:3,_ZN45TestDtsUpdate_dtsUpdateForFloat64Default_Test8TestBodyEv
FNDA:90,__cxx_global_var_init
FNDA:3,_ZN45TestDtsUpdate_dtsUpdateForFloat64Updated_TestD2Ev
FNDA:3,_ZN43TestDtsUpdate_dtsUpdateForInt32Updated_TestC2Ev
FNDA:3,_ZN42TestDtsUpdate_dtsUpdateForBoolDefault_TestD2Ev
FNDA:3,_ZN43TestDtsUpdate_dtsUpdateForInt32Updated_TestD0Ev
FNDA:3,_ZN42TestDtsUpdate_dtsUpdateForBoolUpdated_TestC2Ev
FNDA:90,__cxx_global_var_init.5
FNDA:3,_ZN43TestDtsUpdate_dtsUpdateForInt32Updated_TestC1Ev
FNDA:3,_ZN45TestDtsUpdate_dtsUpdateForFloat64Updated_TestD0Ev
FNDA:3,_ZN42TestDtsUpdate_dtsUpdateForBoolUpdated_TestD0Ev
FNDA:3,_ZN45TestDtsUpdate_dtsUpdateForFloat64Default_TestC1Ev
FNDA:3,_ZN43TestDtsUpdate_dtsUpdateForInt32Updated_TestD2Ev
FNDA:3,_ZN43TestDtsUpdate_dtsUpdateForInt32Default_TestD2Ev
FNDA:3,_ZN45TestDtsUpdate_dtsUpdateForFloat64Default_TestD1Ev
FNDA:90,__cxx_global_var_init.13
FNDA:3,_ZN42TestDtsUpdate_dtsUpdateForBoolUpdated_TestD1Ev
FNDA:3,_ZN43TestDtsUpdate_dtsUpdateForInt32Default_TestC2Ev
FNDA:3,_ZN43TestDtsUpdate_dtsUpdateForInt32Default_TestD1Ev
FNDA:3,_ZN43TestDtsUpdate_dtsUpdateForInt32Updated_Test8TestBodyEv
FNDA:3,_ZN45TestDtsUpdate_dtsUpdateForFloat64Default_TestD0Ev
FNDA:3,_ZN42TestDtsUpdate_dtsUpdateForBoolDefault_TestC1Ev
FNDA:3,_ZN43TestDtsUpdate_dtsUpdateForInt32Updated_TestD1Ev
FNDA:90,__cxx_global_var_init.15
FNDA:3,_ZN45TestDtsUpdate_dtsUpdateForFloat64Updated_TestD1Ev
FNDA:3,_ZN42TestDtsUpdate_dtsUpdateForBoolDefault_TestD0Ev
FNDA:3,_ZN43TestDtsUpdate_dtsUpdateForInt32Default_Test8TestBodyEv
FNDA:90,__cxx_global_var_init.8
FNDA:3,_ZN45TestDtsUpdate_dtsUpdateForFloat64Default_TestD2Ev
FNDA:3,_ZN42TestDtsUpdate_dtsUpdateForBoolUpdated_TestD2Ev
FNDA:3,_ZN42TestDtsUpdate_dtsUpdateForBoolUpdated_Test8TestBodyEv
FNDA:3,_ZN42TestDtsUpdate_dtsUpdateForBoolDefault_TestD1Ev
FNDA:3,_ZN45TestDtsUpdate_dtsUpdateForFloat64Updated_TestC2Ev
FNDA:3,_ZN42TestDtsUpdate_dtsUpdateForBoolDefault_Test8TestBodyEv
FNDA:3,_ZN45TestDtsUpdate_dtsUpdateForFloat64Default_TestC2Ev
FNF:42
FNH:42
DA:3,108
DA:5,3
DA:6,3
DA:9,3
DA:10,3
DA:12,3
DA:14,3
DA:15,3
DA:17,108
DA:19,3
DA:20,3
DA:23,3
DA:24,3
DA:26,3
DA:28,3
DA:29,3
DA:31,108
DA:33,3
DA:34,3
DA:37,3
DA:38,3
DA:40,3
DA:42,3
DA:43,3
DA:45,108
DA:47,3
DA:48,3
DA:51,3
DA:52,3
DA:54,3
DA:56,3
DA:57,3
DA:59,108
DA:61,3
DA:62,3
DA:63,3
DA:66,3
DA:67,3
DA:69,3
DA:71,3
DA:72,3
DA:74,108
DA:76,3
DA:77,3
DA:78,3
DA:81,3
DA:82,3
DA:84,3
DA:86,3
DA:87,3
LF:50
LH:50
end_of_record
TN:
SF:/Users/dogukanarat/Workspace/DevelopmentTestSystem/Tests/UnitTest/TestDtsUpdate.h
FN:18,_ZN13TestDtsUpdateC2Ev
FN:21,_ZN13TestDtsUpdateD2Ev
FN:21,_ZN13TestDtsUpdateD0Ev
FN:21,_ZN13TestDtsUpdateD1Ev
FN:25,_ZN13TestDtsUpdate5SetUpEv
FN:33,_ZN13TestDtsUpdate8TearDownEv
FNDA:18,_ZN13TestDtsUpdateD2Ev
FNDA:0,_ZN13TestDtsUpdateD0Ev
FNDA:18,_ZN13TestDtsUpdate5SetUpEv
FNDA:18,_ZN13TestDtsUpdate8TearDownEv
FNDA:18,_ZN13TestDtsUpdateC2Ev
FNDA:0,_ZN13TestDtsUpdateD1Ev
FNF:6
FNH:4
DA:18,54
DA:19,36
DA:20,18
DA:21,18
DA:22,0
DA:23,18
DA:25,18
DA:27,18
DA:28,18
DA:31,18
DA:33,18
DA:35,18
LF:12
LH:11
end_of_record
TN:
SF:/Users/dogukanarat/Workspace/DevelopmentTestSystem/Tests/UnitTest/TestDtsUtilities.cpp
FN:0,__cxx_global_var_init
FN:0,__cxx_global_var_init.8
FN:0,__cxx_global_var_init.5
FN:8,_ZN29DtsUtilitiesTest_memCopy_TestC1Ev
FN:8,_ZN29DtsUtilitiesTest_memCopy_TestD1Ev
FN:8,_ZN29DtsUtilitiesTest_memCopy_TestD0Ev
FN:8,_ZN29DtsUtilitiesTest_memCopy_TestD2Ev
FN:8,_ZN29DtsUtilitiesTest_memCopy_Test8TestBodyEv
FN:8,_ZN29DtsUtilitiesTest_memCopy_TestC2Ev
FN:23,_ZN28DtsUtilitiesTest_memSet_TestD1Ev
FN:23,_ZN28DtsUtilitiesTest_memSet_Test8TestBodyEv
FN:23,_ZN28DtsUtilitiesTest_memSet_TestD2Ev
FN:23,_ZN28DtsUtilitiesTest_memSet_TestC2Ev
FN:23,_ZN28DtsUtilitiesTest_memSet_TestD0Ev
FN:23,_ZN28DtsUtilitiesTest_memSet_TestC1Ev
FN:37,_ZN29DtsUtilitiesTest_dtsSwap_TestD1Ev
FN:37,_ZN29DtsUtilitiesTest_dtsSwap_Test8TestBodyEv
FN:37,_ZN29DtsUtilitiesTest_dtsSwap_TestC1Ev
FN:37,_ZN29DtsUtilitiesTest_dtsSwap_TestD0Ev
FN:37,_ZN29DtsUtilitiesTest_dtsSwap_TestD2Ev
FN:37,_ZN29DtsUtilitiesTest_dtsSwap_TestC2Ev
FNDA:3,_ZN28DtsUtilitiesTest_memSet_TestD2Ev
FNDA:3,_ZN28DtsUtilitiesTest_memSet_TestC2Ev
FNDA:3,_ZN29DtsUtilitiesTest_dtsSwap_TestC1Ev
FNDA:3,_ZN29DtsUtilitiesTest_dtsSwap_TestD2Ev
FNDA:3,_ZN29DtsUtilitiesTest_dtsSwap_TestD0Ev
FNDA:90,__cxx_global_var_init.8
FNDA:90,__cxx_global_var_init.5
FNDA:3,_ZN28DtsUtilitiesTest_memSet_TestD0Ev
FNDA:3,_ZN29DtsUtilitiesTest_memCopy_Test8TestBodyEv
FNDA:3,_ZN28DtsUtilitiesTest_memSet_TestC1Ev
FNDA:3,_ZN29DtsUtilitiesTest_dtsSwap_TestC2Ev
FNDA:3,_ZN29DtsUtilitiesTest_memCopy_TestC2Ev
FNDA:3,_ZN28DtsUtilitiesTest_memSet_TestD1Ev
FNDA:3,_ZN29DtsUtilitiesTest_dtsSwap_TestD1Ev
FNDA:3,_ZN29DtsUtilitiesTest_memCopy_TestC1Ev
FNDA:3,_ZN29DtsUtilitiesTest_memCopy_TestD1Ev
FNDA:3,_ZN29DtsUtilitiesTest_dtsSwap_Test8TestBodyEv
FNDA:3,_ZN28DtsUtilitiesTest_memSet_Test8TestBodyEv
FNDA:3,_ZN29DtsUtilitiesTest_memCopy_TestD0Ev
FNDA:3,_ZN29DtsUtilitiesTest_memCopy_TestD2Ev
FNDA:90,__cxx_global_var_init
FNF:21
FNH:21
DA:8,108
DA:12,3
DA:14,3
DA:17,387
DA:19,384
DA:20,384
DA:21,3
DA:23,108
DA:26,3
DA:27,3
DA:29,3
DA:31,387
DA:33,384
DA:34,384
DA:35,3
DA:37,108
DA:39,3
DA:40,3
DA:42,3
DA:44,3
DA:46,3
DA:47,3
LF:22
LH:22
end_of_record
