TN:
SF:/Users/dogukanarat/Workspace/DevelopmentTestSystem/Binaries/Debug/Intermediate/_deps/googletest-src/googletest/include/gtest/gtest.h
FN:2293,_Z13RUN_ALL_TESTSv
FNDA:90,_Z13RUN_ALL_TESTSv
DA:2293,90
FNF:1
FNH:1
LF:1
LH:1
end_of_record
SF:/Users/dogukanarat/Workspace/DevelopmentTestSystem/Tests/UnitTest/Main.cpp
FN:10,main
FNDA:90,main
DA:10,90
DA:12,90
DA:13,90
FNF:1
FNH:1
LF:3
LH:3
end_of_record
TN:
SF:/Users/dogukanarat/Workspace/DevelopmentTestSystem/Binaries/Debug/Intermediate/_deps/googletest-src/googletest/include/gtest/gtest-assertion-result.h
FN:133,_ZN7testing15AssertionResultD1Ev
FNDA:0,_ZN7testing15AssertionResultD1Ev
FN:133,_ZN7testing15AssertionResultD2Ev
FNDA:0,_ZN7testing15AssertionResultD2Ev
FN:174,_ZNK7testing15AssertionResultcvbEv
FNDA:0,_ZNK7testing15AssertionResultcvbEv
FN:183,_ZNK7testing15AssertionResult7messageEv
FNDA:0,_ZNK7testing15AssertionResult7messageEv
FN:187,_ZNK7testing15AssertionResult15failure_messageEv
FNDA:0,_ZNK7testing15AssertionResult15failure_messageEv
DA:174,0
DA:183,0
DA:184,0
DA:187,0
FNF:5
FNH:0
LF:4
LH:0
end_of_record
SF:/Library/Developer/CommandLineTools/SDKs/MacOSX12.3.sdk/usr/include/c++/v1/ios
FN:344,_ZNSt3__18ios_baseC2Ev
FNDA:0,_ZNSt3__18ios_baseC2Ev
FN:348,_ZNKSt3__18ios_base5rdbufEv
FNDA:0,_ZNKSt3__18ios_base5rdbufEv
FN:459,_ZNKSt3__18ios_base5flagsEv
FNDA:0,_ZNKSt3__18ios_base5flagsEv
FN:521,_ZNKSt3__18ios_base5widthEv
FNDA:0,_ZNKSt3__18ios_base5widthEv
FN:528,_ZNSt3__18ios_base5widthEl
FNDA:0,_ZNSt3__18ios_base5widthEl
FN:546,_ZNSt3__18ios_base8setstateEj
FNDA:0,_ZNSt3__18ios_base8setstateEj
FN:623,_ZNSt3__19basic_iosIcNS_11char_traitsIcEEE8setstateEj
FNDA:0,_ZNSt3__19basic_iosIcNS_11char_traitsIcEEE8setstateEj
FN:665,_ZNSt3__19basic_iosIcNS_11char_traitsIcEEEC2Ev
FNDA:0,_ZNSt3__19basic_iosIcNS_11char_traitsIcEEEC2Ev
FN:698,_ZNSt3__19basic_iosIcNS_11char_traitsIcEEE4initEPNS_15basic_streambufIcS2_EE
FNDA:0,_ZNSt3__19basic_iosIcNS_11char_traitsIcEEE4initEPNS_15basic_streambufIcS2_EE
FN:726,_ZNKSt3__19basic_iosIcNS_11char_traitsIcEEE5rdbufEv
FNDA:0,_ZNKSt3__19basic_iosIcNS_11char_traitsIcEEE5rdbufEv
FN:764,_ZNKSt3__19basic_iosIcNS_11char_traitsIcEEE5widenEc
FNDA:0,_ZNKSt3__19basic_iosIcNS_11char_traitsIcEEE5widenEc
FN:772,_ZNKSt3__19basic_iosIcNS_11char_traitsIcEEE4fillEv
FNDA:0,_ZNKSt3__19basic_iosIcNS_11char_traitsIcEEE4fillEv
DA:344,0
DA:345,0
DA:348,0
DA:459,0
DA:461,0
DA:521,0
DA:523,0
DA:528,0
DA:530,0
DA:531,0
DA:532,0
DA:546,0
DA:548,0
DA:549,0
DA:623,0
DA:665,0
DA:666,0
DA:698,0
DA:700,0
DA:701,0
DA:702,0
DA:703,0
DA:726,0
DA:728,0
DA:764,0
DA:766,0
DA:767,0
DA:772,0
DA:774,0
DA:775,0
DA:776,0
FNF:12
FNH:0
LF:31
LH:0
end_of_record
SF:/Library/Developer/CommandLineTools/SDKs/MacOSX12.3.sdk/usr/include/c++/v1/sstream
FN:227,_ZNSt3__115basic_stringbufIcNS_11char_traitsIcEENS_9allocatorIcEEEC1Ej
FNDA:0,_ZNSt3__115basic_stringbufIcNS_11char_traitsIcEENS_9allocatorIcEEEC1Ej
FN:227,_ZNSt3__115basic_stringbufIcNS_11char_traitsIcEENS_9allocatorIcEEEC2Ej
FNDA:0,_ZNSt3__115basic_stringbufIcNS_11char_traitsIcEENS_9allocatorIcEEEC2Ej
FN:802,_ZNSt3__118basic_stringstreamIcNS_11char_traitsIcEENS_9allocatorIcEEEC1Ev
FNDA:0,_ZNSt3__118basic_stringstreamIcNS_11char_traitsIcEENS_9allocatorIcEEEC1Ev
FN:842,_ZNKSt3__118basic_stringstreamIcNS_11char_traitsIcEENS_9allocatorIcEEE3strEv
FNDA:0,_ZNKSt3__118basic_stringstreamIcNS_11char_traitsIcEENS_9allocatorIcEEE3strEv
FN:861,_ZNSt3__115basic_stringbufIcNS_11char_traitsIcEENS_9allocatorIcEEED1Ev
FNDA:0,_ZNSt3__115basic_stringbufIcNS_11char_traitsIcEENS_9allocatorIcEEED1Ev
FN:861,_ZNSt3__115basic_stringbufIcNS_11char_traitsIcEENS_9allocatorIcEEED2Ev
FNDA:0,_ZNSt3__115basic_stringbufIcNS_11char_traitsIcEENS_9allocatorIcEEED2Ev
FN:862,_ZNSt3__118basic_stringstreamIcNS_11char_traitsIcEENS_9allocatorIcEEED1Ev
FNDA:0,_ZNSt3__118basic_stringstreamIcNS_11char_traitsIcEENS_9allocatorIcEEED1Ev
FN:862,_ZNSt3__118basic_stringstreamIcNS_11char_traitsIcEENS_9allocatorIcEEED2Ev
FNDA:0,_ZNSt3__118basic_stringstreamIcNS_11char_traitsIcEENS_9allocatorIcEEED2Ev
DA:227,0
DA:228,0
DA:802,0
DA:803,0
DA:842,0
DA:843,0
FNF:8
FNH:0
LF:6
LH:0
end_of_record
SF:/Library/Developer/CommandLineTools/SDKs/MacOSX12.3.sdk/usr/include/c++/v1/__memory/addressof.h
FN:30,_ZNSt3__1L9addressofIKcEEPT_RS2_
FNDA:0,_ZNSt3__1L9addressofIKcEEPT_RS2_
DA:30,0
DA:32,0
FNF:1
FNH:0
LF:2
LH:0
end_of_record
SF:/Library/Developer/CommandLineTools/SDKs/MacOSX12.3.sdk/usr/include/c++/v1/string
FN:840,_ZNSt3__112basic_stringIcNS_11char_traitsIcEENS_9allocatorIcEEEC1IDnEEPKc
FNDA:180,_ZNSt3__112basic_stringIcNS_11char_traitsIcEENS_9allocatorIcEEEC1IDnEEPKc
FN:840,_ZNSt3__112basic_stringIcNS_11char_traitsIcEENS_9allocatorIcEEEC2IDnEEPKc
FNDA:180,_ZNSt3__112basic_stringIcNS_11char_traitsIcEENS_9allocatorIcEEEC2IDnEEPKc
FN:1263,_ZNKSt3__112basic_stringIcNS_11char_traitsIcEENS_9allocatorIcEEE5c_strEv
FNDA:0,_ZNKSt3__112basic_stringIcNS_11char_traitsIcEENS_9allocatorIcEEE5c_strEv
FN:1265,_ZNKSt3__112basic_stringIcNS_11char_traitsIcEENS_9allocatorIcEEE4dataEv
FNDA:0,_ZNKSt3__112basic_stringIcNS_11char_traitsIcEENS_9allocatorIcEEE4dataEv
FN:1458,_ZNKSt3__112basic_stringIcNS_11char_traitsIcEENS_9allocatorIcEEE9__is_longEv
FNDA:0,_ZNKSt3__112basic_stringIcNS_11char_traitsIcEENS_9allocatorIcEEE9__is_longEv
FN:1540,_ZNKSt3__112basic_stringIcNS_11char_traitsIcEENS_9allocatorIcEEE18__get_long_pointerEv
FNDA:0,_ZNKSt3__112basic_stringIcNS_11char_traitsIcEENS_9allocatorIcEEE18__get_long_pointerEv
FN:1546,_ZNKSt3__112basic_stringIcNS_11char_traitsIcEENS_9allocatorIcEEE19__get_short_pointerEv
FNDA:0,_ZNKSt3__112basic_stringIcNS_11char_traitsIcEENS_9allocatorIcEEE19__get_short_pointerEv
FN:1552,_ZNKSt3__112basic_stringIcNS_11char_traitsIcEENS_9allocatorIcEEE13__get_pointerEv
FNDA:0,_ZNKSt3__112basic_stringIcNS_11char_traitsIcEENS_9allocatorIcEEE13__get_pointerEv
FN:1556,_ZNSt3__112basic_stringIcNS_11char_traitsIcEENS_9allocatorIcEEE6__zeroEv
FNDA:0,_ZNSt3__112basic_stringIcNS_11char_traitsIcEENS_9allocatorIcEEE6__zeroEv
FN:1829,_ZNSt3__112basic_stringIcNS_11char_traitsIcEENS_9allocatorIcEEEC1Ev
FNDA:0,_ZNSt3__112basic_stringIcNS_11char_traitsIcEENS_9allocatorIcEEEC1Ev
FN:1829,_ZNSt3__112basic_stringIcNS_11char_traitsIcEENS_9allocatorIcEEEC2Ev
FNDA:0,_ZNSt3__112basic_stringIcNS_11char_traitsIcEENS_9allocatorIcEEEC2Ev
FN:2056,_ZNSt3__112basic_stringIcNS_11char_traitsIcEENS_9allocatorIcEEEC1Emc
FNDA:0,_ZNSt3__112basic_stringIcNS_11char_traitsIcEENS_9allocatorIcEEEC1Emc
FN:2056,_ZNSt3__112basic_stringIcNS_11char_traitsIcEENS_9allocatorIcEEEC2Emc
FNDA:0,_ZNSt3__112basic_stringIcNS_11char_traitsIcEENS_9allocatorIcEEEC2Emc
DA:840,360
DA:842,180
DA:846,360
DA:1263,0
DA:1265,0
DA:1458,0
DA:1459,0
DA:1540,0
DA:1541,0
DA:1546,0
DA:1547,0
DA:1552,0
DA:1553,0
DA:1556,0
DA:1558,0
DA:1559,0
DA:1560,0
DA:1561,0
DA:1829,0
DA:1831,0
DA:1832,0
DA:1836,0
DA:1837,0
DA:2056,0
DA:2057,0
DA:2058,0
DA:2059,0
DA:2063,0
FNF:13
FNH:2
LF:28
LH:3
end_of_record
SF:/Library/Developer/CommandLineTools/SDKs/MacOSX12.3.sdk/usr/include/c++/v1/__memory/compressed_pair.h
FN:41,_ZNSt3__122__compressed_pair_elemINS_12basic_stringIcNS_11char_traitsIcEENS_9allocatorIcEEE5__repELi0ELb0EEC2ENS_18__default_init_tagE
FNDA:180,_ZNSt3__122__compressed_pair_elemINS_12basic_stringIcNS_11char_traitsIcEENS_9allocatorIcEEE5__repELi0ELb0EEC2ENS_18__default_init_tagE
FN:65,_ZNSt3__122__compressed_pair_elemIPNS_18basic_stringstreamIcNS_11char_traitsIcEENS_9allocatorIcEEEELi0ELb0EE5__getEv
FNDA:0,_ZNSt3__122__compressed_pair_elemIPNS_18basic_stringstreamIcNS_11char_traitsIcEENS_9allocatorIcEEEELi0ELb0EE5__getEv
FN:65,_ZNSt3__122__compressed_pair_elemIPNS_12basic_stringIcNS_11char_traitsIcEENS_9allocatorIcEEEELi0ELb0EE5__getEv
FNDA:0,_ZNSt3__122__compressed_pair_elemIPNS_12basic_stringIcNS_11char_traitsIcEENS_9allocatorIcEEEELi0ELb0EE5__getEv
FN:65,_ZNSt3__122__compressed_pair_elemINS_12basic_stringIcNS_11char_traitsIcEENS_9allocatorIcEEE5__repELi0ELb0EE5__getEv
FNDA:0,_ZNSt3__122__compressed_pair_elemINS_12basic_stringIcNS_11char_traitsIcEENS_9allocatorIcEEE5__repELi0ELb0EE5__getEv
FN:67,_ZNKSt3__122__compressed_pair_elemIPNS_12basic_stringIcNS_11char_traitsIcEENS_9allocatorIcEEEELi0ELb0EE5__getEv
FNDA:0,_ZNKSt3__122__compressed_pair_elemIPNS_12basic_stringIcNS_11char_traitsIcEENS_9allocatorIcEEEELi0ELb0EE5__getEv
FN:67,_ZNKSt3__122__compressed_pair_elemINS_12basic_stringIcNS_11char_traitsIcEENS_9allocatorIcEEE5__repELi0ELb0EE5__getEv
FNDA:0,_ZNKSt3__122__compressed_pair_elemINS_12basic_stringIcNS_11char_traitsIcEENS_9allocatorIcEEE5__repELi0ELb0EE5__getEv
FN:82,_ZNSt3__122__compressed_pair_elemINS_9allocatorIcEELi1ELb1EEC2ENS_18__default_init_tagE
FNDA:180,_ZNSt3__122__compressed_pair_elemINS_9allocatorIcEELi1ELb1EEC2ENS_18__default_init_tagE
FN:103,_ZNSt3__122__compressed_pair_elemINS_14default_deleteINS_18basic_stringstreamIcNS_11char_traitsIcEENS_9allocatorIcEEEEEELi1ELb1EE5__getEv
FNDA:0,_ZNSt3__122__compressed_pair_elemINS_14default_deleteINS_18basic_stringstreamIcNS_11char_traitsIcEENS_9allocatorIcEEEEEELi1ELb1EE5__getEv
FN:103,_ZNSt3__122__compressed_pair_elemINS_14default_deleteINS_12basic_stringIcNS_11char_traitsIcEENS_9allocatorIcEEEEEELi1ELb1EE5__getEv
FNDA:0,_ZNSt3__122__compressed_pair_elemINS_14default_deleteINS_12basic_stringIcNS_11char_traitsIcEENS_9allocatorIcEEEEEELi1ELb1EE5__getEv
FN:135,_ZNSt3__117__compressed_pairINS_12basic_stringIcNS_11char_traitsIcEENS_9allocatorIcEEE5__repES5_EC1INS_18__default_init_tagESA_EEOT_OT0_
FNDA:180,_ZNSt3__117__compressed_pairINS_12basic_stringIcNS_11char_traitsIcEENS_9allocatorIcEEE5__repES5_EC1INS_18__default_init_tagESA_EEOT_OT0_
FN:135,_ZNSt3__117__compressed_pairINS_12basic_stringIcNS_11char_traitsIcEENS_9allocatorIcEEE5__repES5_EC2INS_18__default_init_tagESA_EEOT_OT0_
FNDA:180,_ZNSt3__117__compressed_pairINS_12basic_stringIcNS_11char_traitsIcEENS_9allocatorIcEEE5__repES5_EC2INS_18__default_init_tagESA_EEOT_OT0_
FN:150,_ZNSt3__117__compressed_pairIPNS_18basic_stringstreamIcNS_11char_traitsIcEENS_9allocatorIcEEEENS_14default_deleteIS6_EEE5firstEv
FNDA:0,_ZNSt3__117__compressed_pairIPNS_18basic_stringstreamIcNS_11char_traitsIcEENS_9allocatorIcEEEENS_14default_deleteIS6_EEE5firstEv
FN:150,_ZNSt3__117__compressed_pairIPNS_12basic_stringIcNS_11char_traitsIcEENS_9allocatorIcEEEENS_14default_deleteIS6_EEE5firstEv
FNDA:0,_ZNSt3__117__compressed_pairIPNS_12basic_stringIcNS_11char_traitsIcEENS_9allocatorIcEEEENS_14default_deleteIS6_EEE5firstEv
FN:150,_ZNSt3__117__compressed_pairINS_12basic_stringIcNS_11char_traitsIcEENS_9allocatorIcEEE5__repES5_E5firstEv
FNDA:0,_ZNSt3__117__compressed_pairINS_12basic_stringIcNS_11char_traitsIcEENS_9allocatorIcEEE5__repES5_E5firstEv
FN:155,_ZNKSt3__117__compressed_pairIPNS_12basic_stringIcNS_11char_traitsIcEENS_9allocatorIcEEEENS_14default_deleteIS6_EEE5firstEv
FNDA:0,_ZNKSt3__117__compressed_pairIPNS_12basic_stringIcNS_11char_traitsIcEENS_9allocatorIcEEEENS_14default_deleteIS6_EEE5firstEv
FN:155,_ZNKSt3__117__compressed_pairINS_12basic_stringIcNS_11char_traitsIcEENS_9allocatorIcEEE5__repES5_E5firstEv
FNDA:0,_ZNKSt3__117__compressed_pairINS_12basic_stringIcNS_11char_traitsIcEENS_9allocatorIcEEE5__repES5_E5firstEv
FN:160,_ZNSt3__117__compressed_pairIPNS_18basic_stringstreamIcNS_11char_traitsIcEENS_9allocatorIcEEEENS_14default_deleteIS6_EEE6secondEv
FNDA:0,_ZNSt3__117__compressed_pairIPNS_18basic_stringstreamIcNS_11char_traitsIcEENS_9allocatorIcEEEENS_14default_deleteIS6_EEE6secondEv
FN:160,_ZNSt3__117__compressed_pairIPNS_12basic_stringIcNS_11char_traitsIcEENS_9allocatorIcEEEENS_14default_deleteIS6_EEE6secondEv
FNDA:0,_ZNSt3__117__compressed_pairIPNS_12basic_stringIcNS_11char_traitsIcEENS_9allocatorIcEEEENS_14default_deleteIS6_EEE6secondEv
DA:41,180
DA:65,0
DA:67,0
DA:82,180
DA:103,0
DA:135,360
DA:136,360
DA:150,0
DA:151,0
DA:155,0
DA:156,0
DA:160,0
DA:161,0
FNF:18
FNH:4
LF:13
LH:4
end_of_record
SF:/Library/Developer/CommandLineTools/SDKs/MacOSX12.3.sdk/usr/include/c++/v1/locale
FN:1395,_ZNSt3__116__pad_and_outputIcNS_11char_traitsIcEEEENS_19ostreambuf_iteratorIT_T0_EES6_PKS4_S8_S8_RNS_8ios_baseES4_
FNDA:0,_ZNSt3__116__pad_and_outputIcNS_11char_traitsIcEEEENS_19ostreambuf_iteratorIT_T0_EES6_PKS4_S8_S8_RNS_8ios_baseES4_
DA:1395,0
DA:1399,0
DA:1400,0
DA:1401,0
DA:1402,0
DA:1403,0
DA:1404,0
DA:1406,0
DA:1407,0
DA:1408,0
DA:1410,0
DA:1412,0
DA:1413,0
DA:1415,0
DA:1416,0
DA:1418,0
DA:1419,0
DA:1421,0
DA:1422,0
DA:1424,0
DA:1425,0
DA:1426,0
DA:1428,0
DA:1430,0
DA:1431,0
DA:1433,0
DA:1434,0
DA:1435,0
DA:1436,0
FNF:1
FNH:0
LF:29
LH:0
end_of_record
SF:/Library/Developer/CommandLineTools/SDKs/MacOSX12.3.sdk/usr/include/c++/v1/__memory/allocator.h
FN:74,_ZNSt3__116__non_trivial_ifILb1ENS_9allocatorIcEEEC2Ev
FNDA:180,_ZNSt3__116__non_trivial_ifILb1ENS_9allocatorIcEEEC2Ev
FN:94,_ZNSt3__19allocatorIcEC2Ev
FNDA:180,_ZNSt3__19allocatorIcEC2Ev
DA:74,180
DA:94,180
FNF:2
FNH:2
LF:2
LH:2
end_of_record
SF:/Users/dogukanarat/Workspace/DevelopmentTestSystem/Binaries/Debug/Intermediate/_deps/googletest-src/googletest/include/gtest/internal/gtest-port.h
FN:967,_ZN7testing8internal8GTestLog9GetStreamEv
FNDA:0,_ZN7testing8internal8GTestLog9GetStreamEv
DA:967,0
FNF:1
FNH:0
LF:1
LH:0
end_of_record
SF:/Users/dogukanarat/Workspace/DevelopmentTestSystem/Tests/UnitTest/TestDtsParameterController.h
FN:17,_ZN26TestDtsParameterControllerC2Ev
FNDA:6,_ZN26TestDtsParameterControllerC2Ev
FN:20,_ZN26TestDtsParameterControllerD1Ev
FNDA:0,_ZN26TestDtsParameterControllerD1Ev
FN:20,_ZN26TestDtsParameterControllerD0Ev
FNDA:0,_ZN26TestDtsParameterControllerD0Ev
FN:20,_ZN26TestDtsParameterControllerD2Ev
FNDA:6,_ZN26TestDtsParameterControllerD2Ev
FN:24,_ZN26TestDtsParameterController5SetUpEv
FNDA:6,_ZN26TestDtsParameterController5SetUpEv
FN:32,_ZN26TestDtsParameterController8TearDownEv
FNDA:6,_ZN26TestDtsParameterController8TearDownEv
DA:17,18
DA:18,12
DA:19,6
DA:20,6
DA:21,0
DA:22,6
DA:24,6
DA:26,6
DA:27,6
DA:30,6
DA:32,6
DA:34,6
FNF:6
FNH:4
LF:12
LH:11
end_of_record
SF:/Library/Developer/CommandLineTools/SDKs/MacOSX12.3.sdk/usr/include/c++/v1/istream
FN:191,_ZNSt3__113basic_istreamIcNS_11char_traitsIcEEEC2EPNS_15basic_streambufIcS2_EE
FNDA:0,_ZNSt3__113basic_istreamIcNS_11char_traitsIcEEEC2EPNS_15basic_streambufIcS2_EE
FN:1405,_ZNSt3__114basic_iostreamIcNS_11char_traitsIcEEEC2EPNS_15basic_streambufIcS2_EE
FNDA:0,_ZNSt3__114basic_iostreamIcNS_11char_traitsIcEEEC2EPNS_15basic_streambufIcS2_EE
DA:191,0
DA:192,0
DA:1405,0
DA:1406,0
DA:1407,0
FNF:2
FNH:0
LF:5
LH:0
end_of_record
SF:/Library/Developer/CommandLineTools/SDKs/MacOSX12.3.sdk/usr/include/c++/v1/ostream
FN:234,_ZNSt3__113basic_ostreamIcNS_11char_traitsIcEEEC2Ev
FNDA:0,_ZNSt3__113basic_ostreamIcNS_11char_traitsIcEEEC2Ev
FN:251,_ZNKSt3__113basic_ostreamIcNS_11char_traitsIcEEE6sentrycvbEv
FNDA:0,_ZNKSt3__113basic_ostreamIcNS_11char_traitsIcEEE6sentrycvbEv
FN:707,_ZNSt3__124__put_character_sequenceIcNS_11char_traitsIcEEEERNS_13basic_ostreamIT_T0_EES7_PKS4_m
FNDA:0,_ZNSt3__124__put_character_sequenceIcNS_11char_traitsIcEEEERNS_13basic_ostreamIT_T0_EES7_PKS4_m
FN:855,_ZNSt3__1lsINS_11char_traitsIcEEEERNS_13basic_ostreamIcT_EES6_PKc
FNDA:0,_ZNSt3__1lsINS_11char_traitsIcEEEERNS_13basic_ostreamIcT_EES6_PKc
DA:234,0
DA:251,0
DA:707,0
DA:714,0
DA:715,0
DA:718,0
DA:719,0
DA:720,0
DA:721,0
DA:722,0
DA:723,0
DA:724,0
DA:725,0
DA:726,0
DA:727,0
DA:729,0
DA:732,0
DA:733,0
DA:735,0
DA:736,0
DA:855,0
DA:857,0
FNF:4
FNH:0
LF:22
LH:0
end_of_record
SF:/Library/Developer/CommandLineTools/SDKs/MacOSX12.3.sdk/usr/include/c++/v1/__utility/forward.h
FN:27,_ZNSt3__1L7forwardINS_18__default_init_tagEEEOT_RNS_16remove_referenceIS2_E4typeE
FNDA:360,_ZNSt3__1L7forwardINS_18__default_init_tagEEEOT_RNS_16remove_referenceIS2_E4typeE
DA:27,360
DA:28,360
FNF:1
FNH:1
LF:2
LH:2
end_of_record
SF:/Library/Developer/CommandLineTools/SDKs/MacOSX12.3.sdk/usr/include/c++/v1/__memory/pointer_traits.h
FN:152,_ZNSt3__114pointer_traitsIPKcE10pointer_toERS1_
FNDA:0,_ZNSt3__114pointer_traitsIPKcE10pointer_toERS1_
FN:173,_ZNSt3__1L12__to_addressIKcEEPT_S3_
FNDA:0,_ZNSt3__1L12__to_addressIKcEEPT_S3_
DA:152,0
DA:154,0
DA:173,0
DA:175,0
FNF:2
FNH:0
LF:4
LH:0
end_of_record
SF:/Library/Developer/CommandLineTools/SDKs/MacOSX12.3.sdk/usr/include/c++/v1/__string
FN:342,_ZNSt3__111char_traitsIcE6lengthEPKc
FNDA:0,_ZNSt3__111char_traitsIcE6lengthEPKc
FN:374,_ZNSt3__111char_traitsIcE11eq_int_typeEii
FNDA:0,_ZNSt3__111char_traitsIcE11eq_int_typeEii
FN:376,_ZNSt3__111char_traitsIcE3eofEv
FNDA:0,_ZNSt3__111char_traitsIcE3eofEv
DA:342,0
DA:374,0
DA:375,0
DA:376,0
DA:377,0
FNF:3
FNH:0
LF:5
LH:0
end_of_record
SF:/Users/dogukanarat/Workspace/DevelopmentTestSystem/Binaries/Debug/Intermediate/_deps/googletest-src/googletest/include/gtest/gtest.h
FN:244,_ZN7testing4Test14SetUpTestSuiteEv
FNDA:0,_ZN7testing4Test14SetUpTestSuiteEv
FN:252,_ZN7testing4Test17TearDownTestSuiteEv
FNDA:0,_ZN7testing4Test17TearDownTestSuiteEv
FN:257,_ZN7testing4Test16TearDownTestCaseEv
FNDA:0,_ZN7testing4Test16TearDownTestCaseEv
FN:258,_ZN7testing4Test13SetUpTestCaseEv
FNDA:0,_ZN7testing4Test13SetUpTestCaseEv
FN:339,_ZN7testing4Test5SetupEv
FNDA:0,_ZN7testing4Test5SetupEv
FN:1338,_ZN7testing8internal18CmpHelperEQFailureIihEENS_15AssertionResultEPKcS4_RKT_RKT0_
FNDA:0,_ZN7testing8internal18CmpHelperEQFailureIihEENS_15AssertionResultEPKcS4_RKT_RKT0_
FN:1338,_ZN7testing8internal18CmpHelperEQFailureI17ProjectParameterstEENS_15AssertionResultEPKcS5_RKT_RKT0_
FNDA:0,_ZN7testing8internal18CmpHelperEQFailureI17ProjectParameterstEENS_15AssertionResultEPKcS5_RKT_RKT0_
FN:1338,_ZN7testing8internal18CmpHelperEQFailureIA3_12DtsParameterPS2_EENS_15AssertionResultEPKcS7_RKT_RKT0_
FNDA:0,_ZN7testing8internal18CmpHelperEQFailureIA3_12DtsParameterPS2_EENS_15AssertionResultEPKcS7_RKT_RKT0_
FN:1338,_ZN7testing8internal18CmpHelperEQFailureIP12DtsParameterS3_EENS_15AssertionResultEPKcS6_RKT_RKT0_
FNDA:0,_ZN7testing8internal18CmpHelperEQFailureIP12DtsParameterS3_EENS_15AssertionResultEPKcS6_RKT_RKT0_
FN:1355,_ZN7testing8internal11CmpHelperEQIihEENS_15AssertionResultEPKcS4_RKT_RKT0_
FNDA:0,_ZN7testing8internal11CmpHelperEQIihEENS_15AssertionResultEPKcS4_RKT_RKT0_
FN:1355,_ZN7testing8internal11CmpHelperEQI17ProjectParameterstEENS_15AssertionResultEPKcS5_RKT_RKT0_
FNDA:3,_ZN7testing8internal11CmpHelperEQI17ProjectParameterstEENS_15AssertionResultEPKcS5_RKT_RKT0_
FN:1355,_ZN7testing8internal11CmpHelperEQIA3_12DtsParameterPS2_EENS_15AssertionResultEPKcS7_RKT_RKT0_
FNDA:3,_ZN7testing8internal11CmpHelperEQIA3_12DtsParameterPS2_EENS_15AssertionResultEPKcS7_RKT_RKT0_
FN:1355,_ZN7testing8internal11CmpHelperEQIP12DtsParameterS3_EENS_15AssertionResultEPKcS6_RKT_RKT0_
FNDA:9,_ZN7testing8internal11CmpHelperEQIP12DtsParameterS3_EENS_15AssertionResultEPKcS6_RKT_RKT0_
FN:1374,_ZN7testing8internal8EqHelper7CompareIihLPv0EEENS_15AssertionResultEPKcS6_RKT_RKT0_
FNDA:0,_ZN7testing8internal8EqHelper7CompareIihLPv0EEENS_15AssertionResultEPKcS6_RKT_RKT0_
FN:1374,_ZN7testing8internal8EqHelper7CompareI17ProjectParameterstLPv0EEENS_15AssertionResultEPKcS7_RKT_RKT0_
FNDA:3,_ZN7testing8internal8EqHelper7CompareI17ProjectParameterstLPv0EEENS_15AssertionResultEPKcS7_RKT_RKT0_
FN:1374,_ZN7testing8internal8EqHelper7CompareIA3_12DtsParameterPS3_LPv0EEENS_15AssertionResultEPKcS9_RKT_RKT0_
FNDA:3,_ZN7testing8internal8EqHelper7CompareIA3_12DtsParameterPS3_LPv0EEENS_15AssertionResultEPKcS9_RKT_RKT0_
FN:1374,_ZN7testing8internal8EqHelper7CompareIP12DtsParameterS4_LPv0EEENS_15AssertionResultEPKcS8_RKT_RKT0_
FNDA:9,_ZN7testing8internal8EqHelper7CompareIP12DtsParameterS4_LPv0EEENS_15AssertionResultEPKcS8_RKT_RKT0_
DA:244,0
DA:252,0
DA:257,0
DA:258,0
DA:339,0
DA:1338,0
DA:1341,0
DA:1342,0
DA:1343,0
DA:1344,0
DA:1355,15
DA:1358,15
DA:1359,15
DA:1362,0
DA:1363,15
DA:1374,15
DA:1377,15
FNF:17
FNH:6
LF:17
LH:6
end_of_record
SF:/Users/dogukanarat/Workspace/DevelopmentTestSystem/Binaries/Debug/Intermediate/_deps/googletest-src/googletest/include/gtest/internal/gtest-internal.h
FN:431,_ZN7testing8internal9GetTypeIdI26TestDtsParameterControllerEEPKvv
FNDA:180,_ZN7testing8internal9GetTypeIdI26TestDtsParameterControllerEEPKvv
FN:450,_ZN7testing8internal15TestFactoryBaseD1Ev
FNDA:0,_ZN7testing8internal15TestFactoryBaseD1Ev
FN:450,_ZN7testing8internal15TestFactoryBaseD0Ev
FNDA:0,_ZN7testing8internal15TestFactoryBaseD0Ev
FN:450,_ZN7testing8internal15TestFactoryBaseD2Ev
FNDA:0,_ZN7testing8internal15TestFactoryBaseD2Ev
FN:457,_ZN7testing8internal15TestFactoryBaseC2Ev
FNDA:0,_ZN7testing8internal15TestFactoryBaseC2Ev
FN:467,_ZN7testing8internal15TestFactoryImplI64TestDtsParameterController_dtsParameterControllerInitialize_TestEC1Ev
FNDA:90,_ZN7testing8internal15TestFactoryImplI64TestDtsParameterController_dtsParameterControllerInitialize_TestEC1Ev
FN:467,_ZN7testing8internal15TestFactoryImplI58TestDtsParameterController_dtsParameterControllerFind_TestEC1Ev
FNDA:90,_ZN7testing8internal15TestFactoryImplI58TestDtsParameterController_dtsParameterControllerFind_TestEC1Ev
FN:467,_ZN7testing8internal15TestFactoryImplI64TestDtsParameterController_dtsParameterControllerInitialize_TestEC2Ev
FNDA:90,_ZN7testing8internal15TestFactoryImplI64TestDtsParameterController_dtsParameterControllerInitialize_TestEC2Ev
FN:467,_ZN7testing8internal15TestFactoryImplI64TestDtsParameterController_dtsParameterControllerInitialize_TestED1Ev
FNDA:0,_ZN7testing8internal15TestFactoryImplI64TestDtsParameterController_dtsParameterControllerInitialize_TestED1Ev
FN:467,_ZN7testing8internal15TestFactoryImplI64TestDtsParameterController_dtsParameterControllerInitialize_TestED0Ev
FNDA:0,_ZN7testing8internal15TestFactoryImplI64TestDtsParameterController_dtsParameterControllerInitialize_TestED0Ev
FN:467,_ZN7testing8internal15TestFactoryImplI64TestDtsParameterController_dtsParameterControllerInitialize_TestED2Ev
FNDA:0,_ZN7testing8internal15TestFactoryImplI64TestDtsParameterController_dtsParameterControllerInitialize_TestED2Ev
FN:467,_ZN7testing8internal15TestFactoryImplI58TestDtsParameterController_dtsParameterControllerFind_TestEC2Ev
FNDA:90,_ZN7testing8internal15TestFactoryImplI58TestDtsParameterController_dtsParameterControllerFind_TestEC2Ev
FN:467,_ZN7testing8internal15TestFactoryImplI58TestDtsParameterController_dtsParameterControllerFind_TestED1Ev
FNDA:0,_ZN7testing8internal15TestFactoryImplI58TestDtsParameterController_dtsParameterControllerFind_TestED1Ev
FN:467,_ZN7testing8internal15TestFactoryImplI58TestDtsParameterController_dtsParameterControllerFind_TestED0Ev
FNDA:0,_ZN7testing8internal15TestFactoryImplI58TestDtsParameterController_dtsParameterControllerFind_TestED0Ev
FN:467,_ZN7testing8internal15TestFactoryImplI58TestDtsParameterController_dtsParameterControllerFind_TestED2Ev
FNDA:0,_ZN7testing8internal15TestFactoryImplI58TestDtsParameterController_dtsParameterControllerFind_TestED2Ev
FN:469,_ZN7testing8internal15TestFactoryImplI64TestDtsParameterController_dtsParameterControllerInitialize_TestE10CreateTestEv
FNDA:3,_ZN7testing8internal15TestFactoryImplI64TestDtsParameterController_dtsParameterControllerInitialize_TestE10CreateTestEv
FN:469,_ZN7testing8internal15TestFactoryImplI58TestDtsParameterController_dtsParameterControllerFind_TestE10CreateTestEv
FNDA:3,_ZN7testing8internal15TestFactoryImplI58TestDtsParameterController_dtsParameterControllerFind_TestE10CreateTestEv
FN:489,_ZN7testing8internal12CodeLocationD1Ev
FNDA:0,_ZN7testing8internal12CodeLocationD1Ev
FN:489,_ZN7testing8internal12CodeLocationD2Ev
FNDA:0,_ZN7testing8internal12CodeLocationD2Ev
FN:490,_ZN7testing8internal12CodeLocationC1ERKNSt3__112basic_stringIcNS2_11char_traitsIcEENS2_9allocatorIcEEEEi
FNDA:0,_ZN7testing8internal12CodeLocationC1ERKNSt3__112basic_stringIcNS2_11char_traitsIcEENS2_9allocatorIcEEEEi
FN:490,_ZN7testing8internal12CodeLocationC2ERKNSt3__112basic_stringIcNS2_11char_traitsIcEENS2_9allocatorIcEEEEi
FNDA:0,_ZN7testing8internal12CodeLocationC2ERKNSt3__112basic_stringIcNS2_11char_traitsIcEENS2_9allocatorIcEEEEi
FN:503,_ZN7testing8internal19GetNotDefaultOrNullEPFvvES2_
FNDA:0,_ZN7testing8internal19GetNotDefaultOrNullEPFvvES2_
FN:518,_ZN7testing8internal16SuiteApiResolverI26TestDtsParameterControllerE19GetSetUpCaseOrSuiteEPKci
FNDA:180,_ZN7testing8internal16SuiteApiResolverI26TestDtsParameterControllerE19GetSetUpCaseOrSuiteEPKci
FN:539,_ZN7testing8internal16SuiteApiResolverI26TestDtsParameterControllerE22GetTearDownCaseOrSuiteEPKci
FNDA:180,_ZN7testing8internal16SuiteApiResolverI26TestDtsParameterControllerE22GetTearDownCaseOrSuiteEPKci
DA:431,180
DA:436,180
DA:450,0
DA:457,0
DA:469,6
DA:490,0
DA:491,0
DA:503,0
DA:505,0
DA:518,180
DA:521,180
DA:522,180
DA:523,180
DA:524,180
DA:526,180
DA:527,0
DA:529,0
DA:531,180
DA:537,0
DA:539,180
DA:542,180
DA:543,180
DA:544,180
DA:545,180
DA:547,180
DA:548,0
DA:550,0
DA:552,180
DA:558,0
FNF:24
FNH:9
LF:29
LH:17
end_of_record
SF:/Library/Developer/CommandLineTools/SDKs/MacOSX12.3.sdk/usr/include/c++/v1/streambuf
FN:228,_ZNSt3__115basic_streambufIcNS_11char_traitsIcEEE5sputnEPKcl
FNDA:0,_ZNSt3__115basic_streambufIcNS_11char_traitsIcEEE5sputnEPKcl
DA:228,0
DA:229,0
FNF:1
FNH:0
LF:2
LH:0
end_of_record
SF:/Library/Developer/CommandLineTools/SDKs/MacOSX12.3.sdk/usr/include/c++/v1/__memory/unique_ptr.h
FN:52,_ZNKSt3__114default_deleteINS_18basic_stringstreamIcNS_11char_traitsIcEENS_9allocatorIcEEEEEclEPS6_
FNDA:0,_ZNKSt3__114default_deleteINS_18basic_stringstreamIcNS_11char_traitsIcEENS_9allocatorIcEEEEEclEPS6_
FN:52,_ZNKSt3__114default_deleteINS_12basic_stringIcNS_11char_traitsIcEENS_9allocatorIcEEEEEclEPS6_
FNDA:0,_ZNKSt3__114default_deleteINS_12basic_stringIcNS_11char_traitsIcEENS_9allocatorIcEEEEEclEPS6_
FN:272,_ZNSt3__110unique_ptrINS_18basic_stringstreamIcNS_11char_traitsIcEENS_9allocatorIcEEEENS_14default_deleteIS6_EEED1Ev
FNDA:0,_ZNSt3__110unique_ptrINS_18basic_stringstreamIcNS_11char_traitsIcEENS_9allocatorIcEEEENS_14default_deleteIS6_EEED1Ev
FN:272,_ZNSt3__110unique_ptrINS_18basic_stringstreamIcNS_11char_traitsIcEENS_9allocatorIcEEEENS_14default_deleteIS6_EEED2Ev
FNDA:0,_ZNSt3__110unique_ptrINS_18basic_stringstreamIcNS_11char_traitsIcEENS_9allocatorIcEEEENS_14default_deleteIS6_EEED2Ev
FN:272,_ZNSt3__110unique_ptrINS_12basic_stringIcNS_11char_traitsIcEENS_9allocatorIcEEEENS_14default_deleteIS6_EEED1Ev
FNDA:0,_ZNSt3__110unique_ptrINS_12basic_stringIcNS_11char_traitsIcEENS_9allocatorIcEEEENS_14default_deleteIS6_EEED1Ev
FN:272,_ZNSt3__110unique_ptrINS_12basic_stringIcNS_11char_traitsIcEENS_9allocatorIcEEEENS_14default_deleteIS6_EEED2Ev
FNDA:0,_ZNSt3__110unique_ptrINS_12basic_stringIcNS_11char_traitsIcEENS_9allocatorIcEEEENS_14default_deleteIS6_EEED2Ev
FN:286,_ZNKSt3__110unique_ptrINS_12basic_stringIcNS_11char_traitsIcEENS_9allocatorIcEEEENS_14default_deleteIS6_EEEptEv
FNDA:0,_ZNKSt3__110unique_ptrINS_12basic_stringIcNS_11char_traitsIcEENS_9allocatorIcEEEENS_14default_deleteIS6_EEEptEv
FN:290,_ZNKSt3__110unique_ptrINS_12basic_stringIcNS_11char_traitsIcEENS_9allocatorIcEEEENS_14default_deleteIS6_EEE3getEv
FNDA:0,_ZNKSt3__110unique_ptrINS_12basic_stringIcNS_11char_traitsIcEENS_9allocatorIcEEEENS_14default_deleteIS6_EEE3getEv
FN:314,_ZNSt3__110unique_ptrINS_18basic_stringstreamIcNS_11char_traitsIcEENS_9allocatorIcEEEENS_14default_deleteIS6_EEE5resetEPS6_
FNDA:0,_ZNSt3__110unique_ptrINS_18basic_stringstreamIcNS_11char_traitsIcEENS_9allocatorIcEEEENS_14default_deleteIS6_EEE5resetEPS6_
FN:314,_ZNSt3__110unique_ptrINS_12basic_stringIcNS_11char_traitsIcEENS_9allocatorIcEEEENS_14default_deleteIS6_EEE5resetEPS6_
FNDA:0,_ZNSt3__110unique_ptrINS_12basic_stringIcNS_11char_traitsIcEENS_9allocatorIcEEEENS_14default_deleteIS6_EEE5resetEPS6_
DA:52,0
DA:57,0
DA:58,0
DA:272,0
DA:286,0
DA:287,0
DA:290,0
DA:291,0
DA:314,0
DA:315,0
DA:316,0
DA:317,0
DA:318,0
DA:319,0
FNF:10
FNH:0
LF:14
LH:0
end_of_record
SF:/Library/Developer/CommandLineTools/SDKs/MacOSX12.3.sdk/usr/include/c++/v1/__locale
FN:252,_ZNSt3__1L9use_facetINS_5ctypeIcEEEERKT_RKNS_6localeE
FNDA:0,_ZNSt3__1L9use_facetINS_5ctypeIcEEEERKT_RKNS_6localeE
FN:697,_ZNKSt3__15ctypeIcE5widenEc
FNDA:0,_ZNKSt3__15ctypeIcE5widenEc
DA:252,0
DA:254,0
DA:697,0
DA:699,0
FNF:2
FNH:0
LF:4
LH:0
end_of_record
SF:/Users/dogukanarat/Workspace/DevelopmentTestSystem/Binaries/Debug/Intermediate/_deps/googletest-src/googletest/include/gtest/gtest-printers.h
FN:182,_ZN7testing8internal14PointerPrinter10PrintValueIK12DtsParameterEEvPT_PNSt3__113basic_ostreamIcNS7_11char_traitsIcEEEE
FNDA:0,_ZN7testing8internal14PointerPrinter10PrintValueIK12DtsParameterEEvPT_PNSt3__113basic_ostreamIcNS7_11char_traitsIcEEEE
FN:182,_ZN7testing8internal14PointerPrinter10PrintValueI12DtsParameterEEvPT_PNSt3__113basic_ostreamIcNS6_11char_traitsIcEEEE
FNDA:0,_ZN7testing8internal14PointerPrinter10PrintValueI12DtsParameterEEvPT_PNSt3__113basic_ostreamIcNS6_11char_traitsIcEEEE
FN:213,_ZN7testing8internal52internal_stream_operator_without_lexical_name_lookup13StreamPrinter10PrintValueIivRNSt3__113basic_ostreamIcNS4_11char_traitsIcEEEEEEvRKT_PS8_
FNDA:0,_ZN7testing8internal52internal_stream_operator_without_lexical_name_lookup13StreamPrinter10PrintValueIivRNSt3__113basic_ostreamIcNS4_11char_traitsIcEEEEEEvRKT_PS8_
FN:213,_ZN7testing8internal52internal_stream_operator_without_lexical_name_lookup13StreamPrinter10PrintValueI17ProjectParametersvRNSt3__113basic_ostreamIcNS5_11char_traitsIcEEEEEEvRKT_PS9_
FNDA:0,_ZN7testing8internal52internal_stream_operator_without_lexical_name_lookup13StreamPrinter10PrintValueI17ProjectParametersvRNSt3__113basic_ostreamIcNS5_11char_traitsIcEEEEEEvRKT_PS9_
FN:213,_ZN7testing8internal52internal_stream_operator_without_lexical_name_lookup13StreamPrinter10PrintValueItvRNSt3__113basic_ostreamIcNS4_11char_traitsIcEEEEEEvRKT_PS8_
FNDA:0,_ZN7testing8internal52internal_stream_operator_without_lexical_name_lookup13StreamPrinter10PrintValueItvRNSt3__113basic_ostreamIcNS4_11char_traitsIcEEEEEEvRKT_PS8_
FN:305,_ZN7testing8internal17PrintWithFallbackIiEEvRKT_PNSt3__113basic_ostreamIcNS5_11char_traitsIcEEEE
FNDA:0,_ZN7testing8internal17PrintWithFallbackIiEEvRKT_PNSt3__113basic_ostreamIcNS5_11char_traitsIcEEEE
FN:305,_ZN7testing8internal17PrintWithFallbackI17ProjectParametersEEvRKT_PNSt3__113basic_ostreamIcNS6_11char_traitsIcEEEE
FNDA:0,_ZN7testing8internal17PrintWithFallbackI17ProjectParametersEEvRKT_PNSt3__113basic_ostreamIcNS6_11char_traitsIcEEEE
FN:305,_ZN7testing8internal17PrintWithFallbackItEEvRKT_PNSt3__113basic_ostreamIcNS5_11char_traitsIcEEEE
FNDA:0,_ZN7testing8internal17PrintWithFallbackItEEvRKT_PNSt3__113basic_ostreamIcNS5_11char_traitsIcEEEE
FN:305,_ZN7testing8internal17PrintWithFallbackIPK12DtsParameterEEvRKT_PNSt3__113basic_ostreamIcNS8_11char_traitsIcEEEE
FNDA:0,_ZN7testing8internal17PrintWithFallbackIPK12DtsParameterEEvRKT_PNSt3__113basic_ostreamIcNS8_11char_traitsIcEEEE
FN:305,_ZN7testing8internal17PrintWithFallbackIP12DtsParameterEEvRKT_PNSt3__113basic_ostreamIcNS7_11char_traitsIcEEEE
FNDA:0,_ZN7testing8internal17PrintWithFallbackIP12DtsParameterEEvRKT_PNSt3__113basic_ostreamIcNS7_11char_traitsIcEEEE
FN:332,_ZN7testing8internal19FormatForComparisonIihE6FormatERKi
FNDA:0,_ZN7testing8internal19FormatForComparisonIihE6FormatERKi
FN:332,_ZN7testing8internal19FormatForComparisonIhiE6FormatERKh
FNDA:0,_ZN7testing8internal19FormatForComparisonIhiE6FormatERKh
FN:332,_ZN7testing8internal19FormatForComparisonI17ProjectParameterstE6FormatERKS2_
FNDA:0,_ZN7testing8internal19FormatForComparisonI17ProjectParameterstE6FormatERKS2_
FN:332,_ZN7testing8internal19FormatForComparisonIt17ProjectParametersE6FormatERKt
FNDA:0,_ZN7testing8internal19FormatForComparisonIt17ProjectParametersE6FormatERKt
FN:332,_ZN7testing8internal19FormatForComparisonIPK12DtsParameterPS2_E6FormatERKS4_
FNDA:0,_ZN7testing8internal19FormatForComparisonIPK12DtsParameterPS2_E6FormatERKS4_
FN:332,_ZN7testing8internal19FormatForComparisonIP12DtsParameterA3_S2_E6FormatERKS3_
FNDA:0,_ZN7testing8internal19FormatForComparisonIP12DtsParameterA3_S2_E6FormatERKS3_
FN:332,_ZN7testing8internal19FormatForComparisonIP12DtsParameterS3_E6FormatERKS3_
FNDA:0,_ZN7testing8internal19FormatForComparisonIP12DtsParameterS3_E6FormatERKS3_
FN:341,_ZN7testing8internal19FormatForComparisonIA3_12DtsParameterPS2_E6FormatEPKS2_
FNDA:0,_ZN7testing8internal19FormatForComparisonIA3_12DtsParameterPS2_E6FormatEPKS2_
FN:412,_ZN7testing8internal33FormatForComparisonFailureMessageIihEENSt3__112basic_stringIcNS2_11char_traitsIcEENS2_9allocatorIcEEEERKT_RKT0_
FNDA:0,_ZN7testing8internal33FormatForComparisonFailureMessageIihEENSt3__112basic_stringIcNS2_11char_traitsIcEENS2_9allocatorIcEEEERKT_RKT0_
FN:412,_ZN7testing8internal33FormatForComparisonFailureMessageIhiEENSt3__112basic_stringIcNS2_11char_traitsIcEENS2_9allocatorIcEEEERKT_RKT0_
FNDA:0,_ZN7testing8internal33FormatForComparisonFailureMessageIhiEENSt3__112basic_stringIcNS2_11char_traitsIcEENS2_9allocatorIcEEEERKT_RKT0_
FN:412,_ZN7testing8internal33FormatForComparisonFailureMessageI17ProjectParameterstEENSt3__112basic_stringIcNS3_11char_traitsIcEENS3_9allocatorIcEEEERKT_RKT0_
FNDA:0,_ZN7testing8internal33FormatForComparisonFailureMessageI17ProjectParameterstEENSt3__112basic_stringIcNS3_11char_traitsIcEENS3_9allocatorIcEEEERKT_RKT0_
FN:412,_ZN7testing8internal33FormatForComparisonFailureMessageIt17ProjectParametersEENSt3__112basic_stringIcNS3_11char_traitsIcEENS3_9allocatorIcEEEERKT_RKT0_
FNDA:0,_ZN7testing8internal33FormatForComparisonFailureMessageIt17ProjectParametersEENSt3__112basic_stringIcNS3_11char_traitsIcEENS3_9allocatorIcEEEERKT_RKT0_
FN:412,_ZN7testing8internal33FormatForComparisonFailureMessageIA3_12DtsParameterPS2_EENSt3__112basic_stringIcNS5_11char_traitsIcEENS5_9allocatorIcEEEERKT_RKT0_
FNDA:0,_ZN7testing8internal33FormatForComparisonFailureMessageIA3_12DtsParameterPS2_EENSt3__112basic_stringIcNS5_11char_traitsIcEENS5_9allocatorIcEEEERKT_RKT0_
FN:412,_ZN7testing8internal33FormatForComparisonFailureMessageIP12DtsParameterA3_S2_EENSt3__112basic_stringIcNS5_11char_traitsIcEENS5_9allocatorIcEEEERKT_RKT0_
FNDA:0,_ZN7testing8internal33FormatForComparisonFailureMessageIP12DtsParameterA3_S2_EENSt3__112basic_stringIcNS5_11char_traitsIcEENS5_9allocatorIcEEEERKT_RKT0_
FN:412,_ZN7testing8internal33FormatForComparisonFailureMessageIP12DtsParameterS3_EENSt3__112basic_stringIcNS4_11char_traitsIcEENS4_9allocatorIcEEEERKT_RKT0_
FNDA:0,_ZN7testing8internal33FormatForComparisonFailureMessageIP12DtsParameterS3_EENSt3__112basic_stringIcNS4_11char_traitsIcEENS4_9allocatorIcEEEERKT_RKT0_
FN:439,_ZN7testing8internal7PrintToIiEEvRKT_PNSt3__113basic_ostreamIcNS5_11char_traitsIcEEEE
FNDA:0,_ZN7testing8internal7PrintToIiEEvRKT_PNSt3__113basic_ostreamIcNS5_11char_traitsIcEEEE
FN:439,_ZN7testing8internal7PrintToI17ProjectParametersEEvRKT_PNSt3__113basic_ostreamIcNS6_11char_traitsIcEEEE
FNDA:0,_ZN7testing8internal7PrintToI17ProjectParametersEEvRKT_PNSt3__113basic_ostreamIcNS6_11char_traitsIcEEEE
FN:439,_ZN7testing8internal7PrintToItEEvRKT_PNSt3__113basic_ostreamIcNS5_11char_traitsIcEEEE
FNDA:0,_ZN7testing8internal7PrintToItEEvRKT_PNSt3__113basic_ostreamIcNS5_11char_traitsIcEEEE
FN:439,_ZN7testing8internal7PrintToIPK12DtsParameterEEvRKT_PNSt3__113basic_ostreamIcNS8_11char_traitsIcEEEE
FNDA:0,_ZN7testing8internal7PrintToIPK12DtsParameterEEvRKT_PNSt3__113basic_ostreamIcNS8_11char_traitsIcEEEE
FN:439,_ZN7testing8internal7PrintToIP12DtsParameterEEvRKT_PNSt3__113basic_ostreamIcNS7_11char_traitsIcEEEE
FNDA:0,_ZN7testing8internal7PrintToIP12DtsParameterEEvRKT_PNSt3__113basic_ostreamIcNS7_11char_traitsIcEEEE
FN:693,_ZN7testing8internal16UniversalPrinterIiE5PrintERKiPNSt3__113basic_ostreamIcNS5_11char_traitsIcEEEE
FNDA:0,_ZN7testing8internal16UniversalPrinterIiE5PrintERKiPNSt3__113basic_ostreamIcNS5_11char_traitsIcEEEE
FN:693,_ZN7testing8internal16UniversalPrinterIhE5PrintERKhPNSt3__113basic_ostreamIcNS5_11char_traitsIcEEEE
FNDA:0,_ZN7testing8internal16UniversalPrinterIhE5PrintERKhPNSt3__113basic_ostreamIcNS5_11char_traitsIcEEEE
FN:693,_ZN7testing8internal16UniversalPrinterI17ProjectParametersE5PrintERKS2_PNSt3__113basic_ostreamIcNS6_11char_traitsIcEEEE
FNDA:0,_ZN7testing8internal16UniversalPrinterI17ProjectParametersE5PrintERKS2_PNSt3__113basic_ostreamIcNS6_11char_traitsIcEEEE
FN:693,_ZN7testing8internal16UniversalPrinterItE5PrintERKtPNSt3__113basic_ostreamIcNS5_11char_traitsIcEEEE
FNDA:0,_ZN7testing8internal16UniversalPrinterItE5PrintERKtPNSt3__113basic_ostreamIcNS5_11char_traitsIcEEEE
FN:693,_ZN7testing8internal16UniversalPrinterIPK12DtsParameterE5PrintERKS4_PNSt3__113basic_ostreamIcNS8_11char_traitsIcEEEE
FNDA:0,_ZN7testing8internal16UniversalPrinterIPK12DtsParameterE5PrintERKS4_PNSt3__113basic_ostreamIcNS8_11char_traitsIcEEEE
FN:693,_ZN7testing8internal16UniversalPrinterIP12DtsParameterE5PrintERKS3_PNSt3__113basic_ostreamIcNS7_11char_traitsIcEEEE
FNDA:0,_ZN7testing8internal16UniversalPrinterIP12DtsParameterE5PrintERKS3_PNSt3__113basic_ostreamIcNS7_11char_traitsIcEEEE
FN:883,_ZN7testing8internal21UniversalTersePrinterIiE5PrintERKiPNSt3__113basic_ostreamIcNS5_11char_traitsIcEEEE
FNDA:0,_ZN7testing8internal21UniversalTersePrinterIiE5PrintERKiPNSt3__113basic_ostreamIcNS5_11char_traitsIcEEEE
FN:883,_ZN7testing8internal21UniversalTersePrinterIhE5PrintERKhPNSt3__113basic_ostreamIcNS5_11char_traitsIcEEEE
FNDA:0,_ZN7testing8internal21UniversalTersePrinterIhE5PrintERKhPNSt3__113basic_ostreamIcNS5_11char_traitsIcEEEE
FN:883,_ZN7testing8internal21UniversalTersePrinterI17ProjectParametersE5PrintERKS2_PNSt3__113basic_ostreamIcNS6_11char_traitsIcEEEE
FNDA:0,_ZN7testing8internal21UniversalTersePrinterI17ProjectParametersE5PrintERKS2_PNSt3__113basic_ostreamIcNS6_11char_traitsIcEEEE
FN:883,_ZN7testing8internal21UniversalTersePrinterItE5PrintERKtPNSt3__113basic_ostreamIcNS5_11char_traitsIcEEEE
FNDA:0,_ZN7testing8internal21UniversalTersePrinterItE5PrintERKtPNSt3__113basic_ostreamIcNS5_11char_traitsIcEEEE
FN:883,_ZN7testing8internal21UniversalTersePrinterIPK12DtsParameterE5PrintERKS4_PNSt3__113basic_ostreamIcNS8_11char_traitsIcEEEE
FNDA:0,_ZN7testing8internal21UniversalTersePrinterIPK12DtsParameterE5PrintERKS4_PNSt3__113basic_ostreamIcNS8_11char_traitsIcEEEE
FN:883,_ZN7testing8internal21UniversalTersePrinterIP12DtsParameterE5PrintERKS3_PNSt3__113basic_ostreamIcNS7_11char_traitsIcEEEE
FNDA:0,_ZN7testing8internal21UniversalTersePrinterIP12DtsParameterE5PrintERKS3_PNSt3__113basic_ostreamIcNS7_11char_traitsIcEEEE
FN:995,_ZN7testing8internal14UniversalPrintIiEEvRKT_PNSt3__113basic_ostreamIcNS5_11char_traitsIcEEEE
FNDA:0,_ZN7testing8internal14UniversalPrintIiEEvRKT_PNSt3__113basic_ostreamIcNS5_11char_traitsIcEEEE
FN:995,_ZN7testing8internal14UniversalPrintIhEEvRKT_PNSt3__113basic_ostreamIcNS5_11char_traitsIcEEEE
FNDA:0,_ZN7testing8internal14UniversalPrintIhEEvRKT_PNSt3__113basic_ostreamIcNS5_11char_traitsIcEEEE
FN:995,_ZN7testing8internal14UniversalPrintI17ProjectParametersEEvRKT_PNSt3__113basic_ostreamIcNS6_11char_traitsIcEEEE
FNDA:0,_ZN7testing8internal14UniversalPrintI17ProjectParametersEEvRKT_PNSt3__113basic_ostreamIcNS6_11char_traitsIcEEEE
FN:995,_ZN7testing8internal14UniversalPrintItEEvRKT_PNSt3__113basic_ostreamIcNS5_11char_traitsIcEEEE
FNDA:0,_ZN7testing8internal14UniversalPrintItEEvRKT_PNSt3__113basic_ostreamIcNS5_11char_traitsIcEEEE
FN:995,_ZN7testing8internal14UniversalPrintIPK12DtsParameterEEvRKT_PNSt3__113basic_ostreamIcNS8_11char_traitsIcEEEE
FNDA:0,_ZN7testing8internal14UniversalPrintIPK12DtsParameterEEvRKT_PNSt3__113basic_ostreamIcNS8_11char_traitsIcEEEE
FN:995,_ZN7testing8internal14UniversalPrintIP12DtsParameterEEvRKT_PNSt3__113basic_ostreamIcNS7_11char_traitsIcEEEE
FNDA:0,_ZN7testing8internal14UniversalPrintIP12DtsParameterEEvRKT_PNSt3__113basic_ostreamIcNS7_11char_traitsIcEEEE
FN:1035,_ZN7testing13PrintToStringIiEENSt3__112basic_stringIcNS1_11char_traitsIcEENS1_9allocatorIcEEEERKT_
FNDA:0,_ZN7testing13PrintToStringIiEENSt3__112basic_stringIcNS1_11char_traitsIcEENS1_9allocatorIcEEEERKT_
FN:1035,_ZN7testing13PrintToStringIhEENSt3__112basic_stringIcNS1_11char_traitsIcEENS1_9allocatorIcEEEERKT_
FNDA:0,_ZN7testing13PrintToStringIhEENSt3__112basic_stringIcNS1_11char_traitsIcEENS1_9allocatorIcEEEERKT_
FN:1035,_ZN7testing13PrintToStringI17ProjectParametersEENSt3__112basic_stringIcNS2_11char_traitsIcEENS2_9allocatorIcEEEERKT_
FNDA:0,_ZN7testing13PrintToStringI17ProjectParametersEENSt3__112basic_stringIcNS2_11char_traitsIcEENS2_9allocatorIcEEEERKT_
FN:1035,_ZN7testing13PrintToStringItEENSt3__112basic_stringIcNS1_11char_traitsIcEENS1_9allocatorIcEEEERKT_
FNDA:0,_ZN7testing13PrintToStringItEENSt3__112basic_stringIcNS1_11char_traitsIcEENS1_9allocatorIcEEEERKT_
FN:1035,_ZN7testing13PrintToStringIPK12DtsParameterEENSt3__112basic_stringIcNS4_11char_traitsIcEENS4_9allocatorIcEEEERKT_
FNDA:0,_ZN7testing13PrintToStringIPK12DtsParameterEENSt3__112basic_stringIcNS4_11char_traitsIcEENS4_9allocatorIcEEEERKT_
FN:1035,_ZN7testing13PrintToStringIP12DtsParameterEENSt3__112basic_stringIcNS3_11char_traitsIcEENS3_9allocatorIcEEEERKT_
FNDA:0,_ZN7testing13PrintToStringIP12DtsParameterEENSt3__112basic_stringIcNS3_11char_traitsIcEENS3_9allocatorIcEEEERKT_
DA:182,0
DA:183,0
DA:184,0
DA:185,0
DA:189,0
DA:191,0
DA:213,0
DA:216,0
DA:217,0
DA:305,0
DA:311,0
DA:312,0
DA:332,0
DA:333,0
DA:341,0
DA:342,0
DA:412,0
DA:414,0
DA:439,0
DA:440,0
DA:441,0
DA:693,0
DA:702,0
DA:703,0
DA:883,0
DA:884,0
DA:885,0
DA:995,0
DA:999,0
DA:1000,0
DA:1035,0
DA:1036,0
DA:1037,0
DA:1038,0
DA:1039,0
FNF:54
FNH:0
LF:35
LH:0
end_of_record
SF:/Library/Developer/CommandLineTools/SDKs/MacOSX12.3.sdk/usr/include/c++/v1/__iterator/ostreambuf_iterator.h
FN:53,_ZNSt3__119ostreambuf_iteratorIcNS_11char_traitsIcEEEC1ERNS_13basic_ostreamIcS2_EE
FNDA:0,_ZNSt3__119ostreambuf_iteratorIcNS_11char_traitsIcEEEC1ERNS_13basic_ostreamIcS2_EE
FN:53,_ZNSt3__119ostreambuf_iteratorIcNS_11char_traitsIcEEEC2ERNS_13basic_ostreamIcS2_EE
FNDA:0,_ZNSt3__119ostreambuf_iteratorIcNS_11char_traitsIcEEEC2ERNS_13basic_ostreamIcS2_EE
FN:66,_ZNKSt3__119ostreambuf_iteratorIcNS_11char_traitsIcEEE6failedEv
FNDA:0,_ZNKSt3__119ostreambuf_iteratorIcNS_11char_traitsIcEEE6failedEv
DA:53,0
DA:54,0
DA:66,0
FNF:3
FNH:0
LF:3
LH:0
end_of_record
SF:/Users/dogukanarat/Workspace/DevelopmentTestSystem/Tests/UnitTest/TestDtsParameterController.cpp
FN:0,__cxx_global_var_init
FNDA:90,__cxx_global_var_init
FN:0,__cxx_global_var_init.10
FNDA:90,__cxx_global_var_init.10
FN:3,_ZN64TestDtsParameterController_dtsParameterControllerInitialize_Test8TestBodyEv
FNDA:3,_ZN64TestDtsParameterController_dtsParameterControllerInitialize_Test8TestBodyEv
FN:3,_ZN64TestDtsParameterController_dtsParameterControllerInitialize_TestD1Ev
FNDA:3,_ZN64TestDtsParameterController_dtsParameterControllerInitialize_TestD1Ev
FN:3,_ZN64TestDtsParameterController_dtsParameterControllerInitialize_TestD0Ev
FNDA:3,_ZN64TestDtsParameterController_dtsParameterControllerInitialize_TestD0Ev
FN:3,_ZN64TestDtsParameterController_dtsParameterControllerInitialize_TestC1Ev
FNDA:3,_ZN64TestDtsParameterController_dtsParameterControllerInitialize_TestC1Ev
FN:3,_ZN64TestDtsParameterController_dtsParameterControllerInitialize_TestC2Ev
FNDA:3,_ZN64TestDtsParameterController_dtsParameterControllerInitialize_TestC2Ev
FN:3,_ZN64TestDtsParameterController_dtsParameterControllerInitialize_TestD2Ev
FNDA:3,_ZN64TestDtsParameterController_dtsParameterControllerInitialize_TestD2Ev
FN:16,_ZN58TestDtsParameterController_dtsParameterControllerFind_Test8TestBodyEv
FNDA:3,_ZN58TestDtsParameterController_dtsParameterControllerFind_Test8TestBodyEv
FN:16,_ZN58TestDtsParameterController_dtsParameterControllerFind_TestD1Ev
FNDA:3,_ZN58TestDtsParameterController_dtsParameterControllerFind_TestD1Ev
FN:16,_ZN58TestDtsParameterController_dtsParameterControllerFind_TestD0Ev
FNDA:3,_ZN58TestDtsParameterController_dtsParameterControllerFind_TestD0Ev
FN:16,_ZN58TestDtsParameterController_dtsParameterControllerFind_TestC1Ev
FNDA:3,_ZN58TestDtsParameterController_dtsParameterControllerFind_TestC1Ev
FN:16,_ZN58TestDtsParameterController_dtsParameterControllerFind_TestC2Ev
FNDA:3,_ZN58TestDtsParameterController_dtsParameterControllerFind_TestC2Ev
FN:16,_ZN58TestDtsParameterController_dtsParameterControllerFind_TestD2Ev
FNDA:3,_ZN58TestDtsParameterController_dtsParameterControllerFind_TestD2Ev
DA:3,108
DA:5,3
DA:6,3
DA:10,3
DA:11,3
DA:12,3
DA:13,3
DA:14,3
DA:16,108
DA:18,3
DA:20,3
DA:21,3
DA:25,3
DA:26,3
DA:28,3
DA:29,3
DA:33,3
DA:34,3
DA:36,3
DA:37,3
DA:41,3
DA:42,3
DA:43,3
FNF:14
FNH:14
LF:23
LH:23
end_of_record
SF:/Users/dogukanarat/Workspace/DevelopmentTestSystem/Binaries/Debug/Intermediate/_deps/googletest-src/googletest/include/gtest/gtest-message.h
FN:92,_ZN7testing7MessageD1Ev
FNDA:0,_ZN7testing7MessageD1Ev
FN:92,_ZN7testing7MessageD2Ev
FNDA:0,_ZN7testing7MessageD2Ev
FNF:2
FNH:0
LF:0
LH:0
end_of_record
TN:
SF:/Library/Developer/CommandLineTools/SDKs/MacOSX12.3.sdk/usr/include/c++/v1/ios
FN:344,_ZNSt3__18ios_baseC2Ev
FNDA:0,_ZNSt3__18ios_baseC2Ev
FN:348,_ZNKSt3__18ios_base5rdbufEv
FNDA:0,_ZNKSt3__18ios_base5rdbufEv
FN:459,_ZNKSt3__18ios_base5flagsEv
FNDA:0,_ZNKSt3__18ios_base5flagsEv
FN:521,_ZNKSt3__18ios_base5widthEv
FNDA:0,_ZNKSt3__18ios_base5widthEv
FN:528,_ZNSt3__18ios_base5widthEl
FNDA:0,_ZNSt3__18ios_base5widthEl
FN:546,_ZNSt3__18ios_base8setstateEj
FNDA:0,_ZNSt3__18ios_base8setstateEj
FN:623,_ZNSt3__19basic_iosIcNS_11char_traitsIcEEE8setstateEj
FNDA:0,_ZNSt3__19basic_iosIcNS_11char_traitsIcEEE8setstateEj
FN:665,_ZNSt3__19basic_iosIcNS_11char_traitsIcEEEC2Ev
FNDA:0,_ZNSt3__19basic_iosIcNS_11char_traitsIcEEEC2Ev
FN:698,_ZNSt3__19basic_iosIcNS_11char_traitsIcEEE4initEPNS_15basic_streambufIcS2_EE
FNDA:0,_ZNSt3__19basic_iosIcNS_11char_traitsIcEEE4initEPNS_15basic_streambufIcS2_EE
FN:726,_ZNKSt3__19basic_iosIcNS_11char_traitsIcEEE5rdbufEv
FNDA:0,_ZNKSt3__19basic_iosIcNS_11char_traitsIcEEE5rdbufEv
FN:764,_ZNKSt3__19basic_iosIcNS_11char_traitsIcEEE5widenEc
FNDA:0,_ZNKSt3__19basic_iosIcNS_11char_traitsIcEEE5widenEc
FN:772,_ZNKSt3__19basic_iosIcNS_11char_traitsIcEEE4fillEv
FNDA:0,_ZNKSt3__19basic_iosIcNS_11char_traitsIcEEE4fillEv
DA:344,0
DA:345,0
DA:348,0
DA:459,0
DA:461,0
DA:521,0
DA:523,0
DA:528,0
DA:530,0
DA:531,0
DA:532,0
DA:546,0
DA:548,0
DA:549,0
DA:623,0
DA:665,0
DA:666,0
DA:698,0
DA:700,0
DA:701,0
DA:702,0
DA:703,0
DA:726,0
DA:728,0
DA:764,0
DA:766,0
DA:767,0
DA:772,0
DA:774,0
DA:775,0
DA:776,0
FNF:12
FNH:0
LF:31
LH:0
end_of_record
SF:/Library/Developer/CommandLineTools/SDKs/MacOSX12.3.sdk/usr/include/c++/v1/sstream
FN:227,_ZNSt3__115basic_stringbufIcNS_11char_traitsIcEENS_9allocatorIcEEEC1Ej
FNDA:0,_ZNSt3__115basic_stringbufIcNS_11char_traitsIcEENS_9allocatorIcEEEC1Ej
FN:227,_ZNSt3__115basic_stringbufIcNS_11char_traitsIcEENS_9allocatorIcEEEC2Ej
FNDA:0,_ZNSt3__115basic_stringbufIcNS_11char_traitsIcEENS_9allocatorIcEEEC2Ej
FN:802,_ZNSt3__118basic_stringstreamIcNS_11char_traitsIcEENS_9allocatorIcEEEC1Ev
FNDA:0,_ZNSt3__118basic_stringstreamIcNS_11char_traitsIcEENS_9allocatorIcEEEC1Ev
FN:842,_ZNKSt3__118basic_stringstreamIcNS_11char_traitsIcEENS_9allocatorIcEEE3strEv
FNDA:0,_ZNKSt3__118basic_stringstreamIcNS_11char_traitsIcEENS_9allocatorIcEEE3strEv
FN:861,_ZNSt3__115basic_stringbufIcNS_11char_traitsIcEENS_9allocatorIcEEED1Ev
FNDA:0,_ZNSt3__115basic_stringbufIcNS_11char_traitsIcEENS_9allocatorIcEEED1Ev
FN:861,_ZNSt3__115basic_stringbufIcNS_11char_traitsIcEENS_9allocatorIcEEED2Ev
FNDA:0,_ZNSt3__115basic_stringbufIcNS_11char_traitsIcEENS_9allocatorIcEEED2Ev
FN:862,_ZNSt3__118basic_stringstreamIcNS_11char_traitsIcEENS_9allocatorIcEEED1Ev
FNDA:0,_ZNSt3__118basic_stringstreamIcNS_11char_traitsIcEENS_9allocatorIcEEED1Ev
FN:862,_ZNSt3__118basic_stringstreamIcNS_11char_traitsIcEENS_9allocatorIcEEED2Ev
FNDA:0,_ZNSt3__118basic_stringstreamIcNS_11char_traitsIcEENS_9allocatorIcEEED2Ev
DA:227,0
DA:228,0
DA:802,0
DA:803,0
DA:842,0
DA:843,0
FNF:8
FNH:0
LF:6
LH:0
end_of_record
SF:/Users/dogukanarat/Workspace/DevelopmentTestSystem/Binaries/Debug/Intermediate/_deps/googletest-src/googletest/include/gtest/gtest-assertion-result.h
FN:133,_ZN7testing15AssertionResultD1Ev
FNDA:0,_ZN7testing15AssertionResultD1Ev
FN:133,_ZN7testing15AssertionResultD2Ev
FNDA:0,_ZN7testing15AssertionResultD2Ev
FN:174,_ZNK7testing15AssertionResultcvbEv
FNDA:0,_ZNK7testing15AssertionResultcvbEv
FN:183,_ZNK7testing15AssertionResult7messageEv
FNDA:0,_ZNK7testing15AssertionResult7messageEv
FN:187,_ZNK7testing15AssertionResult15failure_messageEv
FNDA:0,_ZNK7testing15AssertionResult15failure_messageEv
DA:174,0
DA:183,0
DA:184,0
DA:187,0
FNF:5
FNH:0
LF:4
LH:0
end_of_record
SF:/Users/dogukanarat/Workspace/DevelopmentTestSystem/Tests/UnitTest/TestDtsMonitor.cpp
FN:0,__cxx_global_var_init
FNDA:90,__cxx_global_var_init
FN:0,__cxx_global_var_init.7
FNDA:90,__cxx_global_var_init.7
FN:0,__cxx_global_var_init.10
FNDA:90,__cxx_global_var_init.10
FN:3,_ZN37TestDtsMonitor_dtsMonitorForBool_Test8TestBodyEv
FNDA:3,_ZN37TestDtsMonitor_dtsMonitorForBool_Test8TestBodyEv
FN:3,_ZN37TestDtsMonitor_dtsMonitorForBool_TestD1Ev
FNDA:3,_ZN37TestDtsMonitor_dtsMonitorForBool_TestD1Ev
FN:3,_ZN37TestDtsMonitor_dtsMonitorForBool_TestD0Ev
FNDA:3,_ZN37TestDtsMonitor_dtsMonitorForBool_TestD0Ev
FN:3,_ZN37TestDtsMonitor_dtsMonitorForBool_TestC1Ev
FNDA:3,_ZN37TestDtsMonitor_dtsMonitorForBool_TestC1Ev
FN:3,_ZN37TestDtsMonitor_dtsMonitorForBool_TestC2Ev
FNDA:3,_ZN37TestDtsMonitor_dtsMonitorForBool_TestC2Ev
FN:3,_ZN37TestDtsMonitor_dtsMonitorForBool_TestD2Ev
FNDA:3,_ZN37TestDtsMonitor_dtsMonitorForBool_TestD2Ev
FN:18,_ZN38TestDtsMonitor_dtsMonitorForInt32_Test8TestBodyEv
FNDA:3,_ZN38TestDtsMonitor_dtsMonitorForInt32_Test8TestBodyEv
FN:18,_ZN38TestDtsMonitor_dtsMonitorForInt32_TestD1Ev
FNDA:3,_ZN38TestDtsMonitor_dtsMonitorForInt32_TestD1Ev
FN:18,_ZN38TestDtsMonitor_dtsMonitorForInt32_TestD0Ev
FNDA:3,_ZN38TestDtsMonitor_dtsMonitorForInt32_TestD0Ev
FN:18,_ZN38TestDtsMonitor_dtsMonitorForInt32_TestC1Ev
FNDA:3,_ZN38TestDtsMonitor_dtsMonitorForInt32_TestC1Ev
FN:18,_ZN38TestDtsMonitor_dtsMonitorForInt32_TestC2Ev
FNDA:3,_ZN38TestDtsMonitor_dtsMonitorForInt32_TestC2Ev
FN:18,_ZN38TestDtsMonitor_dtsMonitorForInt32_TestD2Ev
FNDA:3,_ZN38TestDtsMonitor_dtsMonitorForInt32_TestD2Ev
FN:33,_ZN40TestDtsMonitor_dtsMonitorForFloat64_Test8TestBodyEv
FNDA:3,_ZN40TestDtsMonitor_dtsMonitorForFloat64_Test8TestBodyEv
FN:33,_ZN40TestDtsMonitor_dtsMonitorForFloat64_TestD1Ev
FNDA:3,_ZN40TestDtsMonitor_dtsMonitorForFloat64_TestD1Ev
FN:33,_ZN40TestDtsMonitor_dtsMonitorForFloat64_TestD0Ev
FNDA:3,_ZN40TestDtsMonitor_dtsMonitorForFloat64_TestD0Ev
FN:33,_ZN40TestDtsMonitor_dtsMonitorForFloat64_TestC1Ev
FNDA:3,_ZN40TestDtsMonitor_dtsMonitorForFloat64_TestC1Ev
FN:33,_ZN40TestDtsMonitor_dtsMonitorForFloat64_TestC2Ev
FNDA:3,_ZN40TestDtsMonitor_dtsMonitorForFloat64_TestC2Ev
FN:33,_ZN40TestDtsMonitor_dtsMonitorForFloat64_TestD2Ev
FNDA:3,_ZN40TestDtsMonitor_dtsMonitorForFloat64_TestD2Ev
DA:3,108
DA:5,3
DA:6,3
DA:9,3
DA:10,3
DA:12,3
DA:14,3
DA:15,3
DA:16,3
DA:18,108
DA:20,3
DA:21,3
DA:24,3
DA:25,3
DA:27,3
DA:29,3
DA:30,3
DA:31,3
DA:33,108
DA:35,3
DA:36,3
DA:37,3
DA:40,3
DA:42,3
DA:48,3
DA:50,3
DA:56,3
DA:57,3
DA:58,3
FNF:21
FNH:21
LF:29
LH:29
end_of_record
SF:/Library/Developer/CommandLineTools/SDKs/MacOSX12.3.sdk/usr/include/c++/v1/__memory/addressof.h
FN:30,_ZNSt3__1L9addressofIKcEEPT_RS2_
FNDA:0,_ZNSt3__1L9addressofIKcEEPT_RS2_
DA:30,0
DA:32,0
FNF:1
FNH:0
LF:2
LH:0
end_of_record
SF:/Users/dogukanarat/Workspace/DevelopmentTestSystem/Tests/UnitTest/TestDtsMonitor.h
FN:18,_ZN14TestDtsMonitorC2Ev
FNDA:9,_ZN14TestDtsMonitorC2Ev
FN:21,_ZN14TestDtsMonitorD1Ev
FNDA:0,_ZN14TestDtsMonitorD1Ev
FN:21,_ZN14TestDtsMonitorD0Ev
FNDA:0,_ZN14TestDtsMonitorD0Ev
FN:21,_ZN14TestDtsMonitorD2Ev
FNDA:9,_ZN14TestDtsMonitorD2Ev
FN:25,_ZN14TestDtsMonitor5SetUpEv
FNDA:9,_ZN14TestDtsMonitor5SetUpEv
FN:33,_ZN14TestDtsMonitor8TearDownEv
FNDA:9,_ZN14TestDtsMonitor8TearDownEv
DA:18,27
DA:19,18
DA:20,9
DA:21,9
DA:22,0
DA:23,9
DA:25,9
DA:27,9
DA:28,9
DA:31,9
DA:33,9
DA:35,9
FNF:6
FNH:4
LF:12
LH:11
end_of_record
SF:/Library/Developer/CommandLineTools/SDKs/MacOSX12.3.sdk/usr/include/c++/v1/locale
FN:1395,_ZNSt3__116__pad_and_outputIcNS_11char_traitsIcEEEENS_19ostreambuf_iteratorIT_T0_EES6_PKS4_S8_S8_RNS_8ios_baseES4_
FNDA:0,_ZNSt3__116__pad_and_outputIcNS_11char_traitsIcEEEENS_19ostreambuf_iteratorIT_T0_EES6_PKS4_S8_S8_RNS_8ios_baseES4_
DA:1395,0
DA:1399,0
DA:1400,0
DA:1401,0
DA:1402,0
DA:1403,0
DA:1404,0
DA:1406,0
DA:1407,0
DA:1408,0
DA:1410,0
DA:1412,0
DA:1413,0
DA:1415,0
DA:1416,0
DA:1418,0
DA:1419,0
DA:1421,0
DA:1422,0
DA:1424,0
DA:1425,0
DA:1426,0
DA:1428,0
DA:1430,0
DA:1431,0
DA:1433,0
DA:1434,0
DA:1435,0
DA:1436,0
FNF:1
FNH:0
LF:29
LH:0
end_of_record
SF:/Library/Developer/CommandLineTools/SDKs/MacOSX12.3.sdk/usr/include/c++/v1/string
FN:840,_ZNSt3__112basic_stringIcNS_11char_traitsIcEENS_9allocatorIcEEEC1IDnEEPKc
FNDA:270,_ZNSt3__112basic_stringIcNS_11char_traitsIcEENS_9allocatorIcEEEC1IDnEEPKc
FN:840,_ZNSt3__112basic_stringIcNS_11char_traitsIcEENS_9allocatorIcEEEC2IDnEEPKc
FNDA:270,_ZNSt3__112basic_stringIcNS_11char_traitsIcEENS_9allocatorIcEEEC2IDnEEPKc
FN:1263,_ZNKSt3__112basic_stringIcNS_11char_traitsIcEENS_9allocatorIcEEE5c_strEv
FNDA:0,_ZNKSt3__112basic_stringIcNS_11char_traitsIcEENS_9allocatorIcEEE5c_strEv
FN:1265,_ZNKSt3__112basic_stringIcNS_11char_traitsIcEENS_9allocatorIcEEE4dataEv
FNDA:0,_ZNKSt3__112basic_stringIcNS_11char_traitsIcEENS_9allocatorIcEEE4dataEv
FN:1458,_ZNKSt3__112basic_stringIcNS_11char_traitsIcEENS_9allocatorIcEEE9__is_longEv
FNDA:0,_ZNKSt3__112basic_stringIcNS_11char_traitsIcEENS_9allocatorIcEEE9__is_longEv
FN:1540,_ZNKSt3__112basic_stringIcNS_11char_traitsIcEENS_9allocatorIcEEE18__get_long_pointerEv
FNDA:0,_ZNKSt3__112basic_stringIcNS_11char_traitsIcEENS_9allocatorIcEEE18__get_long_pointerEv
FN:1546,_ZNKSt3__112basic_stringIcNS_11char_traitsIcEENS_9allocatorIcEEE19__get_short_pointerEv
FNDA:0,_ZNKSt3__112basic_stringIcNS_11char_traitsIcEENS_9allocatorIcEEE19__get_short_pointerEv
FN:1552,_ZNKSt3__112basic_stringIcNS_11char_traitsIcEENS_9allocatorIcEEE13__get_pointerEv
FNDA:0,_ZNKSt3__112basic_stringIcNS_11char_traitsIcEENS_9allocatorIcEEE13__get_pointerEv
FN:1556,_ZNSt3__112basic_stringIcNS_11char_traitsIcEENS_9allocatorIcEEE6__zeroEv
FNDA:0,_ZNSt3__112basic_stringIcNS_11char_traitsIcEENS_9allocatorIcEEE6__zeroEv
FN:1829,_ZNSt3__112basic_stringIcNS_11char_traitsIcEENS_9allocatorIcEEEC1Ev
FNDA:0,_ZNSt3__112basic_stringIcNS_11char_traitsIcEENS_9allocatorIcEEEC1Ev
FN:1829,_ZNSt3__112basic_stringIcNS_11char_traitsIcEENS_9allocatorIcEEEC2Ev
FNDA:0,_ZNSt3__112basic_stringIcNS_11char_traitsIcEENS_9allocatorIcEEEC2Ev
FN:2056,_ZNSt3__112basic_stringIcNS_11char_traitsIcEENS_9allocatorIcEEEC1Emc
FNDA:0,_ZNSt3__112basic_stringIcNS_11char_traitsIcEENS_9allocatorIcEEEC1Emc
FN:2056,_ZNSt3__112basic_stringIcNS_11char_traitsIcEENS_9allocatorIcEEEC2Emc
FNDA:0,_ZNSt3__112basic_stringIcNS_11char_traitsIcEENS_9allocatorIcEEEC2Emc
DA:840,540
DA:842,270
DA:846,540
DA:1263,0
DA:1265,0
DA:1458,0
DA:1459,0
DA:1540,0
DA:1541,0
DA:1546,0
DA:1547,0
DA:1552,0
DA:1553,0
DA:1556,0
DA:1558,0
DA:1559,0
DA:1560,0
DA:1561,0
DA:1829,0
DA:1831,0
DA:1832,0
DA:1836,0
DA:1837,0
DA:2056,0
DA:2057,0
DA:2058,0
DA:2059,0
DA:2063,0
FNF:13
FNH:2
LF:28
LH:3
end_of_record
SF:/Library/Developer/CommandLineTools/SDKs/MacOSX12.3.sdk/usr/include/c++/v1/__memory/allocator.h
FN:74,_ZNSt3__116__non_trivial_ifILb1ENS_9allocatorIcEEEC2Ev
FNDA:270,_ZNSt3__116__non_trivial_ifILb1ENS_9allocatorIcEEEC2Ev
FN:94,_ZNSt3__19allocatorIcEC2Ev
FNDA:270,_ZNSt3__19allocatorIcEC2Ev
DA:74,270
DA:94,270
FNF:2
FNH:2
LF:2
LH:2
end_of_record
SF:/Library/Developer/CommandLineTools/SDKs/MacOSX12.3.sdk/usr/include/c++/v1/__memory/compressed_pair.h
FN:41,_ZNSt3__122__compressed_pair_elemINS_12basic_stringIcNS_11char_traitsIcEENS_9allocatorIcEEE5__repELi0ELb0EEC2ENS_18__default_init_tagE
FNDA:270,_ZNSt3__122__compressed_pair_elemINS_12basic_stringIcNS_11char_traitsIcEENS_9allocatorIcEEE5__repELi0ELb0EEC2ENS_18__default_init_tagE
FN:65,_ZNSt3__122__compressed_pair_elemIPNS_18basic_stringstreamIcNS_11char_traitsIcEENS_9allocatorIcEEEELi0ELb0EE5__getEv
FNDA:0,_ZNSt3__122__compressed_pair_elemIPNS_18basic_stringstreamIcNS_11char_traitsIcEENS_9allocatorIcEEEELi0ELb0EE5__getEv
FN:65,_ZNSt3__122__compressed_pair_elemIPNS_12basic_stringIcNS_11char_traitsIcEENS_9allocatorIcEEEELi0ELb0EE5__getEv
FNDA:0,_ZNSt3__122__compressed_pair_elemIPNS_12basic_stringIcNS_11char_traitsIcEENS_9allocatorIcEEEELi0ELb0EE5__getEv
FN:65,_ZNSt3__122__compressed_pair_elemINS_12basic_stringIcNS_11char_traitsIcEENS_9allocatorIcEEE5__repELi0ELb0EE5__getEv
FNDA:0,_ZNSt3__122__compressed_pair_elemINS_12basic_stringIcNS_11char_traitsIcEENS_9allocatorIcEEE5__repELi0ELb0EE5__getEv
FN:67,_ZNKSt3__122__compressed_pair_elemIPNS_12basic_stringIcNS_11char_traitsIcEENS_9allocatorIcEEEELi0ELb0EE5__getEv
FNDA:0,_ZNKSt3__122__compressed_pair_elemIPNS_12basic_stringIcNS_11char_traitsIcEENS_9allocatorIcEEEELi0ELb0EE5__getEv
FN:67,_ZNKSt3__122__compressed_pair_elemINS_12basic_stringIcNS_11char_traitsIcEENS_9allocatorIcEEE5__repELi0ELb0EE5__getEv
FNDA:0,_ZNKSt3__122__compressed_pair_elemINS_12basic_stringIcNS_11char_traitsIcEENS_9allocatorIcEEE5__repELi0ELb0EE5__getEv
FN:82,_ZNSt3__122__compressed_pair_elemINS_9allocatorIcEELi1ELb1EEC2ENS_18__default_init_tagE
FNDA:270,_ZNSt3__122__compressed_pair_elemINS_9allocatorIcEELi1ELb1EEC2ENS_18__default_init_tagE
FN:103,_ZNSt3__122__compressed_pair_elemINS_14default_deleteINS_18basic_stringstreamIcNS_11char_traitsIcEENS_9allocatorIcEEEEEELi1ELb1EE5__getEv
FNDA:0,_ZNSt3__122__compressed_pair_elemINS_14default_deleteINS_18basic_stringstreamIcNS_11char_traitsIcEENS_9allocatorIcEEEEEELi1ELb1EE5__getEv
FN:103,_ZNSt3__122__compressed_pair_elemINS_14default_deleteINS_12basic_stringIcNS_11char_traitsIcEENS_9allocatorIcEEEEEELi1ELb1EE5__getEv
FNDA:0,_ZNSt3__122__compressed_pair_elemINS_14default_deleteINS_12basic_stringIcNS_11char_traitsIcEENS_9allocatorIcEEEEEELi1ELb1EE5__getEv
FN:135,_ZNSt3__117__compressed_pairINS_12basic_stringIcNS_11char_traitsIcEENS_9allocatorIcEEE5__repES5_EC1INS_18__default_init_tagESA_EEOT_OT0_
FNDA:270,_ZNSt3__117__compressed_pairINS_12basic_stringIcNS_11char_traitsIcEENS_9allocatorIcEEE5__repES5_EC1INS_18__default_init_tagESA_EEOT_OT0_
FN:135,_ZNSt3__117__compressed_pairINS_12basic_stringIcNS_11char_traitsIcEENS_9allocatorIcEEE5__repES5_EC2INS_18__default_init_tagESA_EEOT_OT0_
FNDA:270,_ZNSt3__117__compressed_pairINS_12basic_stringIcNS_11char_traitsIcEENS_9allocatorIcEEE5__repES5_EC2INS_18__default_init_tagESA_EEOT_OT0_
FN:150,_ZNSt3__117__compressed_pairIPNS_18basic_stringstreamIcNS_11char_traitsIcEENS_9allocatorIcEEEENS_14default_deleteIS6_EEE5firstEv
FNDA:0,_ZNSt3__117__compressed_pairIPNS_18basic_stringstreamIcNS_11char_traitsIcEENS_9allocatorIcEEEENS_14default_deleteIS6_EEE5firstEv
FN:150,_ZNSt3__117__compressed_pairIPNS_12basic_stringIcNS_11char_traitsIcEENS_9allocatorIcEEEENS_14default_deleteIS6_EEE5firstEv
FNDA:0,_ZNSt3__117__compressed_pairIPNS_12basic_stringIcNS_11char_traitsIcEENS_9allocatorIcEEEENS_14default_deleteIS6_EEE5firstEv
FN:150,_ZNSt3__117__compressed_pairINS_12basic_stringIcNS_11char_traitsIcEENS_9allocatorIcEEE5__repES5_E5firstEv
FNDA:0,_ZNSt3__117__compressed_pairINS_12basic_stringIcNS_11char_traitsIcEENS_9allocatorIcEEE5__repES5_E5firstEv
FN:155,_ZNKSt3__117__compressed_pairIPNS_12basic_stringIcNS_11char_traitsIcEENS_9allocatorIcEEEENS_14default_deleteIS6_EEE5firstEv
FNDA:0,_ZNKSt3__117__compressed_pairIPNS_12basic_stringIcNS_11char_traitsIcEENS_9allocatorIcEEEENS_14default_deleteIS6_EEE5firstEv
FN:155,_ZNKSt3__117__compressed_pairINS_12basic_stringIcNS_11char_traitsIcEENS_9allocatorIcEEE5__repES5_E5firstEv
FNDA:0,_ZNKSt3__117__compressed_pairINS_12basic_stringIcNS_11char_traitsIcEENS_9allocatorIcEEE5__repES5_E5firstEv
FN:160,_ZNSt3__117__compressed_pairIPNS_18basic_stringstreamIcNS_11char_traitsIcEENS_9allocatorIcEEEENS_14default_deleteIS6_EEE6secondEv
FNDA:0,_ZNSt3__117__compressed_pairIPNS_18basic_stringstreamIcNS_11char_traitsIcEENS_9allocatorIcEEEENS_14default_deleteIS6_EEE6secondEv
FN:160,_ZNSt3__117__compressed_pairIPNS_12basic_stringIcNS_11char_traitsIcEENS_9allocatorIcEEEENS_14default_deleteIS6_EEE6secondEv
FNDA:0,_ZNSt3__117__compressed_pairIPNS_12basic_stringIcNS_11char_traitsIcEENS_9allocatorIcEEEENS_14default_deleteIS6_EEE6secondEv
DA:41,270
DA:65,0
DA:67,0
DA:82,270
DA:103,0
DA:135,540
DA:136,540
DA:150,0
DA:151,0
DA:155,0
DA:156,0
DA:160,0
DA:161,0
FNF:18
FNH:4
LF:13
LH:4
end_of_record
SF:/Library/Developer/CommandLineTools/SDKs/MacOSX12.3.sdk/usr/include/c++/v1/istream
FN:191,_ZNSt3__113basic_istreamIcNS_11char_traitsIcEEEC2EPNS_15basic_streambufIcS2_EE
FNDA:0,_ZNSt3__113basic_istreamIcNS_11char_traitsIcEEEC2EPNS_15basic_streambufIcS2_EE
FN:1405,_ZNSt3__114basic_iostreamIcNS_11char_traitsIcEEEC2EPNS_15basic_streambufIcS2_EE
FNDA:0,_ZNSt3__114basic_iostreamIcNS_11char_traitsIcEEEC2EPNS_15basic_streambufIcS2_EE
DA:191,0
DA:192,0
DA:1405,0
DA:1406,0
DA:1407,0
FNF:2
FNH:0
LF:5
LH:0
end_of_record
SF:/Users/dogukanarat/Workspace/DevelopmentTestSystem/Binaries/Debug/Intermediate/_deps/googletest-src/googletest/include/gtest/internal/gtest-port.h
FN:967,_ZN7testing8internal8GTestLog9GetStreamEv
FNDA:0,_ZN7testing8internal8GTestLog9GetStreamEv
DA:967,0
FNF:1
FNH:0
LF:1
LH:0
end_of_record
SF:/Library/Developer/CommandLineTools/SDKs/MacOSX12.3.sdk/usr/include/c++/v1/__utility/forward.h
FN:27,_ZNSt3__1L7forwardINS_18__default_init_tagEEEOT_RNS_16remove_referenceIS2_E4typeE
FNDA:540,_ZNSt3__1L7forwardINS_18__default_init_tagEEEOT_RNS_16remove_referenceIS2_E4typeE
DA:27,540
DA:28,540
FNF:1
FNH:1
LF:2
LH:2
end_of_record
SF:/Library/Developer/CommandLineTools/SDKs/MacOSX12.3.sdk/usr/include/c++/v1/ostream
FN:234,_ZNSt3__113basic_ostreamIcNS_11char_traitsIcEEEC2Ev
FNDA:0,_ZNSt3__113basic_ostreamIcNS_11char_traitsIcEEEC2Ev
FN:251,_ZNKSt3__113basic_ostreamIcNS_11char_traitsIcEEE6sentrycvbEv
FNDA:0,_ZNKSt3__113basic_ostreamIcNS_11char_traitsIcEEE6sentrycvbEv
FN:707,_ZNSt3__124__put_character_sequenceIcNS_11char_traitsIcEEEERNS_13basic_ostreamIT_T0_EES7_PKS4_m
FNDA:0,_ZNSt3__124__put_character_sequenceIcNS_11char_traitsIcEEEERNS_13basic_ostreamIT_T0_EES7_PKS4_m
FN:855,_ZNSt3__1lsINS_11char_traitsIcEEEERNS_13basic_ostreamIcT_EES6_PKc
FNDA:0,_ZNSt3__1lsINS_11char_traitsIcEEEERNS_13basic_ostreamIcT_EES6_PKc
DA:234,0
DA:251,0
DA:707,0
DA:714,0
DA:715,0
DA:718,0
DA:719,0
DA:720,0
DA:721,0
DA:722,0
DA:723,0
DA:724,0
DA:725,0
DA:726,0
DA:727,0
DA:729,0
DA:732,0
DA:733,0
DA:735,0
DA:736,0
DA:855,0
DA:857,0
FNF:4
FNH:0
LF:22
LH:0
end_of_record
SF:/Users/dogukanarat/Workspace/DevelopmentTestSystem/Binaries/Debug/Intermediate/_deps/googletest-src/googletest/include/gtest/gtest.h
FN:244,_ZN7testing4Test14SetUpTestSuiteEv
FNDA:0,_ZN7testing4Test14SetUpTestSuiteEv
FN:252,_ZN7testing4Test17TearDownTestSuiteEv
FNDA:0,_ZN7testing4Test17TearDownTestSuiteEv
FN:257,_ZN7testing4Test16TearDownTestCaseEv
FNDA:0,_ZN7testing4Test16TearDownTestCaseEv
FN:258,_ZN7testing4Test13SetUpTestCaseEv
FNDA:0,_ZN7testing4Test13SetUpTestCaseEv
FN:339,_ZN7testing4Test5SetupEv
FNDA:0,_ZN7testing4Test5SetupEv
FN:1338,_ZN7testing8internal18CmpHelperEQFailureIihEENS_15AssertionResultEPKcS4_RKT_RKT0_
FNDA:0,_ZN7testing8internal18CmpHelperEQFailureIihEENS_15AssertionResultEPKcS4_RKT_RKT0_
FN:1338,_ZN7testing8internal18CmpHelperEQFailureIhyEENS_15AssertionResultEPKcS4_RKT_RKT0_
FNDA:0,_ZN7testing8internal18CmpHelperEQFailureIhyEENS_15AssertionResultEPKcS4_RKT_RKT0_
FN:1338,_ZN7testing8internal18CmpHelperEQFailureIiyEENS_15AssertionResultEPKcS4_RKT_RKT0_
FNDA:0,_ZN7testing8internal18CmpHelperEQFailureIiyEENS_15AssertionResultEPKcS4_RKT_RKT0_
FN:1338,_ZN7testing8internal18CmpHelperEQFailureIddEENS_15AssertionResultEPKcS4_RKT_RKT0_
FNDA:0,_ZN7testing8internal18CmpHelperEQFailureIddEENS_15AssertionResultEPKcS4_RKT_RKT0_
FN:1355,_ZN7testing8internal11CmpHelperEQIihEENS_15AssertionResultEPKcS4_RKT_RKT0_
FNDA:0,_ZN7testing8internal11CmpHelperEQIihEENS_15AssertionResultEPKcS4_RKT_RKT0_
FN:1355,_ZN7testing8internal11CmpHelperEQIhyEENS_15AssertionResultEPKcS4_RKT_RKT0_
FNDA:3,_ZN7testing8internal11CmpHelperEQIhyEENS_15AssertionResultEPKcS4_RKT_RKT0_
FN:1355,_ZN7testing8internal11CmpHelperEQIiyEENS_15AssertionResultEPKcS4_RKT_RKT0_
FNDA:3,_ZN7testing8internal11CmpHelperEQIiyEENS_15AssertionResultEPKcS4_RKT_RKT0_
FN:1355,_ZN7testing8internal11CmpHelperEQIddEENS_15AssertionResultEPKcS4_RKT_RKT0_
FNDA:0,_ZN7testing8internal11CmpHelperEQIddEENS_15AssertionResultEPKcS4_RKT_RKT0_
FN:1374,_ZN7testing8internal8EqHelper7CompareIihLPv0EEENS_15AssertionResultEPKcS6_RKT_RKT0_
FNDA:0,_ZN7testing8internal8EqHelper7CompareIihLPv0EEENS_15AssertionResultEPKcS6_RKT_RKT0_
FN:1374,_ZN7testing8internal8EqHelper7CompareIhyLPv0EEENS_15AssertionResultEPKcS6_RKT_RKT0_
FNDA:3,_ZN7testing8internal8EqHelper7CompareIhyLPv0EEENS_15AssertionResultEPKcS6_RKT_RKT0_
FN:1374,_ZN7testing8internal8EqHelper7CompareIiyLPv0EEENS_15AssertionResultEPKcS6_RKT_RKT0_
FNDA:3,_ZN7testing8internal8EqHelper7CompareIiyLPv0EEENS_15AssertionResultEPKcS6_RKT_RKT0_
FN:1374,_ZN7testing8internal8EqHelper7CompareIddLPv0EEENS_15AssertionResultEPKcS6_RKT_RKT0_
FNDA:0,_ZN7testing8internal8EqHelper7CompareIddLPv0EEENS_15AssertionResultEPKcS6_RKT_RKT0_
DA:244,0
DA:252,0
DA:257,0
DA:258,0
DA:339,0
DA:1338,0
DA:1341,0
DA:1342,0
DA:1343,0
DA:1344,0
DA:1355,6
DA:1358,6
DA:1359,6
DA:1362,0
DA:1363,6
DA:1374,6
DA:1377,6
FNF:17
FNH:4
LF:17
LH:6
end_of_record
SF:/Library/Developer/CommandLineTools/SDKs/MacOSX12.3.sdk/usr/include/c++/v1/__locale
FN:252,_ZNSt3__1L9use_facetINS_5ctypeIcEEEERKT_RKNS_6localeE
FNDA:0,_ZNSt3__1L9use_facetINS_5ctypeIcEEEERKT_RKNS_6localeE
FN:697,_ZNKSt3__15ctypeIcE5widenEc
FNDA:0,_ZNKSt3__15ctypeIcE5widenEc
DA:252,0
DA:254,0
DA:697,0
DA:699,0
FNF:2
FNH:0
LF:4
LH:0
end_of_record
SF:/Library/Developer/CommandLineTools/SDKs/MacOSX12.3.sdk/usr/include/c++/v1/__memory/unique_ptr.h
FN:52,_ZNKSt3__114default_deleteINS_18basic_stringstreamIcNS_11char_traitsIcEENS_9allocatorIcEEEEEclEPS6_
FNDA:0,_ZNKSt3__114default_deleteINS_18basic_stringstreamIcNS_11char_traitsIcEENS_9allocatorIcEEEEEclEPS6_
FN:52,_ZNKSt3__114default_deleteINS_12basic_stringIcNS_11char_traitsIcEENS_9allocatorIcEEEEEclEPS6_
FNDA:0,_ZNKSt3__114default_deleteINS_12basic_stringIcNS_11char_traitsIcEENS_9allocatorIcEEEEEclEPS6_
FN:272,_ZNSt3__110unique_ptrINS_18basic_stringstreamIcNS_11char_traitsIcEENS_9allocatorIcEEEENS_14default_deleteIS6_EEED1Ev
FNDA:0,_ZNSt3__110unique_ptrINS_18basic_stringstreamIcNS_11char_traitsIcEENS_9allocatorIcEEEENS_14default_deleteIS6_EEED1Ev
FN:272,_ZNSt3__110unique_ptrINS_18basic_stringstreamIcNS_11char_traitsIcEENS_9allocatorIcEEEENS_14default_deleteIS6_EEED2Ev
FNDA:0,_ZNSt3__110unique_ptrINS_18basic_stringstreamIcNS_11char_traitsIcEENS_9allocatorIcEEEENS_14default_deleteIS6_EEED2Ev
FN:272,_ZNSt3__110unique_ptrINS_12basic_stringIcNS_11char_traitsIcEENS_9allocatorIcEEEENS_14default_deleteIS6_EEED1Ev
FNDA:0,_ZNSt3__110unique_ptrINS_12basic_stringIcNS_11char_traitsIcEENS_9allocatorIcEEEENS_14default_deleteIS6_EEED1Ev
FN:272,_ZNSt3__110unique_ptrINS_12basic_stringIcNS_11char_traitsIcEENS_9allocatorIcEEEENS_14default_deleteIS6_EEED2Ev
FNDA:0,_ZNSt3__110unique_ptrINS_12basic_stringIcNS_11char_traitsIcEENS_9allocatorIcEEEENS_14default_deleteIS6_EEED2Ev
FN:286,_ZNKSt3__110unique_ptrINS_12basic_stringIcNS_11char_traitsIcEENS_9allocatorIcEEEENS_14default_deleteIS6_EEEptEv
FNDA:0,_ZNKSt3__110unique_ptrINS_12basic_stringIcNS_11char_traitsIcEENS_9allocatorIcEEEENS_14default_deleteIS6_EEEptEv
FN:290,_ZNKSt3__110unique_ptrINS_12basic_stringIcNS_11char_traitsIcEENS_9allocatorIcEEEENS_14default_deleteIS6_EEE3getEv
FNDA:0,_ZNKSt3__110unique_ptrINS_12basic_stringIcNS_11char_traitsIcEENS_9allocatorIcEEEENS_14default_deleteIS6_EEE3getEv
FN:314,_ZNSt3__110unique_ptrINS_18basic_stringstreamIcNS_11char_traitsIcEENS_9allocatorIcEEEENS_14default_deleteIS6_EEE5resetEPS6_
FNDA:0,_ZNSt3__110unique_ptrINS_18basic_stringstreamIcNS_11char_traitsIcEENS_9allocatorIcEEEENS_14default_deleteIS6_EEE5resetEPS6_
FN:314,_ZNSt3__110unique_ptrINS_12basic_stringIcNS_11char_traitsIcEENS_9allocatorIcEEEENS_14default_deleteIS6_EEE5resetEPS6_
FNDA:0,_ZNSt3__110unique_ptrINS_12basic_stringIcNS_11char_traitsIcEENS_9allocatorIcEEEENS_14default_deleteIS6_EEE5resetEPS6_
DA:52,0
DA:57,0
DA:58,0
DA:272,0
DA:286,0
DA:287,0
DA:290,0
DA:291,0
DA:314,0
DA:315,0
DA:316,0
DA:317,0
DA:318,0
DA:319,0
FNF:10
FNH:0
LF:14
LH:0
end_of_record
SF:/Library/Developer/CommandLineTools/SDKs/MacOSX12.3.sdk/usr/include/c++/v1/streambuf
FN:228,_ZNSt3__115basic_streambufIcNS_11char_traitsIcEEE5sputnEPKcl
FNDA:0,_ZNSt3__115basic_streambufIcNS_11char_traitsIcEEE5sputnEPKcl
DA:228,0
DA:229,0
FNF:1
FNH:0
LF:2
LH:0
end_of_record
SF:/Users/dogukanarat/Workspace/DevelopmentTestSystem/Binaries/Debug/Intermediate/_deps/googletest-src/googletest/include/gtest/internal/gtest-internal.h
FN:431,_ZN7testing8internal9GetTypeIdI14TestDtsMonitorEEPKvv
FNDA:270,_ZN7testing8internal9GetTypeIdI14TestDtsMonitorEEPKvv
FN:450,_ZN7testing8internal15TestFactoryBaseD1Ev
FNDA:0,_ZN7testing8internal15TestFactoryBaseD1Ev
FN:450,_ZN7testing8internal15TestFactoryBaseD0Ev
FNDA:0,_ZN7testing8internal15TestFactoryBaseD0Ev
FN:450,_ZN7testing8internal15TestFactoryBaseD2Ev
FNDA:0,_ZN7testing8internal15TestFactoryBaseD2Ev
FN:457,_ZN7testing8internal15TestFactoryBaseC2Ev
FNDA:0,_ZN7testing8internal15TestFactoryBaseC2Ev
FN:467,_ZN7testing8internal15TestFactoryImplI37TestDtsMonitor_dtsMonitorForBool_TestEC1Ev
FNDA:90,_ZN7testing8internal15TestFactoryImplI37TestDtsMonitor_dtsMonitorForBool_TestEC1Ev
FN:467,_ZN7testing8internal15TestFactoryImplI38TestDtsMonitor_dtsMonitorForInt32_TestEC1Ev
FNDA:90,_ZN7testing8internal15TestFactoryImplI38TestDtsMonitor_dtsMonitorForInt32_TestEC1Ev
FN:467,_ZN7testing8internal15TestFactoryImplI40TestDtsMonitor_dtsMonitorForFloat64_TestEC1Ev
FNDA:90,_ZN7testing8internal15TestFactoryImplI40TestDtsMonitor_dtsMonitorForFloat64_TestEC1Ev
FN:467,_ZN7testing8internal15TestFactoryImplI37TestDtsMonitor_dtsMonitorForBool_TestEC2Ev
FNDA:90,_ZN7testing8internal15TestFactoryImplI37TestDtsMonitor_dtsMonitorForBool_TestEC2Ev
FN:467,_ZN7testing8internal15TestFactoryImplI37TestDtsMonitor_dtsMonitorForBool_TestED1Ev
FNDA:0,_ZN7testing8internal15TestFactoryImplI37TestDtsMonitor_dtsMonitorForBool_TestED1Ev
FN:467,_ZN7testing8internal15TestFactoryImplI37TestDtsMonitor_dtsMonitorForBool_TestED0Ev
FNDA:0,_ZN7testing8internal15TestFactoryImplI37TestDtsMonitor_dtsMonitorForBool_TestED0Ev
FN:467,_ZN7testing8internal15TestFactoryImplI37TestDtsMonitor_dtsMonitorForBool_TestED2Ev
FNDA:0,_ZN7testing8internal15TestFactoryImplI37TestDtsMonitor_dtsMonitorForBool_TestED2Ev
FN:467,_ZN7testing8internal15TestFactoryImplI38TestDtsMonitor_dtsMonitorForInt32_TestEC2Ev
FNDA:90,_ZN7testing8internal15TestFactoryImplI38TestDtsMonitor_dtsMonitorForInt32_TestEC2Ev
FN:467,_ZN7testing8internal15TestFactoryImplI38TestDtsMonitor_dtsMonitorForInt32_TestED1Ev
FNDA:0,_ZN7testing8internal15TestFactoryImplI38TestDtsMonitor_dtsMonitorForInt32_TestED1Ev
FN:467,_ZN7testing8internal15TestFactoryImplI38TestDtsMonitor_dtsMonitorForInt32_TestED0Ev
FNDA:0,_ZN7testing8internal15TestFactoryImplI38TestDtsMonitor_dtsMonitorForInt32_TestED0Ev
FN:467,_ZN7testing8internal15TestFactoryImplI38TestDtsMonitor_dtsMonitorForInt32_TestED2Ev
FNDA:0,_ZN7testing8internal15TestFactoryImplI38TestDtsMonitor_dtsMonitorForInt32_TestED2Ev
FN:467,_ZN7testing8internal15TestFactoryImplI40TestDtsMonitor_dtsMonitorForFloat64_TestEC2Ev
FNDA:90,_ZN7testing8internal15TestFactoryImplI40TestDtsMonitor_dtsMonitorForFloat64_TestEC2Ev
FN:467,_ZN7testing8internal15TestFactoryImplI40TestDtsMonitor_dtsMonitorForFloat64_TestED1Ev
FNDA:0,_ZN7testing8internal15TestFactoryImplI40TestDtsMonitor_dtsMonitorForFloat64_TestED1Ev
FN:467,_ZN7testing8internal15TestFactoryImplI40TestDtsMonitor_dtsMonitorForFloat64_TestED0Ev
FNDA:0,_ZN7testing8internal15TestFactoryImplI40TestDtsMonitor_dtsMonitorForFloat64_TestED0Ev
FN:467,_ZN7testing8internal15TestFactoryImplI40TestDtsMonitor_dtsMonitorForFloat64_TestED2Ev
FNDA:0,_ZN7testing8internal15TestFactoryImplI40TestDtsMonitor_dtsMonitorForFloat64_TestED2Ev
FN:469,_ZN7testing8internal15TestFactoryImplI37TestDtsMonitor_dtsMonitorForBool_TestE10CreateTestEv
FNDA:3,_ZN7testing8internal15TestFactoryImplI37TestDtsMonitor_dtsMonitorForBool_TestE10CreateTestEv
FN:469,_ZN7testing8internal15TestFactoryImplI38TestDtsMonitor_dtsMonitorForInt32_TestE10CreateTestEv
FNDA:3,_ZN7testing8internal15TestFactoryImplI38TestDtsMonitor_dtsMonitorForInt32_TestE10CreateTestEv
FN:469,_ZN7testing8internal15TestFactoryImplI40TestDtsMonitor_dtsMonitorForFloat64_TestE10CreateTestEv
FNDA:3,_ZN7testing8internal15TestFactoryImplI40TestDtsMonitor_dtsMonitorForFloat64_TestE10CreateTestEv
FN:489,_ZN7testing8internal12CodeLocationD1Ev
FNDA:0,_ZN7testing8internal12CodeLocationD1Ev
FN:489,_ZN7testing8internal12CodeLocationD2Ev
FNDA:0,_ZN7testing8internal12CodeLocationD2Ev
FN:490,_ZN7testing8internal12CodeLocationC1ERKNSt3__112basic_stringIcNS2_11char_traitsIcEENS2_9allocatorIcEEEEi
FNDA:0,_ZN7testing8internal12CodeLocationC1ERKNSt3__112basic_stringIcNS2_11char_traitsIcEENS2_9allocatorIcEEEEi
FN:490,_ZN7testing8internal12CodeLocationC2ERKNSt3__112basic_stringIcNS2_11char_traitsIcEENS2_9allocatorIcEEEEi
FNDA:0,_ZN7testing8internal12CodeLocationC2ERKNSt3__112basic_stringIcNS2_11char_traitsIcEENS2_9allocatorIcEEEEi
FN:503,_ZN7testing8internal19GetNotDefaultOrNullEPFvvES2_
FNDA:0,_ZN7testing8internal19GetNotDefaultOrNullEPFvvES2_
FN:518,_ZN7testing8internal16SuiteApiResolverI14TestDtsMonitorE19GetSetUpCaseOrSuiteEPKci
FNDA:270,_ZN7testing8internal16SuiteApiResolverI14TestDtsMonitorE19GetSetUpCaseOrSuiteEPKci
FN:539,_ZN7testing8internal16SuiteApiResolverI14TestDtsMonitorE22GetTearDownCaseOrSuiteEPKci
FNDA:270,_ZN7testing8internal16SuiteApiResolverI14TestDtsMonitorE22GetTearDownCaseOrSuiteEPKci
DA:431,270
DA:436,270
DA:450,0
DA:457,0
DA:469,9
DA:490,0
DA:491,0
DA:503,0
DA:505,0
DA:518,270
DA:521,270
DA:522,270
DA:523,270
DA:524,270
DA:526,270
DA:527,0
DA:529,0
DA:531,270
DA:537,0
DA:539,270
DA:542,270
DA:543,270
DA:544,270
DA:545,270
DA:547,270
DA:548,0
DA:550,0
DA:552,270
DA:558,0
FNF:30
FNH:12
LF:29
LH:17
end_of_record
SF:/Library/Developer/CommandLineTools/SDKs/MacOSX12.3.sdk/usr/include/c++/v1/__string
FN:342,_ZNSt3__111char_traitsIcE6lengthEPKc
FNDA:0,_ZNSt3__111char_traitsIcE6lengthEPKc
FN:374,_ZNSt3__111char_traitsIcE11eq_int_typeEii
FNDA:0,_ZNSt3__111char_traitsIcE11eq_int_typeEii
FN:376,_ZNSt3__111char_traitsIcE3eofEv
FNDA:0,_ZNSt3__111char_traitsIcE3eofEv
DA:342,0
DA:374,0
DA:375,0
DA:376,0
DA:377,0
FNF:3
FNH:0
LF:5
LH:0
end_of_record
SF:/Library/Developer/CommandLineTools/SDKs/MacOSX12.3.sdk/usr/include/c++/v1/__memory/pointer_traits.h
FN:152,_ZNSt3__114pointer_traitsIPKcE10pointer_toERS1_
FNDA:0,_ZNSt3__114pointer_traitsIPKcE10pointer_toERS1_
FN:173,_ZNSt3__1L12__to_addressIKcEEPT_S3_
FNDA:0,_ZNSt3__1L12__to_addressIKcEEPT_S3_
DA:152,0
DA:154,0
DA:173,0
DA:175,0
FNF:2
FNH:0
LF:4
LH:0
end_of_record
SF:/Users/dogukanarat/Workspace/DevelopmentTestSystem/Binaries/Debug/Intermediate/_deps/googletest-src/googletest/include/gtest/gtest-printers.h
FN:213,_ZN7testing8internal52internal_stream_operator_without_lexical_name_lookup13StreamPrinter10PrintValueIivRNSt3__113basic_ostreamIcNS4_11char_traitsIcEEEEEEvRKT_PS8_
FNDA:0,_ZN7testing8internal52internal_stream_operator_without_lexical_name_lookup13StreamPrinter10PrintValueIivRNSt3__113basic_ostreamIcNS4_11char_traitsIcEEEEEEvRKT_PS8_
FN:213,_ZN7testing8internal52internal_stream_operator_without_lexical_name_lookup13StreamPrinter10PrintValueIyvRNSt3__113basic_ostreamIcNS4_11char_traitsIcEEEEEEvRKT_PS8_
FNDA:0,_ZN7testing8internal52internal_stream_operator_without_lexical_name_lookup13StreamPrinter10PrintValueIyvRNSt3__113basic_ostreamIcNS4_11char_traitsIcEEEEEEvRKT_PS8_
FN:213,_ZN7testing8internal52internal_stream_operator_without_lexical_name_lookup13StreamPrinter10PrintValueIdvRNSt3__113basic_ostreamIcNS4_11char_traitsIcEEEEEEvRKT_PS8_
FNDA:0,_ZN7testing8internal52internal_stream_operator_without_lexical_name_lookup13StreamPrinter10PrintValueIdvRNSt3__113basic_ostreamIcNS4_11char_traitsIcEEEEEEvRKT_PS8_
FN:305,_ZN7testing8internal17PrintWithFallbackIiEEvRKT_PNSt3__113basic_ostreamIcNS5_11char_traitsIcEEEE
FNDA:0,_ZN7testing8internal17PrintWithFallbackIiEEvRKT_PNSt3__113basic_ostreamIcNS5_11char_traitsIcEEEE
FN:305,_ZN7testing8internal17PrintWithFallbackIyEEvRKT_PNSt3__113basic_ostreamIcNS5_11char_traitsIcEEEE
FNDA:0,_ZN7testing8internal17PrintWithFallbackIyEEvRKT_PNSt3__113basic_ostreamIcNS5_11char_traitsIcEEEE
FN:305,_ZN7testing8internal17PrintWithFallbackIdEEvRKT_PNSt3__113basic_ostreamIcNS5_11char_traitsIcEEEE
FNDA:0,_ZN7testing8internal17PrintWithFallbackIdEEvRKT_PNSt3__113basic_ostreamIcNS5_11char_traitsIcEEEE
FN:332,_ZN7testing8internal19FormatForComparisonIihE6FormatERKi
FNDA:0,_ZN7testing8internal19FormatForComparisonIihE6FormatERKi
FN:332,_ZN7testing8internal19FormatForComparisonIhiE6FormatERKh
FNDA:0,_ZN7testing8internal19FormatForComparisonIhiE6FormatERKh
FN:332,_ZN7testing8internal19FormatForComparisonIhyE6FormatERKh
FNDA:0,_ZN7testing8internal19FormatForComparisonIhyE6FormatERKh
FN:332,_ZN7testing8internal19FormatForComparisonIyhE6FormatERKy
FNDA:0,_ZN7testing8internal19FormatForComparisonIyhE6FormatERKy
FN:332,_ZN7testing8internal19FormatForComparisonIiyE6FormatERKi
FNDA:0,_ZN7testing8internal19FormatForComparisonIiyE6FormatERKi
FN:332,_ZN7testing8internal19FormatForComparisonIyiE6FormatERKy
FNDA:0,_ZN7testing8internal19FormatForComparisonIyiE6FormatERKy
FN:332,_ZN7testing8internal19FormatForComparisonIddE6FormatERKd
FNDA:0,_ZN7testing8internal19FormatForComparisonIddE6FormatERKd
FN:412,_ZN7testing8internal33FormatForComparisonFailureMessageIihEENSt3__112basic_stringIcNS2_11char_traitsIcEENS2_9allocatorIcEEEERKT_RKT0_
FNDA:0,_ZN7testing8internal33FormatForComparisonFailureMessageIihEENSt3__112basic_stringIcNS2_11char_traitsIcEENS2_9allocatorIcEEEERKT_RKT0_
FN:412,_ZN7testing8internal33FormatForComparisonFailureMessageIhiEENSt3__112basic_stringIcNS2_11char_traitsIcEENS2_9allocatorIcEEEERKT_RKT0_
FNDA:0,_ZN7testing8internal33FormatForComparisonFailureMessageIhiEENSt3__112basic_stringIcNS2_11char_traitsIcEENS2_9allocatorIcEEEERKT_RKT0_
FN:412,_ZN7testing8internal33FormatForComparisonFailureMessageIhyEENSt3__112basic_stringIcNS2_11char_traitsIcEENS2_9allocatorIcEEEERKT_RKT0_
FNDA:0,_ZN7testing8internal33FormatForComparisonFailureMessageIhyEENSt3__112basic_stringIcNS2_11char_traitsIcEENS2_9allocatorIcEEEERKT_RKT0_
FN:412,_ZN7testing8internal33FormatForComparisonFailureMessageIyhEENSt3__112basic_stringIcNS2_11char_traitsIcEENS2_9allocatorIcEEEERKT_RKT0_
FNDA:0,_ZN7testing8internal33FormatForComparisonFailureMessageIyhEENSt3__112basic_stringIcNS2_11char_traitsIcEENS2_9allocatorIcEEEERKT_RKT0_
FN:412,_ZN7testing8internal33FormatForComparisonFailureMessageIiyEENSt3__112basic_stringIcNS2_11char_traitsIcEENS2_9allocatorIcEEEERKT_RKT0_
FNDA:0,_ZN7testing8internal33FormatForComparisonFailureMessageIiyEENSt3__112basic_stringIcNS2_11char_traitsIcEENS2_9allocatorIcEEEERKT_RKT0_
FN:412,_ZN7testing8internal33FormatForComparisonFailureMessageIyiEENSt3__112basic_stringIcNS2_11char_traitsIcEENS2_9allocatorIcEEEERKT_RKT0_
FNDA:0,_ZN7testing8internal33FormatForComparisonFailureMessageIyiEENSt3__112basic_stringIcNS2_11char_traitsIcEENS2_9allocatorIcEEEERKT_RKT0_
FN:412,_ZN7testing8internal33FormatForComparisonFailureMessageIddEENSt3__112basic_stringIcNS2_11char_traitsIcEENS2_9allocatorIcEEEERKT_RKT0_
FNDA:0,_ZN7testing8internal33FormatForComparisonFailureMessageIddEENSt3__112basic_stringIcNS2_11char_traitsIcEENS2_9allocatorIcEEEERKT_RKT0_
FN:439,_ZN7testing8internal7PrintToIiEEvRKT_PNSt3__113basic_ostreamIcNS5_11char_traitsIcEEEE
FNDA:0,_ZN7testing8internal7PrintToIiEEvRKT_PNSt3__113basic_ostreamIcNS5_11char_traitsIcEEEE
FN:439,_ZN7testing8internal7PrintToIyEEvRKT_PNSt3__113basic_ostreamIcNS5_11char_traitsIcEEEE
FNDA:0,_ZN7testing8internal7PrintToIyEEvRKT_PNSt3__113basic_ostreamIcNS5_11char_traitsIcEEEE
FN:439,_ZN7testing8internal7PrintToIdEEvRKT_PNSt3__113basic_ostreamIcNS5_11char_traitsIcEEEE
FNDA:0,_ZN7testing8internal7PrintToIdEEvRKT_PNSt3__113basic_ostreamIcNS5_11char_traitsIcEEEE
FN:693,_ZN7testing8internal16UniversalPrinterIiE5PrintERKiPNSt3__113basic_ostreamIcNS5_11char_traitsIcEEEE
FNDA:0,_ZN7testing8internal16UniversalPrinterIiE5PrintERKiPNSt3__113basic_ostreamIcNS5_11char_traitsIcEEEE
FN:693,_ZN7testing8internal16UniversalPrinterIhE5PrintERKhPNSt3__113basic_ostreamIcNS5_11char_traitsIcEEEE
FNDA:0,_ZN7testing8internal16UniversalPrinterIhE5PrintERKhPNSt3__113basic_ostreamIcNS5_11char_traitsIcEEEE
FN:693,_ZN7testing8internal16UniversalPrinterIyE5PrintERKyPNSt3__113basic_ostreamIcNS5_11char_traitsIcEEEE
FNDA:0,_ZN7testing8internal16UniversalPrinterIyE5PrintERKyPNSt3__113basic_ostreamIcNS5_11char_traitsIcEEEE
FN:693,_ZN7testing8internal16UniversalPrinterIdE5PrintERKdPNSt3__113basic_ostreamIcNS5_11char_traitsIcEEEE
FNDA:0,_ZN7testing8internal16UniversalPrinterIdE5PrintERKdPNSt3__113basic_ostreamIcNS5_11char_traitsIcEEEE
FN:883,_ZN7testing8internal21UniversalTersePrinterIiE5PrintERKiPNSt3__113basic_ostreamIcNS5_11char_traitsIcEEEE
FNDA:0,_ZN7testing8internal21UniversalTersePrinterIiE5PrintERKiPNSt3__113basic_ostreamIcNS5_11char_traitsIcEEEE
FN:883,_ZN7testing8internal21UniversalTersePrinterIhE5PrintERKhPNSt3__113basic_ostreamIcNS5_11char_traitsIcEEEE
FNDA:0,_ZN7testing8internal21UniversalTersePrinterIhE5PrintERKhPNSt3__113basic_ostreamIcNS5_11char_traitsIcEEEE
FN:883,_ZN7testing8internal21UniversalTersePrinterIyE5PrintERKyPNSt3__113basic_ostreamIcNS5_11char_traitsIcEEEE
FNDA:0,_ZN7testing8internal21UniversalTersePrinterIyE5PrintERKyPNSt3__113basic_ostreamIcNS5_11char_traitsIcEEEE
FN:883,_ZN7testing8internal21UniversalTersePrinterIdE5PrintERKdPNSt3__113basic_ostreamIcNS5_11char_traitsIcEEEE
FNDA:0,_ZN7testing8internal21UniversalTersePrinterIdE5PrintERKdPNSt3__113basic_ostreamIcNS5_11char_traitsIcEEEE
FN:995,_ZN7testing8internal14UniversalPrintIiEEvRKT_PNSt3__113basic_ostreamIcNS5_11char_traitsIcEEEE
FNDA:0,_ZN7testing8internal14UniversalPrintIiEEvRKT_PNSt3__113basic_ostreamIcNS5_11char_traitsIcEEEE
FN:995,_ZN7testing8internal14UniversalPrintIhEEvRKT_PNSt3__113basic_ostreamIcNS5_11char_traitsIcEEEE
FNDA:0,_ZN7testing8internal14UniversalPrintIhEEvRKT_PNSt3__113basic_ostreamIcNS5_11char_traitsIcEEEE
FN:995,_ZN7testing8internal14UniversalPrintIyEEvRKT_PNSt3__113basic_ostreamIcNS5_11char_traitsIcEEEE
FNDA:0,_ZN7testing8internal14UniversalPrintIyEEvRKT_PNSt3__113basic_ostreamIcNS5_11char_traitsIcEEEE
FN:995,_ZN7testing8internal14UniversalPrintIdEEvRKT_PNSt3__113basic_ostreamIcNS5_11char_traitsIcEEEE
FNDA:0,_ZN7testing8internal14UniversalPrintIdEEvRKT_PNSt3__113basic_ostreamIcNS5_11char_traitsIcEEEE
FN:1035,_ZN7testing13PrintToStringIiEENSt3__112basic_stringIcNS1_11char_traitsIcEENS1_9allocatorIcEEEERKT_
FNDA:0,_ZN7testing13PrintToStringIiEENSt3__112basic_stringIcNS1_11char_traitsIcEENS1_9allocatorIcEEEERKT_
FN:1035,_ZN7testing13PrintToStringIhEENSt3__112basic_stringIcNS1_11char_traitsIcEENS1_9allocatorIcEEEERKT_
FNDA:0,_ZN7testing13PrintToStringIhEENSt3__112basic_stringIcNS1_11char_traitsIcEENS1_9allocatorIcEEEERKT_
FN:1035,_ZN7testing13PrintToStringIyEENSt3__112basic_stringIcNS1_11char_traitsIcEENS1_9allocatorIcEEEERKT_
FNDA:0,_ZN7testing13PrintToStringIyEENSt3__112basic_stringIcNS1_11char_traitsIcEENS1_9allocatorIcEEEERKT_
FN:1035,_ZN7testing13PrintToStringIdEENSt3__112basic_stringIcNS1_11char_traitsIcEENS1_9allocatorIcEEEERKT_
FNDA:0,_ZN7testing13PrintToStringIdEENSt3__112basic_stringIcNS1_11char_traitsIcEENS1_9allocatorIcEEEERKT_
DA:213,0
DA:216,0
DA:217,0
DA:305,0
DA:311,0
DA:312,0
DA:332,0
DA:333,0
DA:412,0
DA:414,0
DA:439,0
DA:440,0
DA:441,0
DA:693,0
DA:702,0
DA:703,0
DA:883,0
DA:884,0
DA:885,0
DA:995,0
DA:999,0
DA:1000,0
DA:1035,0
DA:1036,0
DA:1037,0
DA:1038,0
DA:1039,0
FNF:39
FNH:0
LF:27
LH:0
end_of_record
SF:/Users/dogukanarat/Workspace/DevelopmentTestSystem/Binaries/Debug/Intermediate/_deps/googletest-src/googletest/include/gtest/gtest-message.h
FN:92,_ZN7testing7MessageD1Ev
FNDA:0,_ZN7testing7MessageD1Ev
FN:92,_ZN7testing7MessageD2Ev
FNDA:0,_ZN7testing7MessageD2Ev
FNF:2
FNH:0
LF:0
LH:0
end_of_record
SF:/Library/Developer/CommandLineTools/SDKs/MacOSX12.3.sdk/usr/include/c++/v1/__iterator/ostreambuf_iterator.h
FN:53,_ZNSt3__119ostreambuf_iteratorIcNS_11char_traitsIcEEEC1ERNS_13basic_ostreamIcS2_EE
FNDA:0,_ZNSt3__119ostreambuf_iteratorIcNS_11char_traitsIcEEEC1ERNS_13basic_ostreamIcS2_EE
FN:53,_ZNSt3__119ostreambuf_iteratorIcNS_11char_traitsIcEEEC2ERNS_13basic_ostreamIcS2_EE
FNDA:0,_ZNSt3__119ostreambuf_iteratorIcNS_11char_traitsIcEEEC2ERNS_13basic_ostreamIcS2_EE
FN:66,_ZNKSt3__119ostreambuf_iteratorIcNS_11char_traitsIcEEE6failedEv
FNDA:0,_ZNKSt3__119ostreambuf_iteratorIcNS_11char_traitsIcEEE6failedEv
DA:53,0
DA:54,0
DA:66,0
FNF:3
FNH:0
LF:3
LH:0
end_of_record
TN:
SF:/Library/Developer/CommandLineTools/SDKs/MacOSX12.3.sdk/usr/include/c++/v1/ostream
FN:234,_ZNSt3__113basic_ostreamIcNS_11char_traitsIcEEEC2Ev
FNDA:0,_ZNSt3__113basic_ostreamIcNS_11char_traitsIcEEEC2Ev
FN:251,_ZNKSt3__113basic_ostreamIcNS_11char_traitsIcEEE6sentrycvbEv
FNDA:0,_ZNKSt3__113basic_ostreamIcNS_11char_traitsIcEEE6sentrycvbEv
FN:707,_ZNSt3__124__put_character_sequenceIcNS_11char_traitsIcEEEERNS_13basic_ostreamIT_T0_EES7_PKS4_m
FNDA:0,_ZNSt3__124__put_character_sequenceIcNS_11char_traitsIcEEEERNS_13basic_ostreamIT_T0_EES7_PKS4_m
FN:855,_ZNSt3__1lsINS_11char_traitsIcEEEERNS_13basic_ostreamIcT_EES6_PKc
FNDA:0,_ZNSt3__1lsINS_11char_traitsIcEEEERNS_13basic_ostreamIcT_EES6_PKc
DA:234,0
DA:251,0
DA:707,0
DA:714,0
DA:715,0
DA:718,0
DA:719,0
DA:720,0
DA:721,0
DA:722,0
DA:723,0
DA:724,0
DA:725,0
DA:726,0
DA:727,0
DA:729,0
DA:732,0
DA:733,0
DA:735,0
DA:736,0
DA:855,0
DA:857,0
FNF:4
FNH:0
LF:22
LH:0
end_of_record
SF:/Library/Developer/CommandLineTools/SDKs/MacOSX12.3.sdk/usr/include/c++/v1/__utility/forward.h
FN:27,_ZNSt3__1L7forwardINS_18__default_init_tagEEEOT_RNS_16remove_referenceIS2_E4typeE
FNDA:900,_ZNSt3__1L7forwardINS_18__default_init_tagEEEOT_RNS_16remove_referenceIS2_E4typeE
DA:27,900
DA:28,900
FNF:1
FNH:1
LF:2
LH:2
end_of_record
SF:/Users/dogukanarat/Workspace/DevelopmentTestSystem/Binaries/Debug/Intermediate/_deps/googletest-src/googletest/include/gtest/gtest.h
FN:244,_ZN7testing4Test14SetUpTestSuiteEv
FNDA:0,_ZN7testing4Test14SetUpTestSuiteEv
FN:252,_ZN7testing4Test17TearDownTestSuiteEv
FNDA:0,_ZN7testing4Test17TearDownTestSuiteEv
FN:257,_ZN7testing4Test16TearDownTestCaseEv
FNDA:0,_ZN7testing4Test16TearDownTestCaseEv
FN:258,_ZN7testing4Test13SetUpTestCaseEv
FNDA:0,_ZN7testing4Test13SetUpTestCaseEv
FN:339,_ZN7testing4Test5SetupEv
FNDA:0,_ZN7testing4Test5SetupEv
FN:1338,_ZN7testing8internal18CmpHelperEQFailureIihEENS_15AssertionResultEPKcS4_RKT_RKT0_
FNDA:0,_ZN7testing8internal18CmpHelperEQFailureIihEENS_15AssertionResultEPKcS4_RKT_RKT0_
FN:1338,_ZN7testing8internal18CmpHelperEQFailureIPhS2_EENS_15AssertionResultEPKcS5_RKT_RKT0_
FNDA:0,_ZN7testing8internal18CmpHelperEQFailureIPhS2_EENS_15AssertionResultEPKcS5_RKT_RKT0_
FN:1338,_ZN7testing8internal18CmpHelperEQFailureIijEENS_15AssertionResultEPKcS4_RKT_RKT0_
FNDA:0,_ZN7testing8internal18CmpHelperEQFailureIijEENS_15AssertionResultEPKcS4_RKT_RKT0_
FN:1338,_ZN7testing8internal18CmpHelperEQFailureIA10_hPhEENS_15AssertionResultEPKcS6_RKT_RKT0_
FNDA:0,_ZN7testing8internal18CmpHelperEQFailureIA10_hPhEENS_15AssertionResultEPKcS6_RKT_RKT0_
FN:1355,_ZN7testing8internal11CmpHelperEQIihEENS_15AssertionResultEPKcS4_RKT_RKT0_
FNDA:0,_ZN7testing8internal11CmpHelperEQIihEENS_15AssertionResultEPKcS4_RKT_RKT0_
FN:1355,_ZN7testing8internal11CmpHelperEQIPhS2_EENS_15AssertionResultEPKcS5_RKT_RKT0_
FNDA:3,_ZN7testing8internal11CmpHelperEQIPhS2_EENS_15AssertionResultEPKcS5_RKT_RKT0_
FN:1355,_ZN7testing8internal11CmpHelperEQIijEENS_15AssertionResultEPKcS4_RKT_RKT0_
FNDA:75,_ZN7testing8internal11CmpHelperEQIijEENS_15AssertionResultEPKcS4_RKT_RKT0_
FN:1355,_ZN7testing8internal11CmpHelperEQIA10_hPhEENS_15AssertionResultEPKcS6_RKT_RKT0_
FNDA:12,_ZN7testing8internal11CmpHelperEQIA10_hPhEENS_15AssertionResultEPKcS6_RKT_RKT0_
FN:1374,_ZN7testing8internal8EqHelper7CompareIihLPv0EEENS_15AssertionResultEPKcS6_RKT_RKT0_
FNDA:0,_ZN7testing8internal8EqHelper7CompareIihLPv0EEENS_15AssertionResultEPKcS6_RKT_RKT0_
FN:1374,_ZN7testing8internal8EqHelper7CompareIijLPv0EEENS_15AssertionResultEPKcS6_RKT_RKT0_
FNDA:75,_ZN7testing8internal8EqHelper7CompareIijLPv0EEENS_15AssertionResultEPKcS6_RKT_RKT0_
FN:1374,_ZN7testing8internal8EqHelper7CompareIA10_hPhLPv0EEENS_15AssertionResultEPKcS8_RKT_RKT0_
FNDA:12,_ZN7testing8internal8EqHelper7CompareIA10_hPhLPv0EEENS_15AssertionResultEPKcS8_RKT_RKT0_
FN:1393,_ZN7testing8internal8EqHelper7CompareIhEENS_15AssertionResultEPKcS5_DnPT_
FNDA:3,_ZN7testing8internal8EqHelper7CompareIhEENS_15AssertionResultEPKcS5_DnPT_
DA:244,0
DA:252,0
DA:257,0
DA:258,0
DA:339,0
DA:1338,0
DA:1341,0
DA:1342,0
DA:1343,0
DA:1344,0
DA:1355,90
DA:1358,90
DA:1359,90
DA:1362,0
DA:1363,90
DA:1374,87
DA:1377,87
DA:1393,3
DA:1398,3
FNF:17
FNH:6
LF:19
LH:8
end_of_record
SF:/Library/Developer/CommandLineTools/SDKs/MacOSX12.3.sdk/usr/include/c++/v1/__memory/unique_ptr.h
FN:52,_ZNKSt3__114default_deleteINS_18basic_stringstreamIcNS_11char_traitsIcEENS_9allocatorIcEEEEEclEPS6_
FNDA:0,_ZNKSt3__114default_deleteINS_18basic_stringstreamIcNS_11char_traitsIcEENS_9allocatorIcEEEEEclEPS6_
FN:52,_ZNKSt3__114default_deleteINS_12basic_stringIcNS_11char_traitsIcEENS_9allocatorIcEEEEEclEPS6_
FNDA:0,_ZNKSt3__114default_deleteINS_12basic_stringIcNS_11char_traitsIcEENS_9allocatorIcEEEEEclEPS6_
FN:272,_ZNSt3__110unique_ptrINS_18basic_stringstreamIcNS_11char_traitsIcEENS_9allocatorIcEEEENS_14default_deleteIS6_EEED1Ev
FNDA:0,_ZNSt3__110unique_ptrINS_18basic_stringstreamIcNS_11char_traitsIcEENS_9allocatorIcEEEENS_14default_deleteIS6_EEED1Ev
FN:272,_ZNSt3__110unique_ptrINS_18basic_stringstreamIcNS_11char_traitsIcEENS_9allocatorIcEEEENS_14default_deleteIS6_EEED2Ev
FNDA:0,_ZNSt3__110unique_ptrINS_18basic_stringstreamIcNS_11char_traitsIcEENS_9allocatorIcEEEENS_14default_deleteIS6_EEED2Ev
FN:272,_ZNSt3__110unique_ptrINS_12basic_stringIcNS_11char_traitsIcEENS_9allocatorIcEEEENS_14default_deleteIS6_EEED1Ev
FNDA:0,_ZNSt3__110unique_ptrINS_12basic_stringIcNS_11char_traitsIcEENS_9allocatorIcEEEENS_14default_deleteIS6_EEED1Ev
FN:272,_ZNSt3__110unique_ptrINS_12basic_stringIcNS_11char_traitsIcEENS_9allocatorIcEEEENS_14default_deleteIS6_EEED2Ev
FNDA:0,_ZNSt3__110unique_ptrINS_12basic_stringIcNS_11char_traitsIcEENS_9allocatorIcEEEENS_14default_deleteIS6_EEED2Ev
FN:286,_ZNKSt3__110unique_ptrINS_12basic_stringIcNS_11char_traitsIcEENS_9allocatorIcEEEENS_14default_deleteIS6_EEEptEv
FNDA:0,_ZNKSt3__110unique_ptrINS_12basic_stringIcNS_11char_traitsIcEENS_9allocatorIcEEEENS_14default_deleteIS6_EEEptEv
FN:290,_ZNKSt3__110unique_ptrINS_12basic_stringIcNS_11char_traitsIcEENS_9allocatorIcEEEENS_14default_deleteIS6_EEE3getEv
FNDA:0,_ZNKSt3__110unique_ptrINS_12basic_stringIcNS_11char_traitsIcEENS_9allocatorIcEEEENS_14default_deleteIS6_EEE3getEv
FN:314,_ZNSt3__110unique_ptrINS_18basic_stringstreamIcNS_11char_traitsIcEENS_9allocatorIcEEEENS_14default_deleteIS6_EEE5resetEPS6_
FNDA:0,_ZNSt3__110unique_ptrINS_18basic_stringstreamIcNS_11char_traitsIcEENS_9allocatorIcEEEENS_14default_deleteIS6_EEE5resetEPS6_
FN:314,_ZNSt3__110unique_ptrINS_12basic_stringIcNS_11char_traitsIcEENS_9allocatorIcEEEENS_14default_deleteIS6_EEE5resetEPS6_
FNDA:0,_ZNSt3__110unique_ptrINS_12basic_stringIcNS_11char_traitsIcEENS_9allocatorIcEEEENS_14default_deleteIS6_EEE5resetEPS6_
DA:52,0
DA:57,0
DA:58,0
DA:272,0
DA:286,0
DA:287,0
DA:290,0
DA:291,0
DA:314,0
DA:315,0
DA:316,0
DA:317,0
DA:318,0
DA:319,0
FNF:10
FNH:0
LF:14
LH:0
end_of_record
SF:/Library/Developer/CommandLineTools/SDKs/MacOSX12.3.sdk/usr/include/c++/v1/__locale
FN:252,_ZNSt3__1L9use_facetINS_5ctypeIcEEEERKT_RKNS_6localeE
FNDA:0,_ZNSt3__1L9use_facetINS_5ctypeIcEEEERKT_RKNS_6localeE
FN:697,_ZNKSt3__15ctypeIcE5widenEc
FNDA:0,_ZNKSt3__15ctypeIcE5widenEc
DA:252,0
DA:254,0
DA:697,0
DA:699,0
FNF:2
FNH:0
LF:4
LH:0
end_of_record
SF:/Users/dogukanarat/Workspace/DevelopmentTestSystem/Binaries/Debug/Intermediate/_deps/googletest-src/googletest/include/gtest/internal/gtest-internal.h
FN:450,_ZN7testing8internal15TestFactoryBaseD1Ev
FNDA:0,_ZN7testing8internal15TestFactoryBaseD1Ev
FN:450,_ZN7testing8internal15TestFactoryBaseD0Ev
FNDA:0,_ZN7testing8internal15TestFactoryBaseD0Ev
FN:450,_ZN7testing8internal15TestFactoryBaseD2Ev
FNDA:0,_ZN7testing8internal15TestFactoryBaseD2Ev
FN:457,_ZN7testing8internal15TestFactoryBaseC2Ev
FNDA:0,_ZN7testing8internal15TestFactoryBaseC2Ev
FN:467,_ZN7testing8internal15TestFactoryImplI54DtsCircularBufferTest_dtsCircularBufferInitialize_TestEC1Ev
FNDA:90,_ZN7testing8internal15TestFactoryImplI54DtsCircularBufferTest_dtsCircularBufferInitialize_TestEC1Ev
FN:467,_ZN7testing8internal15TestFactoryImplI53DtsCircularBufferTest_dtsCircularBufferSetBuffer_TestEC1Ev
FNDA:90,_ZN7testing8internal15TestFactoryImplI53DtsCircularBufferTest_dtsCircularBufferSetBuffer_TestEC1Ev
FN:467,_ZN7testing8internal15TestFactoryImplI49DtsCircularBufferTest_dtsCircularBufferClear_TestEC1Ev
FNDA:90,_ZN7testing8internal15TestFactoryImplI49DtsCircularBufferTest_dtsCircularBufferClear_TestEC1Ev
FN:467,_ZN7testing8internal15TestFactoryImplI48DtsCircularBufferTest_dtsCircularBufferPush_TestEC1Ev
FNDA:90,_ZN7testing8internal15TestFactoryImplI48DtsCircularBufferTest_dtsCircularBufferPush_TestEC1Ev
FN:467,_ZN7testing8internal15TestFactoryImplI47DtsCircularBufferTest_dtsCircularBufferPop_TestEC1Ev
FNDA:90,_ZN7testing8internal15TestFactoryImplI47DtsCircularBufferTest_dtsCircularBufferPop_TestEC1Ev
FN:467,_ZN7testing8internal15TestFactoryImplI54DtsCircularBufferTest_dtsCircularBufferInitialize_TestEC2Ev
FNDA:90,_ZN7testing8internal15TestFactoryImplI54DtsCircularBufferTest_dtsCircularBufferInitialize_TestEC2Ev
FN:467,_ZN7testing8internal15TestFactoryImplI54DtsCircularBufferTest_dtsCircularBufferInitialize_TestED1Ev
FNDA:0,_ZN7testing8internal15TestFactoryImplI54DtsCircularBufferTest_dtsCircularBufferInitialize_TestED1Ev
FN:467,_ZN7testing8internal15TestFactoryImplI54DtsCircularBufferTest_dtsCircularBufferInitialize_TestED0Ev
FNDA:0,_ZN7testing8internal15TestFactoryImplI54DtsCircularBufferTest_dtsCircularBufferInitialize_TestED0Ev
FN:467,_ZN7testing8internal15TestFactoryImplI54DtsCircularBufferTest_dtsCircularBufferInitialize_TestED2Ev
FNDA:0,_ZN7testing8internal15TestFactoryImplI54DtsCircularBufferTest_dtsCircularBufferInitialize_TestED2Ev
FN:467,_ZN7testing8internal15TestFactoryImplI53DtsCircularBufferTest_dtsCircularBufferSetBuffer_TestEC2Ev
FNDA:90,_ZN7testing8internal15TestFactoryImplI53DtsCircularBufferTest_dtsCircularBufferSetBuffer_TestEC2Ev
FN:467,_ZN7testing8internal15TestFactoryImplI53DtsCircularBufferTest_dtsCircularBufferSetBuffer_TestED1Ev
FNDA:0,_ZN7testing8internal15TestFactoryImplI53DtsCircularBufferTest_dtsCircularBufferSetBuffer_TestED1Ev
FN:467,_ZN7testing8internal15TestFactoryImplI53DtsCircularBufferTest_dtsCircularBufferSetBuffer_TestED0Ev
FNDA:0,_ZN7testing8internal15TestFactoryImplI53DtsCircularBufferTest_dtsCircularBufferSetBuffer_TestED0Ev
FN:467,_ZN7testing8internal15TestFactoryImplI53DtsCircularBufferTest_dtsCircularBufferSetBuffer_TestED2Ev
FNDA:0,_ZN7testing8internal15TestFactoryImplI53DtsCircularBufferTest_dtsCircularBufferSetBuffer_TestED2Ev
FN:467,_ZN7testing8internal15TestFactoryImplI49DtsCircularBufferTest_dtsCircularBufferClear_TestEC2Ev
FNDA:90,_ZN7testing8internal15TestFactoryImplI49DtsCircularBufferTest_dtsCircularBufferClear_TestEC2Ev
FN:467,_ZN7testing8internal15TestFactoryImplI49DtsCircularBufferTest_dtsCircularBufferClear_TestED1Ev
FNDA:0,_ZN7testing8internal15TestFactoryImplI49DtsCircularBufferTest_dtsCircularBufferClear_TestED1Ev
FN:467,_ZN7testing8internal15TestFactoryImplI49DtsCircularBufferTest_dtsCircularBufferClear_TestED0Ev
FNDA:0,_ZN7testing8internal15TestFactoryImplI49DtsCircularBufferTest_dtsCircularBufferClear_TestED0Ev
FN:467,_ZN7testing8internal15TestFactoryImplI49DtsCircularBufferTest_dtsCircularBufferClear_TestED2Ev
FNDA:0,_ZN7testing8internal15TestFactoryImplI49DtsCircularBufferTest_dtsCircularBufferClear_TestED2Ev
FN:467,_ZN7testing8internal15TestFactoryImplI48DtsCircularBufferTest_dtsCircularBufferPush_TestEC2Ev
FNDA:90,_ZN7testing8internal15TestFactoryImplI48DtsCircularBufferTest_dtsCircularBufferPush_TestEC2Ev
FN:467,_ZN7testing8internal15TestFactoryImplI48DtsCircularBufferTest_dtsCircularBufferPush_TestED1Ev
FNDA:0,_ZN7testing8internal15TestFactoryImplI48DtsCircularBufferTest_dtsCircularBufferPush_TestED1Ev
FN:467,_ZN7testing8internal15TestFactoryImplI48DtsCircularBufferTest_dtsCircularBufferPush_TestED0Ev
FNDA:0,_ZN7testing8internal15TestFactoryImplI48DtsCircularBufferTest_dtsCircularBufferPush_TestED0Ev
FN:467,_ZN7testing8internal15TestFactoryImplI48DtsCircularBufferTest_dtsCircularBufferPush_TestED2Ev
FNDA:0,_ZN7testing8internal15TestFactoryImplI48DtsCircularBufferTest_dtsCircularBufferPush_TestED2Ev
FN:467,_ZN7testing8internal15TestFactoryImplI47DtsCircularBufferTest_dtsCircularBufferPop_TestEC2Ev
FNDA:90,_ZN7testing8internal15TestFactoryImplI47DtsCircularBufferTest_dtsCircularBufferPop_TestEC2Ev
FN:467,_ZN7testing8internal15TestFactoryImplI47DtsCircularBufferTest_dtsCircularBufferPop_TestED1Ev
FNDA:0,_ZN7testing8internal15TestFactoryImplI47DtsCircularBufferTest_dtsCircularBufferPop_TestED1Ev
FN:467,_ZN7testing8internal15TestFactoryImplI47DtsCircularBufferTest_dtsCircularBufferPop_TestED0Ev
FNDA:0,_ZN7testing8internal15TestFactoryImplI47DtsCircularBufferTest_dtsCircularBufferPop_TestED0Ev
FN:467,_ZN7testing8internal15TestFactoryImplI47DtsCircularBufferTest_dtsCircularBufferPop_TestED2Ev
FNDA:0,_ZN7testing8internal15TestFactoryImplI47DtsCircularBufferTest_dtsCircularBufferPop_TestED2Ev
FN:469,_ZN7testing8internal15TestFactoryImplI54DtsCircularBufferTest_dtsCircularBufferInitialize_TestE10CreateTestEv
FNDA:3,_ZN7testing8internal15TestFactoryImplI54DtsCircularBufferTest_dtsCircularBufferInitialize_TestE10CreateTestEv
FN:469,_ZN7testing8internal15TestFactoryImplI53DtsCircularBufferTest_dtsCircularBufferSetBuffer_TestE10CreateTestEv
FNDA:3,_ZN7testing8internal15TestFactoryImplI53DtsCircularBufferTest_dtsCircularBufferSetBuffer_TestE10CreateTestEv
FN:469,_ZN7testing8internal15TestFactoryImplI49DtsCircularBufferTest_dtsCircularBufferClear_TestE10CreateTestEv
FNDA:3,_ZN7testing8internal15TestFactoryImplI49DtsCircularBufferTest_dtsCircularBufferClear_TestE10CreateTestEv
FN:469,_ZN7testing8internal15TestFactoryImplI48DtsCircularBufferTest_dtsCircularBufferPush_TestE10CreateTestEv
FNDA:3,_ZN7testing8internal15TestFactoryImplI48DtsCircularBufferTest_dtsCircularBufferPush_TestE10CreateTestEv
FN:469,_ZN7testing8internal15TestFactoryImplI47DtsCircularBufferTest_dtsCircularBufferPop_TestE10CreateTestEv
FNDA:3,_ZN7testing8internal15TestFactoryImplI47DtsCircularBufferTest_dtsCircularBufferPop_TestE10CreateTestEv
FN:489,_ZN7testing8internal12CodeLocationD1Ev
FNDA:0,_ZN7testing8internal12CodeLocationD1Ev
FN:489,_ZN7testing8internal12CodeLocationD2Ev
FNDA:0,_ZN7testing8internal12CodeLocationD2Ev
FN:490,_ZN7testing8internal12CodeLocationC1ERKNSt3__112basic_stringIcNS2_11char_traitsIcEENS2_9allocatorIcEEEEi
FNDA:0,_ZN7testing8internal12CodeLocationC1ERKNSt3__112basic_stringIcNS2_11char_traitsIcEENS2_9allocatorIcEEEEi
FN:490,_ZN7testing8internal12CodeLocationC2ERKNSt3__112basic_stringIcNS2_11char_traitsIcEENS2_9allocatorIcEEEEi
FNDA:0,_ZN7testing8internal12CodeLocationC2ERKNSt3__112basic_stringIcNS2_11char_traitsIcEENS2_9allocatorIcEEEEi
FN:503,_ZN7testing8internal19GetNotDefaultOrNullEPFvvES2_
FNDA:0,_ZN7testing8internal19GetNotDefaultOrNullEPFvvES2_
FN:518,_ZN7testing8internal16SuiteApiResolverINS_4TestEE19GetSetUpCaseOrSuiteEPKci
FNDA:0,_ZN7testing8internal16SuiteApiResolverINS_4TestEE19GetSetUpCaseOrSuiteEPKci
FN:539,_ZN7testing8internal16SuiteApiResolverINS_4TestEE22GetTearDownCaseOrSuiteEPKci
FNDA:0,_ZN7testing8internal16SuiteApiResolverINS_4TestEE22GetTearDownCaseOrSuiteEPKci
DA:450,0
DA:457,0
DA:469,15
DA:490,0
DA:491,0
DA:503,0
DA:505,0
DA:518,0
DA:521,0
DA:522,0
DA:523,0
DA:524,0
DA:526,0
DA:527,0
DA:529,0
DA:531,0
DA:537,0
DA:539,0
DA:542,0
DA:543,0
DA:544,0
DA:545,0
DA:547,0
DA:548,0
DA:550,0
DA:552,0
DA:558,0
FNF:41
FNH:15
LF:27
LH:1
end_of_record
SF:/Library/Developer/CommandLineTools/SDKs/MacOSX12.3.sdk/usr/include/c++/v1/streambuf
FN:228,_ZNSt3__115basic_streambufIcNS_11char_traitsIcEEE5sputnEPKcl
FNDA:0,_ZNSt3__115basic_streambufIcNS_11char_traitsIcEEE5sputnEPKcl
DA:228,0
DA:229,0
FNF:1
FNH:0
LF:2
LH:0
end_of_record
SF:/Library/Developer/CommandLineTools/SDKs/MacOSX12.3.sdk/usr/include/c++/v1/__string
FN:342,_ZNSt3__111char_traitsIcE6lengthEPKc
FNDA:0,_ZNSt3__111char_traitsIcE6lengthEPKc
FN:374,_ZNSt3__111char_traitsIcE11eq_int_typeEii
FNDA:0,_ZNSt3__111char_traitsIcE11eq_int_typeEii
FN:376,_ZNSt3__111char_traitsIcE3eofEv
FNDA:0,_ZNSt3__111char_traitsIcE3eofEv
DA:342,0
DA:374,0
DA:375,0
DA:376,0
DA:377,0
FNF:3
FNH:0
LF:5
LH:0
end_of_record
SF:/Library/Developer/CommandLineTools/SDKs/MacOSX12.3.sdk/usr/include/c++/v1/__memory/pointer_traits.h
FN:152,_ZNSt3__114pointer_traitsIPKcE10pointer_toERS1_
FNDA:0,_ZNSt3__114pointer_traitsIPKcE10pointer_toERS1_
FN:173,_ZNSt3__1L12__to_addressIKcEEPT_S3_
FNDA:0,_ZNSt3__1L12__to_addressIKcEEPT_S3_
DA:152,0
DA:154,0
DA:173,0
DA:175,0
FNF:2
FNH:0
LF:4
LH:0
end_of_record
SF:/Users/dogukanarat/Workspace/DevelopmentTestSystem/Binaries/Debug/Intermediate/_deps/googletest-src/googletest/include/gtest/gtest-printers.h
FN:182,_ZN7testing8internal14PointerPrinter10PrintValueIKvEEvPT_PNSt3__113basic_ostreamIcNS6_11char_traitsIcEEEE
FNDA:0,_ZN7testing8internal14PointerPrinter10PrintValueIKvEEvPT_PNSt3__113basic_ostreamIcNS6_11char_traitsIcEEEE
FN:213,_ZN7testing8internal52internal_stream_operator_without_lexical_name_lookup13StreamPrinter10PrintValueIivRNSt3__113basic_ostreamIcNS4_11char_traitsIcEEEEEEvRKT_PS8_
FNDA:0,_ZN7testing8internal52internal_stream_operator_without_lexical_name_lookup13StreamPrinter10PrintValueIivRNSt3__113basic_ostreamIcNS4_11char_traitsIcEEEEEEvRKT_PS8_
FN:213,_ZN7testing8internal52internal_stream_operator_without_lexical_name_lookup13StreamPrinter10PrintValueIjvRNSt3__113basic_ostreamIcNS4_11char_traitsIcEEEEEEvRKT_PS8_
FNDA:0,_ZN7testing8internal52internal_stream_operator_without_lexical_name_lookup13StreamPrinter10PrintValueIjvRNSt3__113basic_ostreamIcNS4_11char_traitsIcEEEEEEvRKT_PS8_
FN:305,_ZN7testing8internal17PrintWithFallbackIiEEvRKT_PNSt3__113basic_ostreamIcNS5_11char_traitsIcEEEE
FNDA:0,_ZN7testing8internal17PrintWithFallbackIiEEvRKT_PNSt3__113basic_ostreamIcNS5_11char_traitsIcEEEE
FN:305,_ZN7testing8internal17PrintWithFallbackIPKvEEvRKT_PNSt3__113basic_ostreamIcNS7_11char_traitsIcEEEE
FNDA:0,_ZN7testing8internal17PrintWithFallbackIPKvEEvRKT_PNSt3__113basic_ostreamIcNS7_11char_traitsIcEEEE
FN:305,_ZN7testing8internal17PrintWithFallbackIjEEvRKT_PNSt3__113basic_ostreamIcNS5_11char_traitsIcEEEE
FNDA:0,_ZN7testing8internal17PrintWithFallbackIjEEvRKT_PNSt3__113basic_ostreamIcNS5_11char_traitsIcEEEE
FN:332,_ZN7testing8internal19FormatForComparisonIihE6FormatERKi
FNDA:0,_ZN7testing8internal19FormatForComparisonIihE6FormatERKi
FN:332,_ZN7testing8internal19FormatForComparisonIhiE6FormatERKh
FNDA:0,_ZN7testing8internal19FormatForComparisonIhiE6FormatERKh
FN:332,_ZN7testing8internal19FormatForComparisonIPhS2_E6FormatERKS2_
FNDA:0,_ZN7testing8internal19FormatForComparisonIPhS2_E6FormatERKS2_
FN:332,_ZN7testing8internal19FormatForComparisonIijE6FormatERKi
FNDA:0,_ZN7testing8internal19FormatForComparisonIijE6FormatERKi
FN:332,_ZN7testing8internal19FormatForComparisonIjiE6FormatERKj
FNDA:0,_ZN7testing8internal19FormatForComparisonIjiE6FormatERKj
FN:332,_ZN7testing8internal19FormatForComparisonIPKhPhE6FormatERKS3_
FNDA:0,_ZN7testing8internal19FormatForComparisonIPKhPhE6FormatERKS3_
FN:332,_ZN7testing8internal19FormatForComparisonIPhA10_hE6FormatERKS2_
FNDA:0,_ZN7testing8internal19FormatForComparisonIPhA10_hE6FormatERKS2_
FN:341,_ZN7testing8internal19FormatForComparisonIA10_hPhE6FormatEPKh
FNDA:0,_ZN7testing8internal19FormatForComparisonIA10_hPhE6FormatEPKh
FN:412,_ZN7testing8internal33FormatForComparisonFailureMessageIihEENSt3__112basic_stringIcNS2_11char_traitsIcEENS2_9allocatorIcEEEERKT_RKT0_
FNDA:0,_ZN7testing8internal33FormatForComparisonFailureMessageIihEENSt3__112basic_stringIcNS2_11char_traitsIcEENS2_9allocatorIcEEEERKT_RKT0_
FN:412,_ZN7testing8internal33FormatForComparisonFailureMessageIhiEENSt3__112basic_stringIcNS2_11char_traitsIcEENS2_9allocatorIcEEEERKT_RKT0_
FNDA:0,_ZN7testing8internal33FormatForComparisonFailureMessageIhiEENSt3__112basic_stringIcNS2_11char_traitsIcEENS2_9allocatorIcEEEERKT_RKT0_
FN:412,_ZN7testing8internal33FormatForComparisonFailureMessageIPhS2_EENSt3__112basic_stringIcNS3_11char_traitsIcEENS3_9allocatorIcEEEERKT_RKT0_
FNDA:0,_ZN7testing8internal33FormatForComparisonFailureMessageIPhS2_EENSt3__112basic_stringIcNS3_11char_traitsIcEENS3_9allocatorIcEEEERKT_RKT0_
FN:412,_ZN7testing8internal33FormatForComparisonFailureMessageIijEENSt3__112basic_stringIcNS2_11char_traitsIcEENS2_9allocatorIcEEEERKT_RKT0_
FNDA:0,_ZN7testing8internal33FormatForComparisonFailureMessageIijEENSt3__112basic_stringIcNS2_11char_traitsIcEENS2_9allocatorIcEEEERKT_RKT0_
FN:412,_ZN7testing8internal33FormatForComparisonFailureMessageIjiEENSt3__112basic_stringIcNS2_11char_traitsIcEENS2_9allocatorIcEEEERKT_RKT0_
FNDA:0,_ZN7testing8internal33FormatForComparisonFailureMessageIjiEENSt3__112basic_stringIcNS2_11char_traitsIcEENS2_9allocatorIcEEEERKT_RKT0_
FN:412,_ZN7testing8internal33FormatForComparisonFailureMessageIA10_hPhEENSt3__112basic_stringIcNS4_11char_traitsIcEENS4_9allocatorIcEEEERKT_RKT0_
FNDA:0,_ZN7testing8internal33FormatForComparisonFailureMessageIA10_hPhEENSt3__112basic_stringIcNS4_11char_traitsIcEENS4_9allocatorIcEEEERKT_RKT0_
FN:412,_ZN7testing8internal33FormatForComparisonFailureMessageIPhA10_hEENSt3__112basic_stringIcNS4_11char_traitsIcEENS4_9allocatorIcEEEERKT_RKT0_
FNDA:0,_ZN7testing8internal33FormatForComparisonFailureMessageIPhA10_hEENSt3__112basic_stringIcNS4_11char_traitsIcEENS4_9allocatorIcEEEERKT_RKT0_
FN:439,_ZN7testing8internal7PrintToIiEEvRKT_PNSt3__113basic_ostreamIcNS5_11char_traitsIcEEEE
FNDA:0,_ZN7testing8internal7PrintToIiEEvRKT_PNSt3__113basic_ostreamIcNS5_11char_traitsIcEEEE
FN:439,_ZN7testing8internal7PrintToIPKvEEvRKT_PNSt3__113basic_ostreamIcNS7_11char_traitsIcEEEE
FNDA:0,_ZN7testing8internal7PrintToIPKvEEvRKT_PNSt3__113basic_ostreamIcNS7_11char_traitsIcEEEE
FN:439,_ZN7testing8internal7PrintToIjEEvRKT_PNSt3__113basic_ostreamIcNS5_11char_traitsIcEEEE
FNDA:0,_ZN7testing8internal7PrintToIjEEvRKT_PNSt3__113basic_ostreamIcNS5_11char_traitsIcEEEE
FN:501,_ZN7testing8internal7PrintToEPKhPNSt3__113basic_ostreamIcNS3_11char_traitsIcEEEE
FNDA:0,_ZN7testing8internal7PrintToEPKhPNSt3__113basic_ostreamIcNS3_11char_traitsIcEEEE
FN:504,_ZN7testing8internal7PrintToEPhPNSt3__113basic_ostreamIcNS2_11char_traitsIcEEEE
FNDA:0,_ZN7testing8internal7PrintToEPhPNSt3__113basic_ostreamIcNS2_11char_traitsIcEEEE
FN:693,_ZN7testing8internal16UniversalPrinterIiE5PrintERKiPNSt3__113basic_ostreamIcNS5_11char_traitsIcEEEE
FNDA:0,_ZN7testing8internal16UniversalPrinterIiE5PrintERKiPNSt3__113basic_ostreamIcNS5_11char_traitsIcEEEE
FN:693,_ZN7testing8internal16UniversalPrinterIhE5PrintERKhPNSt3__113basic_ostreamIcNS5_11char_traitsIcEEEE
FNDA:0,_ZN7testing8internal16UniversalPrinterIhE5PrintERKhPNSt3__113basic_ostreamIcNS5_11char_traitsIcEEEE
FN:693,_ZN7testing8internal16UniversalPrinterIPhE5PrintERKS2_PNSt3__113basic_ostreamIcNS6_11char_traitsIcEEEE
FNDA:0,_ZN7testing8internal16UniversalPrinterIPhE5PrintERKS2_PNSt3__113basic_ostreamIcNS6_11char_traitsIcEEEE
FN:693,_ZN7testing8internal16UniversalPrinterIjE5PrintERKjPNSt3__113basic_ostreamIcNS5_11char_traitsIcEEEE
FNDA:0,_ZN7testing8internal16UniversalPrinterIjE5PrintERKjPNSt3__113basic_ostreamIcNS5_11char_traitsIcEEEE
FN:693,_ZN7testing8internal16UniversalPrinterIPKhE5PrintERKS3_PNSt3__113basic_ostreamIcNS7_11char_traitsIcEEEE
FNDA:0,_ZN7testing8internal16UniversalPrinterIPKhE5PrintERKS3_PNSt3__113basic_ostreamIcNS7_11char_traitsIcEEEE
FN:883,_ZN7testing8internal21UniversalTersePrinterIiE5PrintERKiPNSt3__113basic_ostreamIcNS5_11char_traitsIcEEEE
FNDA:0,_ZN7testing8internal21UniversalTersePrinterIiE5PrintERKiPNSt3__113basic_ostreamIcNS5_11char_traitsIcEEEE
FN:883,_ZN7testing8internal21UniversalTersePrinterIhE5PrintERKhPNSt3__113basic_ostreamIcNS5_11char_traitsIcEEEE
FNDA:0,_ZN7testing8internal21UniversalTersePrinterIhE5PrintERKhPNSt3__113basic_ostreamIcNS5_11char_traitsIcEEEE
FN:883,_ZN7testing8internal21UniversalTersePrinterIPhE5PrintERKS2_PNSt3__113basic_ostreamIcNS6_11char_traitsIcEEEE
FNDA:0,_ZN7testing8internal21UniversalTersePrinterIPhE5PrintERKS2_PNSt3__113basic_ostreamIcNS6_11char_traitsIcEEEE
FN:883,_ZN7testing8internal21UniversalTersePrinterIjE5PrintERKjPNSt3__113basic_ostreamIcNS5_11char_traitsIcEEEE
FNDA:0,_ZN7testing8internal21UniversalTersePrinterIjE5PrintERKjPNSt3__113basic_ostreamIcNS5_11char_traitsIcEEEE
FN:883,_ZN7testing8internal21UniversalTersePrinterIPKhE5PrintERKS3_PNSt3__113basic_ostreamIcNS7_11char_traitsIcEEEE
FNDA:0,_ZN7testing8internal21UniversalTersePrinterIPKhE5PrintERKS3_PNSt3__113basic_ostreamIcNS7_11char_traitsIcEEEE
FN:995,_ZN7testing8internal14UniversalPrintIiEEvRKT_PNSt3__113basic_ostreamIcNS5_11char_traitsIcEEEE
FNDA:0,_ZN7testing8internal14UniversalPrintIiEEvRKT_PNSt3__113basic_ostreamIcNS5_11char_traitsIcEEEE
FN:995,_ZN7testing8internal14UniversalPrintIhEEvRKT_PNSt3__113basic_ostreamIcNS5_11char_traitsIcEEEE
FNDA:0,_ZN7testing8internal14UniversalPrintIhEEvRKT_PNSt3__113basic_ostreamIcNS5_11char_traitsIcEEEE
FN:995,_ZN7testing8internal14UniversalPrintIPhEEvRKT_PNSt3__113basic_ostreamIcNS6_11char_traitsIcEEEE
FNDA:0,_ZN7testing8internal14UniversalPrintIPhEEvRKT_PNSt3__113basic_ostreamIcNS6_11char_traitsIcEEEE
FN:995,_ZN7testing8internal14UniversalPrintIjEEvRKT_PNSt3__113basic_ostreamIcNS5_11char_traitsIcEEEE
FNDA:0,_ZN7testing8internal14UniversalPrintIjEEvRKT_PNSt3__113basic_ostreamIcNS5_11char_traitsIcEEEE
FN:995,_ZN7testing8internal14UniversalPrintIPKhEEvRKT_PNSt3__113basic_ostreamIcNS7_11char_traitsIcEEEE
FNDA:0,_ZN7testing8internal14UniversalPrintIPKhEEvRKT_PNSt3__113basic_ostreamIcNS7_11char_traitsIcEEEE
FN:1035,_ZN7testing13PrintToStringIiEENSt3__112basic_stringIcNS1_11char_traitsIcEENS1_9allocatorIcEEEERKT_
FNDA:0,_ZN7testing13PrintToStringIiEENSt3__112basic_stringIcNS1_11char_traitsIcEENS1_9allocatorIcEEEERKT_
FN:1035,_ZN7testing13PrintToStringIhEENSt3__112basic_stringIcNS1_11char_traitsIcEENS1_9allocatorIcEEEERKT_
FNDA:0,_ZN7testing13PrintToStringIhEENSt3__112basic_stringIcNS1_11char_traitsIcEENS1_9allocatorIcEEEERKT_
FN:1035,_ZN7testing13PrintToStringIPhEENSt3__112basic_stringIcNS2_11char_traitsIcEENS2_9allocatorIcEEEERKT_
FNDA:0,_ZN7testing13PrintToStringIPhEENSt3__112basic_stringIcNS2_11char_traitsIcEENS2_9allocatorIcEEEERKT_
FN:1035,_ZN7testing13PrintToStringIjEENSt3__112basic_stringIcNS1_11char_traitsIcEENS1_9allocatorIcEEEERKT_
FNDA:0,_ZN7testing13PrintToStringIjEENSt3__112basic_stringIcNS1_11char_traitsIcEENS1_9allocatorIcEEEERKT_
FN:1035,_ZN7testing13PrintToStringIPKhEENSt3__112basic_stringIcNS3_11char_traitsIcEENS3_9allocatorIcEEEERKT_
FNDA:0,_ZN7testing13PrintToStringIPKhEENSt3__112basic_stringIcNS3_11char_traitsIcEENS3_9allocatorIcEEEERKT_
DA:182,0
DA:183,0
DA:184,0
DA:185,0
DA:189,0
DA:191,0
DA:213,0
DA:216,0
DA:217,0
DA:305,0
DA:311,0
DA:312,0
DA:332,0
DA:333,0
DA:341,0
DA:342,0
DA:412,0
DA:414,0
DA:439,0
DA:440,0
DA:441,0
DA:501,0
DA:502,0
DA:503,0
DA:504,0
DA:505,0
DA:506,0
DA:693,0
DA:702,0
DA:703,0
DA:883,0
DA:884,0
DA:885,0
DA:995,0
DA:999,0
DA:1000,0
DA:1035,0
DA:1036,0
DA:1037,0
DA:1038,0
DA:1039,0
FNF:46
FNH:0
LF:41
LH:0
end_of_record
SF:/Users/dogukanarat/Workspace/DevelopmentTestSystem/Binaries/Debug/Intermediate/_deps/googletest-src/googletest/include/gtest/gtest-message.h
FN:92,_ZN7testing7MessageD1Ev
FNDA:0,_ZN7testing7MessageD1Ev
FN:92,_ZN7testing7MessageD2Ev
FNDA:0,_ZN7testing7MessageD2Ev
FNF:2
FNH:0
LF:0
LH:0
end_of_record
SF:/Library/Developer/CommandLineTools/SDKs/MacOSX12.3.sdk/usr/include/c++/v1/__iterator/ostreambuf_iterator.h
FN:53,_ZNSt3__119ostreambuf_iteratorIcNS_11char_traitsIcEEEC1ERNS_13basic_ostreamIcS2_EE
FNDA:0,_ZNSt3__119ostreambuf_iteratorIcNS_11char_traitsIcEEEC1ERNS_13basic_ostreamIcS2_EE
FN:53,_ZNSt3__119ostreambuf_iteratorIcNS_11char_traitsIcEEEC2ERNS_13basic_ostreamIcS2_EE
FNDA:0,_ZNSt3__119ostreambuf_iteratorIcNS_11char_traitsIcEEEC2ERNS_13basic_ostreamIcS2_EE
FN:66,_ZNKSt3__119ostreambuf_iteratorIcNS_11char_traitsIcEEE6failedEv
FNDA:0,_ZNKSt3__119ostreambuf_iteratorIcNS_11char_traitsIcEEE6failedEv
DA:53,0
DA:54,0
DA:66,0
FNF:3
FNH:0
LF:3
LH:0
end_of_record
SF:/Library/Developer/CommandLineTools/SDKs/MacOSX12.3.sdk/usr/include/c++/v1/ios
FN:344,_ZNSt3__18ios_baseC2Ev
FNDA:0,_ZNSt3__18ios_baseC2Ev
FN:348,_ZNKSt3__18ios_base5rdbufEv
FNDA:0,_ZNKSt3__18ios_base5rdbufEv
FN:459,_ZNKSt3__18ios_base5flagsEv
FNDA:0,_ZNKSt3__18ios_base5flagsEv
FN:521,_ZNKSt3__18ios_base5widthEv
FNDA:0,_ZNKSt3__18ios_base5widthEv
FN:528,_ZNSt3__18ios_base5widthEl
FNDA:0,_ZNSt3__18ios_base5widthEl
FN:546,_ZNSt3__18ios_base8setstateEj
FNDA:0,_ZNSt3__18ios_base8setstateEj
FN:623,_ZNSt3__19basic_iosIcNS_11char_traitsIcEEE8setstateEj
FNDA:0,_ZNSt3__19basic_iosIcNS_11char_traitsIcEEE8setstateEj
FN:665,_ZNSt3__19basic_iosIcNS_11char_traitsIcEEEC2Ev
FNDA:0,_ZNSt3__19basic_iosIcNS_11char_traitsIcEEEC2Ev
FN:698,_ZNSt3__19basic_iosIcNS_11char_traitsIcEEE4initEPNS_15basic_streambufIcS2_EE
FNDA:0,_ZNSt3__19basic_iosIcNS_11char_traitsIcEEE4initEPNS_15basic_streambufIcS2_EE
FN:726,_ZNKSt3__19basic_iosIcNS_11char_traitsIcEEE5rdbufEv
FNDA:0,_ZNKSt3__19basic_iosIcNS_11char_traitsIcEEE5rdbufEv
FN:764,_ZNKSt3__19basic_iosIcNS_11char_traitsIcEEE5widenEc
FNDA:0,_ZNKSt3__19basic_iosIcNS_11char_traitsIcEEE5widenEc
FN:772,_ZNKSt3__19basic_iosIcNS_11char_traitsIcEEE4fillEv
FNDA:0,_ZNKSt3__19basic_iosIcNS_11char_traitsIcEEE4fillEv
DA:344,0
DA:345,0
DA:348,0
DA:459,0
DA:461,0
DA:521,0
DA:523,0
DA:528,0
DA:530,0
DA:531,0
DA:532,0
DA:546,0
DA:548,0
DA:549,0
DA:623,0
DA:665,0
DA:666,0
DA:698,0
DA:700,0
DA:701,0
DA:702,0
DA:703,0
DA:726,0
DA:728,0
DA:764,0
DA:766,0
DA:767,0
DA:772,0
DA:774,0
DA:775,0
DA:776,0
FNF:12
FNH:0
LF:31
LH:0
end_of_record
SF:/Library/Developer/CommandLineTools/SDKs/MacOSX12.3.sdk/usr/include/c++/v1/sstream
FN:227,_ZNSt3__115basic_stringbufIcNS_11char_traitsIcEENS_9allocatorIcEEEC1Ej
FNDA:0,_ZNSt3__115basic_stringbufIcNS_11char_traitsIcEENS_9allocatorIcEEEC1Ej
FN:227,_ZNSt3__115basic_stringbufIcNS_11char_traitsIcEENS_9allocatorIcEEEC2Ej
FNDA:0,_ZNSt3__115basic_stringbufIcNS_11char_traitsIcEENS_9allocatorIcEEEC2Ej
FN:802,_ZNSt3__118basic_stringstreamIcNS_11char_traitsIcEENS_9allocatorIcEEEC1Ev
FNDA:0,_ZNSt3__118basic_stringstreamIcNS_11char_traitsIcEENS_9allocatorIcEEEC1Ev
FN:842,_ZNKSt3__118basic_stringstreamIcNS_11char_traitsIcEENS_9allocatorIcEEE3strEv
FNDA:0,_ZNKSt3__118basic_stringstreamIcNS_11char_traitsIcEENS_9allocatorIcEEE3strEv
FN:861,_ZNSt3__115basic_stringbufIcNS_11char_traitsIcEENS_9allocatorIcEEED1Ev
FNDA:0,_ZNSt3__115basic_stringbufIcNS_11char_traitsIcEENS_9allocatorIcEEED1Ev
FN:861,_ZNSt3__115basic_stringbufIcNS_11char_traitsIcEENS_9allocatorIcEEED2Ev
FNDA:0,_ZNSt3__115basic_stringbufIcNS_11char_traitsIcEENS_9allocatorIcEEED2Ev
FN:862,_ZNSt3__118basic_stringstreamIcNS_11char_traitsIcEENS_9allocatorIcEEED1Ev
FNDA:0,_ZNSt3__118basic_stringstreamIcNS_11char_traitsIcEENS_9allocatorIcEEED1Ev
FN:862,_ZNSt3__118basic_stringstreamIcNS_11char_traitsIcEENS_9allocatorIcEEED2Ev
FNDA:0,_ZNSt3__118basic_stringstreamIcNS_11char_traitsIcEENS_9allocatorIcEEED2Ev
DA:227,0
DA:228,0
DA:802,0
DA:803,0
DA:842,0
DA:843,0
FNF:8
FNH:0
LF:6
LH:0
end_of_record
SF:/Users/dogukanarat/Workspace/DevelopmentTestSystem/Binaries/Debug/Intermediate/_deps/googletest-src/googletest/include/gtest/gtest-assertion-result.h
FN:133,_ZN7testing15AssertionResultD1Ev
FNDA:0,_ZN7testing15AssertionResultD1Ev
FN:133,_ZN7testing15AssertionResultD2Ev
FNDA:0,_ZN7testing15AssertionResultD2Ev
FN:174,_ZNK7testing15AssertionResultcvbEv
FNDA:0,_ZNK7testing15AssertionResultcvbEv
FN:183,_ZNK7testing15AssertionResult7messageEv
FNDA:0,_ZNK7testing15AssertionResult7messageEv
FN:187,_ZNK7testing15AssertionResult15failure_messageEv
FNDA:0,_ZNK7testing15AssertionResult15failure_messageEv
DA:174,0
DA:183,0
DA:184,0
DA:187,0
FNF:5
FNH:0
LF:4
LH:0
end_of_record
SF:/Library/Developer/CommandLineTools/SDKs/MacOSX12.3.sdk/usr/include/c++/v1/__memory/addressof.h
FN:30,_ZNSt3__1L9addressofIKcEEPT_RS2_
FNDA:0,_ZNSt3__1L9addressofIKcEEPT_RS2_
DA:30,0
DA:32,0
FNF:1
FNH:0
LF:2
LH:0
end_of_record
SF:/Users/dogukanarat/Workspace/DevelopmentTestSystem/Tests/UnitTest/TestDtsCircularBuffer.cpp
FN:0,__cxx_global_var_init
FNDA:90,__cxx_global_var_init
FN:0,__cxx_global_var_init.12
FNDA:90,__cxx_global_var_init.12
FN:0,__cxx_global_var_init.16
FNDA:90,__cxx_global_var_init.16
FN:0,__cxx_global_var_init.18
FNDA:90,__cxx_global_var_init.18
FN:0,__cxx_global_var_init.21
FNDA:90,__cxx_global_var_init.21
FN:8,_ZN54DtsCircularBufferTest_dtsCircularBufferInitialize_Test8TestBodyEv
FNDA:3,_ZN54DtsCircularBufferTest_dtsCircularBufferInitialize_Test8TestBodyEv
FN:8,_ZN54DtsCircularBufferTest_dtsCircularBufferInitialize_TestD1Ev
FNDA:3,_ZN54DtsCircularBufferTest_dtsCircularBufferInitialize_TestD1Ev
FN:8,_ZN54DtsCircularBufferTest_dtsCircularBufferInitialize_TestD0Ev
FNDA:3,_ZN54DtsCircularBufferTest_dtsCircularBufferInitialize_TestD0Ev
FN:8,_ZN54DtsCircularBufferTest_dtsCircularBufferInitialize_TestC1Ev
FNDA:3,_ZN54DtsCircularBufferTest_dtsCircularBufferInitialize_TestC1Ev
FN:8,_ZN54DtsCircularBufferTest_dtsCircularBufferInitialize_TestC2Ev
FNDA:3,_ZN54DtsCircularBufferTest_dtsCircularBufferInitialize_TestC2Ev
FN:8,_ZN54DtsCircularBufferTest_dtsCircularBufferInitialize_TestD2Ev
FNDA:3,_ZN54DtsCircularBufferTest_dtsCircularBufferInitialize_TestD2Ev
FN:20,_ZN53DtsCircularBufferTest_dtsCircularBufferSetBuffer_Test8TestBodyEv
FNDA:3,_ZN53DtsCircularBufferTest_dtsCircularBufferSetBuffer_Test8TestBodyEv
FN:20,_ZN53DtsCircularBufferTest_dtsCircularBufferSetBuffer_TestD1Ev
FNDA:3,_ZN53DtsCircularBufferTest_dtsCircularBufferSetBuffer_TestD1Ev
FN:20,_ZN53DtsCircularBufferTest_dtsCircularBufferSetBuffer_TestD0Ev
FNDA:3,_ZN53DtsCircularBufferTest_dtsCircularBufferSetBuffer_TestD0Ev
FN:20,_ZN53DtsCircularBufferTest_dtsCircularBufferSetBuffer_TestC1Ev
FNDA:3,_ZN53DtsCircularBufferTest_dtsCircularBufferSetBuffer_TestC1Ev
FN:20,_ZN53DtsCircularBufferTest_dtsCircularBufferSetBuffer_TestC2Ev
FNDA:3,_ZN53DtsCircularBufferTest_dtsCircularBufferSetBuffer_TestC2Ev
FN:20,_ZN53DtsCircularBufferTest_dtsCircularBufferSetBuffer_TestD2Ev
FNDA:3,_ZN53DtsCircularBufferTest_dtsCircularBufferSetBuffer_TestD2Ev
FN:35,_ZN49DtsCircularBufferTest_dtsCircularBufferClear_Test8TestBodyEv
FNDA:3,_ZN49DtsCircularBufferTest_dtsCircularBufferClear_Test8TestBodyEv
FN:35,_ZN49DtsCircularBufferTest_dtsCircularBufferClear_TestD1Ev
FNDA:3,_ZN49DtsCircularBufferTest_dtsCircularBufferClear_TestD1Ev
FN:35,_ZN49DtsCircularBufferTest_dtsCircularBufferClear_TestD0Ev
FNDA:3,_ZN49DtsCircularBufferTest_dtsCircularBufferClear_TestD0Ev
FN:35,_ZN49DtsCircularBufferTest_dtsCircularBufferClear_TestC1Ev
FNDA:3,_ZN49DtsCircularBufferTest_dtsCircularBufferClear_TestC1Ev
FN:35,_ZN49DtsCircularBufferTest_dtsCircularBufferClear_TestC2Ev
FNDA:3,_ZN49DtsCircularBufferTest_dtsCircularBufferClear_TestC2Ev
FN:35,_ZN49DtsCircularBufferTest_dtsCircularBufferClear_TestD2Ev
FNDA:3,_ZN49DtsCircularBufferTest_dtsCircularBufferClear_TestD2Ev
FN:52,_ZN48DtsCircularBufferTest_dtsCircularBufferPush_Test8TestBodyEv
FNDA:3,_ZN48DtsCircularBufferTest_dtsCircularBufferPush_Test8TestBodyEv
FN:52,_ZN48DtsCircularBufferTest_dtsCircularBufferPush_TestD1Ev
FNDA:3,_ZN48DtsCircularBufferTest_dtsCircularBufferPush_TestD1Ev
FN:52,_ZN48DtsCircularBufferTest_dtsCircularBufferPush_TestD0Ev
FNDA:3,_ZN48DtsCircularBufferTest_dtsCircularBufferPush_TestD0Ev
FN:52,_ZN48DtsCircularBufferTest_dtsCircularBufferPush_TestC1Ev
FNDA:3,_ZN48DtsCircularBufferTest_dtsCircularBufferPush_TestC1Ev
FN:52,_ZN48DtsCircularBufferTest_dtsCircularBufferPush_TestC2Ev
FNDA:3,_ZN48DtsCircularBufferTest_dtsCircularBufferPush_TestC2Ev
FN:52,_ZN48DtsCircularBufferTest_dtsCircularBufferPush_TestD2Ev
FNDA:3,_ZN48DtsCircularBufferTest_dtsCircularBufferPush_TestD2Ev
FN:70,_ZN47DtsCircularBufferTest_dtsCircularBufferPop_Test8TestBodyEv
FNDA:3,_ZN47DtsCircularBufferTest_dtsCircularBufferPop_Test8TestBodyEv
FN:70,_ZN47DtsCircularBufferTest_dtsCircularBufferPop_TestD1Ev
FNDA:3,_ZN47DtsCircularBufferTest_dtsCircularBufferPop_TestD1Ev
FN:70,_ZN47DtsCircularBufferTest_dtsCircularBufferPop_TestD0Ev
FNDA:3,_ZN47DtsCircularBufferTest_dtsCircularBufferPop_TestD0Ev
FN:70,_ZN47DtsCircularBufferTest_dtsCircularBufferPop_TestC1Ev
FNDA:3,_ZN47DtsCircularBufferTest_dtsCircularBufferPop_TestC1Ev
FN:70,_ZN47DtsCircularBufferTest_dtsCircularBufferPop_TestC2Ev
FNDA:3,_ZN47DtsCircularBufferTest_dtsCircularBufferPop_TestC2Ev
FN:70,_ZN47DtsCircularBufferTest_dtsCircularBufferPop_TestD2Ev
FNDA:3,_ZN47DtsCircularBufferTest_dtsCircularBufferPop_TestD2Ev
DA:8,108
DA:11,3
DA:12,3
DA:13,3
DA:14,3
DA:15,3
DA:16,3
DA:17,3
DA:18,3
DA:20,108
DA:23,3
DA:24,3
DA:26,3
DA:27,3
DA:28,3
DA:29,3
DA:30,3
DA:31,3
DA:32,3
DA:33,3
DA:35,108
DA:38,3
DA:39,3
DA:41,3
DA:42,3
DA:43,3
DA:44,3
DA:45,3
DA:46,3
DA:47,3
DA:48,3
DA:49,3
DA:50,3
DA:52,108
DA:55,3
DA:56,3
DA:58,3
DA:59,3
DA:60,3
DA:61,3
DA:62,3
DA:63,3
DA:64,3
DA:65,3
DA:66,3
DA:67,3
DA:68,3
DA:70,108
DA:73,3
DA:74,3
DA:76,3
DA:77,3
DA:78,3
DA:79,3
DA:80,3
DA:82,3
DA:83,3
DA:84,3
DA:85,3
DA:86,3
DA:87,3
DA:88,3
DA:89,3
FNF:35
FNH:35
LF:63
LH:63
end_of_record
SF:/Library/Developer/CommandLineTools/SDKs/MacOSX12.3.sdk/usr/include/c++/v1/string
FN:840,_ZNSt3__112basic_stringIcNS_11char_traitsIcEENS_9allocatorIcEEEC1IDnEEPKc
FNDA:450,_ZNSt3__112basic_stringIcNS_11char_traitsIcEENS_9allocatorIcEEEC1IDnEEPKc
FN:840,_ZNSt3__112basic_stringIcNS_11char_traitsIcEENS_9allocatorIcEEEC2IDnEEPKc
FNDA:450,_ZNSt3__112basic_stringIcNS_11char_traitsIcEENS_9allocatorIcEEEC2IDnEEPKc
FN:1263,_ZNKSt3__112basic_stringIcNS_11char_traitsIcEENS_9allocatorIcEEE5c_strEv
FNDA:0,_ZNKSt3__112basic_stringIcNS_11char_traitsIcEENS_9allocatorIcEEE5c_strEv
FN:1265,_ZNKSt3__112basic_stringIcNS_11char_traitsIcEENS_9allocatorIcEEE4dataEv
FNDA:0,_ZNKSt3__112basic_stringIcNS_11char_traitsIcEENS_9allocatorIcEEE4dataEv
FN:1458,_ZNKSt3__112basic_stringIcNS_11char_traitsIcEENS_9allocatorIcEEE9__is_longEv
FNDA:0,_ZNKSt3__112basic_stringIcNS_11char_traitsIcEENS_9allocatorIcEEE9__is_longEv
FN:1540,_ZNKSt3__112basic_stringIcNS_11char_traitsIcEENS_9allocatorIcEEE18__get_long_pointerEv
FNDA:0,_ZNKSt3__112basic_stringIcNS_11char_traitsIcEENS_9allocatorIcEEE18__get_long_pointerEv
FN:1546,_ZNKSt3__112basic_stringIcNS_11char_traitsIcEENS_9allocatorIcEEE19__get_short_pointerEv
FNDA:0,_ZNKSt3__112basic_stringIcNS_11char_traitsIcEENS_9allocatorIcEEE19__get_short_pointerEv
FN:1552,_ZNKSt3__112basic_stringIcNS_11char_traitsIcEENS_9allocatorIcEEE13__get_pointerEv
FNDA:0,_ZNKSt3__112basic_stringIcNS_11char_traitsIcEENS_9allocatorIcEEE13__get_pointerEv
FN:1556,_ZNSt3__112basic_stringIcNS_11char_traitsIcEENS_9allocatorIcEEE6__zeroEv
FNDA:0,_ZNSt3__112basic_stringIcNS_11char_traitsIcEENS_9allocatorIcEEE6__zeroEv
FN:1829,_ZNSt3__112basic_stringIcNS_11char_traitsIcEENS_9allocatorIcEEEC1Ev
FNDA:0,_ZNSt3__112basic_stringIcNS_11char_traitsIcEENS_9allocatorIcEEEC1Ev
FN:1829,_ZNSt3__112basic_stringIcNS_11char_traitsIcEENS_9allocatorIcEEEC2Ev
FNDA:0,_ZNSt3__112basic_stringIcNS_11char_traitsIcEENS_9allocatorIcEEEC2Ev
FN:2056,_ZNSt3__112basic_stringIcNS_11char_traitsIcEENS_9allocatorIcEEEC1Emc
FNDA:0,_ZNSt3__112basic_stringIcNS_11char_traitsIcEENS_9allocatorIcEEEC1Emc
FN:2056,_ZNSt3__112basic_stringIcNS_11char_traitsIcEENS_9allocatorIcEEEC2Emc
FNDA:0,_ZNSt3__112basic_stringIcNS_11char_traitsIcEENS_9allocatorIcEEEC2Emc
DA:840,900
DA:842,450
DA:846,900
DA:1263,0
DA:1265,0
DA:1458,0
DA:1459,0
DA:1540,0
DA:1541,0
DA:1546,0
DA:1547,0
DA:1552,0
DA:1553,0
DA:1556,0
DA:1558,0
DA:1559,0
DA:1560,0
DA:1561,0
DA:1829,0
DA:1831,0
DA:1832,0
DA:1836,0
DA:1837,0
DA:2056,0
DA:2057,0
DA:2058,0
DA:2059,0
DA:2063,0
FNF:13
FNH:2
LF:28
LH:3
end_of_record
SF:/Library/Developer/CommandLineTools/SDKs/MacOSX12.3.sdk/usr/include/c++/v1/locale
FN:1395,_ZNSt3__116__pad_and_outputIcNS_11char_traitsIcEEEENS_19ostreambuf_iteratorIT_T0_EES6_PKS4_S8_S8_RNS_8ios_baseES4_
FNDA:0,_ZNSt3__116__pad_and_outputIcNS_11char_traitsIcEEEENS_19ostreambuf_iteratorIT_T0_EES6_PKS4_S8_S8_RNS_8ios_baseES4_
DA:1395,0
DA:1399,0
DA:1400,0
DA:1401,0
DA:1402,0
DA:1403,0
DA:1404,0
DA:1406,0
DA:1407,0
DA:1408,0
DA:1410,0
DA:1412,0
DA:1413,0
DA:1415,0
DA:1416,0
DA:1418,0
DA:1419,0
DA:1421,0
DA:1422,0
DA:1424,0
DA:1425,0
DA:1426,0
DA:1428,0
DA:1430,0
DA:1431,0
DA:1433,0
DA:1434,0
DA:1435,0
DA:1436,0
FNF:1
FNH:0
LF:29
LH:0
end_of_record
SF:/Library/Developer/CommandLineTools/SDKs/MacOSX12.3.sdk/usr/include/c++/v1/__memory/allocator.h
FN:74,_ZNSt3__116__non_trivial_ifILb1ENS_9allocatorIcEEEC2Ev
FNDA:450,_ZNSt3__116__non_trivial_ifILb1ENS_9allocatorIcEEEC2Ev
FN:94,_ZNSt3__19allocatorIcEC2Ev
FNDA:450,_ZNSt3__19allocatorIcEC2Ev
DA:74,450
DA:94,450
FNF:2
FNH:2
LF:2
LH:2
end_of_record
SF:/Library/Developer/CommandLineTools/SDKs/MacOSX12.3.sdk/usr/include/c++/v1/__memory/compressed_pair.h
FN:41,_ZNSt3__122__compressed_pair_elemINS_12basic_stringIcNS_11char_traitsIcEENS_9allocatorIcEEE5__repELi0ELb0EEC2ENS_18__default_init_tagE
FNDA:450,_ZNSt3__122__compressed_pair_elemINS_12basic_stringIcNS_11char_traitsIcEENS_9allocatorIcEEE5__repELi0ELb0EEC2ENS_18__default_init_tagE
FN:65,_ZNSt3__122__compressed_pair_elemIPNS_18basic_stringstreamIcNS_11char_traitsIcEENS_9allocatorIcEEEELi0ELb0EE5__getEv
FNDA:0,_ZNSt3__122__compressed_pair_elemIPNS_18basic_stringstreamIcNS_11char_traitsIcEENS_9allocatorIcEEEELi0ELb0EE5__getEv
FN:65,_ZNSt3__122__compressed_pair_elemIPNS_12basic_stringIcNS_11char_traitsIcEENS_9allocatorIcEEEELi0ELb0EE5__getEv
FNDA:0,_ZNSt3__122__compressed_pair_elemIPNS_12basic_stringIcNS_11char_traitsIcEENS_9allocatorIcEEEELi0ELb0EE5__getEv
FN:65,_ZNSt3__122__compressed_pair_elemINS_12basic_stringIcNS_11char_traitsIcEENS_9allocatorIcEEE5__repELi0ELb0EE5__getEv
FNDA:0,_ZNSt3__122__compressed_pair_elemINS_12basic_stringIcNS_11char_traitsIcEENS_9allocatorIcEEE5__repELi0ELb0EE5__getEv
FN:67,_ZNKSt3__122__compressed_pair_elemIPNS_12basic_stringIcNS_11char_traitsIcEENS_9allocatorIcEEEELi0ELb0EE5__getEv
FNDA:0,_ZNKSt3__122__compressed_pair_elemIPNS_12basic_stringIcNS_11char_traitsIcEENS_9allocatorIcEEEELi0ELb0EE5__getEv
FN:67,_ZNKSt3__122__compressed_pair_elemINS_12basic_stringIcNS_11char_traitsIcEENS_9allocatorIcEEE5__repELi0ELb0EE5__getEv
FNDA:0,_ZNKSt3__122__compressed_pair_elemINS_12basic_stringIcNS_11char_traitsIcEENS_9allocatorIcEEE5__repELi0ELb0EE5__getEv
FN:82,_ZNSt3__122__compressed_pair_elemINS_9allocatorIcEELi1ELb1EEC2ENS_18__default_init_tagE
FNDA:450,_ZNSt3__122__compressed_pair_elemINS_9allocatorIcEELi1ELb1EEC2ENS_18__default_init_tagE
FN:103,_ZNSt3__122__compressed_pair_elemINS_14default_deleteINS_18basic_stringstreamIcNS_11char_traitsIcEENS_9allocatorIcEEEEEELi1ELb1EE5__getEv
FNDA:0,_ZNSt3__122__compressed_pair_elemINS_14default_deleteINS_18basic_stringstreamIcNS_11char_traitsIcEENS_9allocatorIcEEEEEELi1ELb1EE5__getEv
FN:103,_ZNSt3__122__compressed_pair_elemINS_14default_deleteINS_12basic_stringIcNS_11char_traitsIcEENS_9allocatorIcEEEEEELi1ELb1EE5__getEv
FNDA:0,_ZNSt3__122__compressed_pair_elemINS_14default_deleteINS_12basic_stringIcNS_11char_traitsIcEENS_9allocatorIcEEEEEELi1ELb1EE5__getEv
FN:135,_ZNSt3__117__compressed_pairINS_12basic_stringIcNS_11char_traitsIcEENS_9allocatorIcEEE5__repES5_EC1INS_18__default_init_tagESA_EEOT_OT0_
FNDA:450,_ZNSt3__117__compressed_pairINS_12basic_stringIcNS_11char_traitsIcEENS_9allocatorIcEEE5__repES5_EC1INS_18__default_init_tagESA_EEOT_OT0_
FN:135,_ZNSt3__117__compressed_pairINS_12basic_stringIcNS_11char_traitsIcEENS_9allocatorIcEEE5__repES5_EC2INS_18__default_init_tagESA_EEOT_OT0_
FNDA:450,_ZNSt3__117__compressed_pairINS_12basic_stringIcNS_11char_traitsIcEENS_9allocatorIcEEE5__repES5_EC2INS_18__default_init_tagESA_EEOT_OT0_
FN:150,_ZNSt3__117__compressed_pairIPNS_18basic_stringstreamIcNS_11char_traitsIcEENS_9allocatorIcEEEENS_14default_deleteIS6_EEE5firstEv
FNDA:0,_ZNSt3__117__compressed_pairIPNS_18basic_stringstreamIcNS_11char_traitsIcEENS_9allocatorIcEEEENS_14default_deleteIS6_EEE5firstEv
FN:150,_ZNSt3__117__compressed_pairIPNS_12basic_stringIcNS_11char_traitsIcEENS_9allocatorIcEEEENS_14default_deleteIS6_EEE5firstEv
FNDA:0,_ZNSt3__117__compressed_pairIPNS_12basic_stringIcNS_11char_traitsIcEENS_9allocatorIcEEEENS_14default_deleteIS6_EEE5firstEv
FN:150,_ZNSt3__117__compressed_pairINS_12basic_stringIcNS_11char_traitsIcEENS_9allocatorIcEEE5__repES5_E5firstEv
FNDA:0,_ZNSt3__117__compressed_pairINS_12basic_stringIcNS_11char_traitsIcEENS_9allocatorIcEEE5__repES5_E5firstEv
FN:155,_ZNKSt3__117__compressed_pairIPNS_12basic_stringIcNS_11char_traitsIcEENS_9allocatorIcEEEENS_14default_deleteIS6_EEE5firstEv
FNDA:0,_ZNKSt3__117__compressed_pairIPNS_12basic_stringIcNS_11char_traitsIcEENS_9allocatorIcEEEENS_14default_deleteIS6_EEE5firstEv
FN:155,_ZNKSt3__117__compressed_pairINS_12basic_stringIcNS_11char_traitsIcEENS_9allocatorIcEEE5__repES5_E5firstEv
FNDA:0,_ZNKSt3__117__compressed_pairINS_12basic_stringIcNS_11char_traitsIcEENS_9allocatorIcEEE5__repES5_E5firstEv
FN:160,_ZNSt3__117__compressed_pairIPNS_18basic_stringstreamIcNS_11char_traitsIcEENS_9allocatorIcEEEENS_14default_deleteIS6_EEE6secondEv
FNDA:0,_ZNSt3__117__compressed_pairIPNS_18basic_stringstreamIcNS_11char_traitsIcEENS_9allocatorIcEEEENS_14default_deleteIS6_EEE6secondEv
FN:160,_ZNSt3__117__compressed_pairIPNS_12basic_stringIcNS_11char_traitsIcEENS_9allocatorIcEEEENS_14default_deleteIS6_EEE6secondEv
FNDA:0,_ZNSt3__117__compressed_pairIPNS_12basic_stringIcNS_11char_traitsIcEENS_9allocatorIcEEEENS_14default_deleteIS6_EEE6secondEv
DA:41,450
DA:65,0
DA:67,0
DA:82,450
DA:103,0
DA:135,900
DA:136,900
DA:150,0
DA:151,0
DA:155,0
DA:156,0
DA:160,0
DA:161,0
FNF:18
FNH:4
LF:13
LH:4
end_of_record
SF:/Library/Developer/CommandLineTools/SDKs/MacOSX12.3.sdk/usr/include/c++/v1/istream
FN:191,_ZNSt3__113basic_istreamIcNS_11char_traitsIcEEEC2EPNS_15basic_streambufIcS2_EE
FNDA:0,_ZNSt3__113basic_istreamIcNS_11char_traitsIcEEEC2EPNS_15basic_streambufIcS2_EE
FN:1405,_ZNSt3__114basic_iostreamIcNS_11char_traitsIcEEEC2EPNS_15basic_streambufIcS2_EE
FNDA:0,_ZNSt3__114basic_iostreamIcNS_11char_traitsIcEEEC2EPNS_15basic_streambufIcS2_EE
DA:191,0
DA:192,0
DA:1405,0
DA:1406,0
DA:1407,0
FNF:2
FNH:0
LF:5
LH:0
end_of_record
SF:/Users/dogukanarat/Workspace/DevelopmentTestSystem/Binaries/Debug/Intermediate/_deps/googletest-src/googletest/include/gtest/internal/gtest-port.h
FN:967,_ZN7testing8internal8GTestLog9GetStreamEv
FNDA:0,_ZN7testing8internal8GTestLog9GetStreamEv
FN:1065,_ZN7testing8internal13ImplicitCast_IPKvEET_S4_
FNDA:0,_ZN7testing8internal13ImplicitCast_IPKvEET_S4_
DA:967,0
DA:1065,0
DA:1066,0
FNF:2
FNH:0
LF:3
LH:0
end_of_record
TN:
SF:/Users/dogukanarat/Workspace/DevelopmentTestSystem/Binaries/Debug/Intermediate/_deps/googletest-src/googletest/include/gtest/gtest-message.h
FN:92,_ZN7testing7MessageD1Ev
FNDA:0,_ZN7testing7MessageD1Ev
FN:92,_ZN7testing7MessageD2Ev
FNDA:0,_ZN7testing7MessageD2Ev
FNF:2
FNH:0
LF:0
LH:0
end_of_record
SF:/Library/Developer/CommandLineTools/SDKs/MacOSX12.3.sdk/usr/include/c++/v1/__iterator/ostreambuf_iterator.h
FN:53,_ZNSt3__119ostreambuf_iteratorIcNS_11char_traitsIcEEEC1ERNS_13basic_ostreamIcS2_EE
FNDA:0,_ZNSt3__119ostreambuf_iteratorIcNS_11char_traitsIcEEEC1ERNS_13basic_ostreamIcS2_EE
FN:53,_ZNSt3__119ostreambuf_iteratorIcNS_11char_traitsIcEEEC2ERNS_13basic_ostreamIcS2_EE
FNDA:0,_ZNSt3__119ostreambuf_iteratorIcNS_11char_traitsIcEEEC2ERNS_13basic_ostreamIcS2_EE
FN:66,_ZNKSt3__119ostreambuf_iteratorIcNS_11char_traitsIcEEE6failedEv
FNDA:0,_ZNKSt3__119ostreambuf_iteratorIcNS_11char_traitsIcEEE6failedEv
DA:53,0
DA:54,0
DA:66,0
FNF:3
FNH:0
LF:3
LH:0
end_of_record
SF:/Users/dogukanarat/Workspace/DevelopmentTestSystem/Binaries/Debug/Intermediate/_deps/googletest-src/googletest/include/gtest/gtest-printers.h
FN:213,_ZN7testing8internal52internal_stream_operator_without_lexical_name_lookup13StreamPrinter10PrintValueIivRNSt3__113basic_ostreamIcNS4_11char_traitsIcEEEEEEvRKT_PS8_
FNDA:0,_ZN7testing8internal52internal_stream_operator_without_lexical_name_lookup13StreamPrinter10PrintValueIivRNSt3__113basic_ostreamIcNS4_11char_traitsIcEEEEEEvRKT_PS8_
FN:213,_ZN7testing8internal52internal_stream_operator_without_lexical_name_lookup13StreamPrinter10PrintValueIjvRNSt3__113basic_ostreamIcNS4_11char_traitsIcEEEEEEvRKT_PS8_
FNDA:0,_ZN7testing8internal52internal_stream_operator_without_lexical_name_lookup13StreamPrinter10PrintValueIjvRNSt3__113basic_ostreamIcNS4_11char_traitsIcEEEEEEvRKT_PS8_
FN:213,_ZN7testing8internal52internal_stream_operator_without_lexical_name_lookup13StreamPrinter10PrintValueIyvRNSt3__113basic_ostreamIcNS4_11char_traitsIcEEEEEEvRKT_PS8_
FNDA:0,_ZN7testing8internal52internal_stream_operator_without_lexical_name_lookup13StreamPrinter10PrintValueIyvRNSt3__113basic_ostreamIcNS4_11char_traitsIcEEEEEEvRKT_PS8_
FN:213,_ZN7testing8internal52internal_stream_operator_without_lexical_name_lookup13StreamPrinter10PrintValueI23DtsProtocolPacketHeadervRNSt3__113basic_ostreamIcNS5_11char_traitsIcEEEEEEvRKT_PS9_
FNDA:0,_ZN7testing8internal52internal_stream_operator_without_lexical_name_lookup13StreamPrinter10PrintValueI23DtsProtocolPacketHeadervRNSt3__113basic_ostreamIcNS5_11char_traitsIcEEEEEEvRKT_PS9_
FN:305,_ZN7testing8internal17PrintWithFallbackIiEEvRKT_PNSt3__113basic_ostreamIcNS5_11char_traitsIcEEEE
FNDA:0,_ZN7testing8internal17PrintWithFallbackIiEEvRKT_PNSt3__113basic_ostreamIcNS5_11char_traitsIcEEEE
FN:305,_ZN7testing8internal17PrintWithFallbackIjEEvRKT_PNSt3__113basic_ostreamIcNS5_11char_traitsIcEEEE
FNDA:0,_ZN7testing8internal17PrintWithFallbackIjEEvRKT_PNSt3__113basic_ostreamIcNS5_11char_traitsIcEEEE
FN:305,_ZN7testing8internal17PrintWithFallbackIyEEvRKT_PNSt3__113basic_ostreamIcNS5_11char_traitsIcEEEE
FNDA:0,_ZN7testing8internal17PrintWithFallbackIyEEvRKT_PNSt3__113basic_ostreamIcNS5_11char_traitsIcEEEE
FN:305,_ZN7testing8internal17PrintWithFallbackI23DtsProtocolPacketHeaderEEvRKT_PNSt3__113basic_ostreamIcNS6_11char_traitsIcEEEE
FNDA:0,_ZN7testing8internal17PrintWithFallbackI23DtsProtocolPacketHeaderEEvRKT_PNSt3__113basic_ostreamIcNS6_11char_traitsIcEEEE
FN:332,_ZN7testing8internal19FormatForComparisonIihE6FormatERKi
FNDA:0,_ZN7testing8internal19FormatForComparisonIihE6FormatERKi
FN:332,_ZN7testing8internal19FormatForComparisonIhiE6FormatERKh
FNDA:0,_ZN7testing8internal19FormatForComparisonIhiE6FormatERKh
FN:332,_ZN7testing8internal19FormatForComparisonIijE6FormatERKi
FNDA:0,_ZN7testing8internal19FormatForComparisonIijE6FormatERKi
FN:332,_ZN7testing8internal19FormatForComparisonIjiE6FormatERKj
FNDA:0,_ZN7testing8internal19FormatForComparisonIjiE6FormatERKj
FN:332,_ZN7testing8internal19FormatForComparisonIhhE6FormatERKh
FNDA:0,_ZN7testing8internal19FormatForComparisonIhhE6FormatERKh
FN:332,_ZN7testing8internal19FormatForComparisonIyyE6FormatERKy
FNDA:0,_ZN7testing8internal19FormatForComparisonIyyE6FormatERKy
FN:332,_ZN7testing8internal19FormatForComparisonI23DtsProtocolPacketHeaderhE6FormatERKS2_
FNDA:0,_ZN7testing8internal19FormatForComparisonI23DtsProtocolPacketHeaderhE6FormatERKS2_
FN:332,_ZN7testing8internal19FormatForComparisonIh23DtsProtocolPacketHeaderE6FormatERKh
FNDA:0,_ZN7testing8internal19FormatForComparisonIh23DtsProtocolPacketHeaderE6FormatERKh
FN:412,_ZN7testing8internal33FormatForComparisonFailureMessageIihEENSt3__112basic_stringIcNS2_11char_traitsIcEENS2_9allocatorIcEEEERKT_RKT0_
FNDA:0,_ZN7testing8internal33FormatForComparisonFailureMessageIihEENSt3__112basic_stringIcNS2_11char_traitsIcEENS2_9allocatorIcEEEERKT_RKT0_
FN:412,_ZN7testing8internal33FormatForComparisonFailureMessageIhiEENSt3__112basic_stringIcNS2_11char_traitsIcEENS2_9allocatorIcEEEERKT_RKT0_
FNDA:0,_ZN7testing8internal33FormatForComparisonFailureMessageIhiEENSt3__112basic_stringIcNS2_11char_traitsIcEENS2_9allocatorIcEEEERKT_RKT0_
FN:412,_ZN7testing8internal33FormatForComparisonFailureMessageIijEENSt3__112basic_stringIcNS2_11char_traitsIcEENS2_9allocatorIcEEEERKT_RKT0_
FNDA:0,_ZN7testing8internal33FormatForComparisonFailureMessageIijEENSt3__112basic_stringIcNS2_11char_traitsIcEENS2_9allocatorIcEEEERKT_RKT0_
FN:412,_ZN7testing8internal33FormatForComparisonFailureMessageIjiEENSt3__112basic_stringIcNS2_11char_traitsIcEENS2_9allocatorIcEEEERKT_RKT0_
FNDA:0,_ZN7testing8internal33FormatForComparisonFailureMessageIjiEENSt3__112basic_stringIcNS2_11char_traitsIcEENS2_9allocatorIcEEEERKT_RKT0_
FN:412,_ZN7testing8internal33FormatForComparisonFailureMessageIhhEENSt3__112basic_stringIcNS2_11char_traitsIcEENS2_9allocatorIcEEEERKT_RKT0_
FNDA:0,_ZN7testing8internal33FormatForComparisonFailureMessageIhhEENSt3__112basic_stringIcNS2_11char_traitsIcEENS2_9allocatorIcEEEERKT_RKT0_
FN:412,_ZN7testing8internal33FormatForComparisonFailureMessageIyyEENSt3__112basic_stringIcNS2_11char_traitsIcEENS2_9allocatorIcEEEERKT_RKT0_
FNDA:0,_ZN7testing8internal33FormatForComparisonFailureMessageIyyEENSt3__112basic_stringIcNS2_11char_traitsIcEENS2_9allocatorIcEEEERKT_RKT0_
FN:412,_ZN7testing8internal33FormatForComparisonFailureMessageI23DtsProtocolPacketHeaderhEENSt3__112basic_stringIcNS3_11char_traitsIcEENS3_9allocatorIcEEEERKT_RKT0_
FNDA:0,_ZN7testing8internal33FormatForComparisonFailureMessageI23DtsProtocolPacketHeaderhEENSt3__112basic_stringIcNS3_11char_traitsIcEENS3_9allocatorIcEEEERKT_RKT0_
FN:412,_ZN7testing8internal33FormatForComparisonFailureMessageIh23DtsProtocolPacketHeaderEENSt3__112basic_stringIcNS3_11char_traitsIcEENS3_9allocatorIcEEEERKT_RKT0_
FNDA:0,_ZN7testing8internal33FormatForComparisonFailureMessageIh23DtsProtocolPacketHeaderEENSt3__112basic_stringIcNS3_11char_traitsIcEENS3_9allocatorIcEEEERKT_RKT0_
FN:439,_ZN7testing8internal7PrintToIiEEvRKT_PNSt3__113basic_ostreamIcNS5_11char_traitsIcEEEE
FNDA:0,_ZN7testing8internal7PrintToIiEEvRKT_PNSt3__113basic_ostreamIcNS5_11char_traitsIcEEEE
FN:439,_ZN7testing8internal7PrintToIjEEvRKT_PNSt3__113basic_ostreamIcNS5_11char_traitsIcEEEE
FNDA:0,_ZN7testing8internal7PrintToIjEEvRKT_PNSt3__113basic_ostreamIcNS5_11char_traitsIcEEEE
FN:439,_ZN7testing8internal7PrintToIyEEvRKT_PNSt3__113basic_ostreamIcNS5_11char_traitsIcEEEE
FNDA:0,_ZN7testing8internal7PrintToIyEEvRKT_PNSt3__113basic_ostreamIcNS5_11char_traitsIcEEEE
FN:439,_ZN7testing8internal7PrintToI23DtsProtocolPacketHeaderEEvRKT_PNSt3__113basic_ostreamIcNS6_11char_traitsIcEEEE
FNDA:0,_ZN7testing8internal7PrintToI23DtsProtocolPacketHeaderEEvRKT_PNSt3__113basic_ostreamIcNS6_11char_traitsIcEEEE
FN:693,_ZN7testing8internal16UniversalPrinterIiE5PrintERKiPNSt3__113basic_ostreamIcNS5_11char_traitsIcEEEE
FNDA:0,_ZN7testing8internal16UniversalPrinterIiE5PrintERKiPNSt3__113basic_ostreamIcNS5_11char_traitsIcEEEE
FN:693,_ZN7testing8internal16UniversalPrinterIhE5PrintERKhPNSt3__113basic_ostreamIcNS5_11char_traitsIcEEEE
FNDA:0,_ZN7testing8internal16UniversalPrinterIhE5PrintERKhPNSt3__113basic_ostreamIcNS5_11char_traitsIcEEEE
FN:693,_ZN7testing8internal16UniversalPrinterIjE5PrintERKjPNSt3__113basic_ostreamIcNS5_11char_traitsIcEEEE
FNDA:0,_ZN7testing8internal16UniversalPrinterIjE5PrintERKjPNSt3__113basic_ostreamIcNS5_11char_traitsIcEEEE
FN:693,_ZN7testing8internal16UniversalPrinterIyE5PrintERKyPNSt3__113basic_ostreamIcNS5_11char_traitsIcEEEE
FNDA:0,_ZN7testing8internal16UniversalPrinterIyE5PrintERKyPNSt3__113basic_ostreamIcNS5_11char_traitsIcEEEE
FN:693,_ZN7testing8internal16UniversalPrinterI23DtsProtocolPacketHeaderE5PrintERKS2_PNSt3__113basic_ostreamIcNS6_11char_traitsIcEEEE
FNDA:0,_ZN7testing8internal16UniversalPrinterI23DtsProtocolPacketHeaderE5PrintERKS2_PNSt3__113basic_ostreamIcNS6_11char_traitsIcEEEE
FN:883,_ZN7testing8internal21UniversalTersePrinterIiE5PrintERKiPNSt3__113basic_ostreamIcNS5_11char_traitsIcEEEE
FNDA:0,_ZN7testing8internal21UniversalTersePrinterIiE5PrintERKiPNSt3__113basic_ostreamIcNS5_11char_traitsIcEEEE
FN:883,_ZN7testing8internal21UniversalTersePrinterIhE5PrintERKhPNSt3__113basic_ostreamIcNS5_11char_traitsIcEEEE
FNDA:0,_ZN7testing8internal21UniversalTersePrinterIhE5PrintERKhPNSt3__113basic_ostreamIcNS5_11char_traitsIcEEEE
FN:883,_ZN7testing8internal21UniversalTersePrinterIjE5PrintERKjPNSt3__113basic_ostreamIcNS5_11char_traitsIcEEEE
FNDA:0,_ZN7testing8internal21UniversalTersePrinterIjE5PrintERKjPNSt3__113basic_ostreamIcNS5_11char_traitsIcEEEE
FN:883,_ZN7testing8internal21UniversalTersePrinterIyE5PrintERKyPNSt3__113basic_ostreamIcNS5_11char_traitsIcEEEE
FNDA:0,_ZN7testing8internal21UniversalTersePrinterIyE5PrintERKyPNSt3__113basic_ostreamIcNS5_11char_traitsIcEEEE
FN:883,_ZN7testing8internal21UniversalTersePrinterI23DtsProtocolPacketHeaderE5PrintERKS2_PNSt3__113basic_ostreamIcNS6_11char_traitsIcEEEE
FNDA:0,_ZN7testing8internal21UniversalTersePrinterI23DtsProtocolPacketHeaderE5PrintERKS2_PNSt3__113basic_ostreamIcNS6_11char_traitsIcEEEE
FN:995,_ZN7testing8internal14UniversalPrintIiEEvRKT_PNSt3__113basic_ostreamIcNS5_11char_traitsIcEEEE
FNDA:0,_ZN7testing8internal14UniversalPrintIiEEvRKT_PNSt3__113basic_ostreamIcNS5_11char_traitsIcEEEE
FN:995,_ZN7testing8internal14UniversalPrintIhEEvRKT_PNSt3__113basic_ostreamIcNS5_11char_traitsIcEEEE
FNDA:0,_ZN7testing8internal14UniversalPrintIhEEvRKT_PNSt3__113basic_ostreamIcNS5_11char_traitsIcEEEE
FN:995,_ZN7testing8internal14UniversalPrintIjEEvRKT_PNSt3__113basic_ostreamIcNS5_11char_traitsIcEEEE
FNDA:0,_ZN7testing8internal14UniversalPrintIjEEvRKT_PNSt3__113basic_ostreamIcNS5_11char_traitsIcEEEE
FN:995,_ZN7testing8internal14UniversalPrintIyEEvRKT_PNSt3__113basic_ostreamIcNS5_11char_traitsIcEEEE
FNDA:0,_ZN7testing8internal14UniversalPrintIyEEvRKT_PNSt3__113basic_ostreamIcNS5_11char_traitsIcEEEE
FN:995,_ZN7testing8internal14UniversalPrintI23DtsProtocolPacketHeaderEEvRKT_PNSt3__113basic_ostreamIcNS6_11char_traitsIcEEEE
FNDA:0,_ZN7testing8internal14UniversalPrintI23DtsProtocolPacketHeaderEEvRKT_PNSt3__113basic_ostreamIcNS6_11char_traitsIcEEEE
FN:1035,_ZN7testing13PrintToStringIiEENSt3__112basic_stringIcNS1_11char_traitsIcEENS1_9allocatorIcEEEERKT_
FNDA:0,_ZN7testing13PrintToStringIiEENSt3__112basic_stringIcNS1_11char_traitsIcEENS1_9allocatorIcEEEERKT_
FN:1035,_ZN7testing13PrintToStringIhEENSt3__112basic_stringIcNS1_11char_traitsIcEENS1_9allocatorIcEEEERKT_
FNDA:0,_ZN7testing13PrintToStringIhEENSt3__112basic_stringIcNS1_11char_traitsIcEENS1_9allocatorIcEEEERKT_
FN:1035,_ZN7testing13PrintToStringIjEENSt3__112basic_stringIcNS1_11char_traitsIcEENS1_9allocatorIcEEEERKT_
FNDA:0,_ZN7testing13PrintToStringIjEENSt3__112basic_stringIcNS1_11char_traitsIcEENS1_9allocatorIcEEEERKT_
FN:1035,_ZN7testing13PrintToStringIyEENSt3__112basic_stringIcNS1_11char_traitsIcEENS1_9allocatorIcEEEERKT_
FNDA:0,_ZN7testing13PrintToStringIyEENSt3__112basic_stringIcNS1_11char_traitsIcEENS1_9allocatorIcEEEERKT_
FN:1035,_ZN7testing13PrintToStringI23DtsProtocolPacketHeaderEENSt3__112basic_stringIcNS2_11char_traitsIcEENS2_9allocatorIcEEEERKT_
FNDA:0,_ZN7testing13PrintToStringI23DtsProtocolPacketHeaderEENSt3__112basic_stringIcNS2_11char_traitsIcEENS2_9allocatorIcEEEERKT_
DA:213,0
DA:216,0
DA:217,0
DA:305,0
DA:311,0
DA:312,0
DA:332,0
DA:333,0
DA:412,0
DA:414,0
DA:439,0
DA:440,0
DA:441,0
DA:693,0
DA:702,0
DA:703,0
DA:883,0
DA:884,0
DA:885,0
DA:995,0
DA:999,0
DA:1000,0
DA:1035,0
DA:1036,0
DA:1037,0
DA:1038,0
DA:1039,0
FNF:48
FNH:0
LF:27
LH:0
end_of_record
SF:/Users/dogukanarat/Workspace/DevelopmentTestSystem/Binaries/Debug/Intermediate/_deps/googletest-src/googletest/include/gtest/gtest.h
FN:244,_ZN7testing4Test14SetUpTestSuiteEv
FNDA:0,_ZN7testing4Test14SetUpTestSuiteEv
FN:252,_ZN7testing4Test17TearDownTestSuiteEv
FNDA:0,_ZN7testing4Test17TearDownTestSuiteEv
FN:257,_ZN7testing4Test16TearDownTestCaseEv
FNDA:0,_ZN7testing4Test16TearDownTestCaseEv
FN:258,_ZN7testing4Test13SetUpTestCaseEv
FNDA:0,_ZN7testing4Test13SetUpTestCaseEv
FN:339,_ZN7testing4Test5SetupEv
FNDA:0,_ZN7testing4Test5SetupEv
FN:1338,_ZN7testing8internal18CmpHelperEQFailureIihEENS_15AssertionResultEPKcS4_RKT_RKT0_
FNDA:0,_ZN7testing8internal18CmpHelperEQFailureIihEENS_15AssertionResultEPKcS4_RKT_RKT0_
FN:1338,_ZN7testing8internal18CmpHelperEQFailureIijEENS_15AssertionResultEPKcS4_RKT_RKT0_
FNDA:0,_ZN7testing8internal18CmpHelperEQFailureIijEENS_15AssertionResultEPKcS4_RKT_RKT0_
FN:1338,_ZN7testing8internal18CmpHelperEQFailureIhhEENS_15AssertionResultEPKcS4_RKT_RKT0_
FNDA:0,_ZN7testing8internal18CmpHelperEQFailureIhhEENS_15AssertionResultEPKcS4_RKT_RKT0_
FN:1338,_ZN7testing8internal18CmpHelperEQFailureIhiEENS_15AssertionResultEPKcS4_RKT_RKT0_
FNDA:0,_ZN7testing8internal18CmpHelperEQFailureIhiEENS_15AssertionResultEPKcS4_RKT_RKT0_
FN:1338,_ZN7testing8internal18CmpHelperEQFailureIyyEENS_15AssertionResultEPKcS4_RKT_RKT0_
FNDA:0,_ZN7testing8internal18CmpHelperEQFailureIyyEENS_15AssertionResultEPKcS4_RKT_RKT0_
FN:1338,_ZN7testing8internal18CmpHelperEQFailureI23DtsProtocolPacketHeaderhEENS_15AssertionResultEPKcS5_RKT_RKT0_
FNDA:0,_ZN7testing8internal18CmpHelperEQFailureI23DtsProtocolPacketHeaderhEENS_15AssertionResultEPKcS5_RKT_RKT0_
FN:1355,_ZN7testing8internal11CmpHelperEQIihEENS_15AssertionResultEPKcS4_RKT_RKT0_
FNDA:0,_ZN7testing8internal11CmpHelperEQIihEENS_15AssertionResultEPKcS4_RKT_RKT0_
FN:1355,_ZN7testing8internal11CmpHelperEQIijEENS_15AssertionResultEPKcS4_RKT_RKT0_
FNDA:0,_ZN7testing8internal11CmpHelperEQIijEENS_15AssertionResultEPKcS4_RKT_RKT0_
FN:1355,_ZN7testing8internal11CmpHelperEQIhhEENS_15AssertionResultEPKcS4_RKT_RKT0_
FNDA:0,_ZN7testing8internal11CmpHelperEQIhhEENS_15AssertionResultEPKcS4_RKT_RKT0_
FN:1355,_ZN7testing8internal11CmpHelperEQIhiEENS_15AssertionResultEPKcS4_RKT_RKT0_
FNDA:9,_ZN7testing8internal11CmpHelperEQIhiEENS_15AssertionResultEPKcS4_RKT_RKT0_
FN:1355,_ZN7testing8internal11CmpHelperEQIyyEENS_15AssertionResultEPKcS4_RKT_RKT0_
FNDA:9,_ZN7testing8internal11CmpHelperEQIyyEENS_15AssertionResultEPKcS4_RKT_RKT0_
FN:1355,_ZN7testing8internal11CmpHelperEQI23DtsProtocolPacketHeaderhEENS_15AssertionResultEPKcS5_RKT_RKT0_
FNDA:3,_ZN7testing8internal11CmpHelperEQI23DtsProtocolPacketHeaderhEENS_15AssertionResultEPKcS5_RKT_RKT0_
FN:1374,_ZN7testing8internal8EqHelper7CompareIihLPv0EEENS_15AssertionResultEPKcS6_RKT_RKT0_
FNDA:0,_ZN7testing8internal8EqHelper7CompareIihLPv0EEENS_15AssertionResultEPKcS6_RKT_RKT0_
FN:1374,_ZN7testing8internal8EqHelper7CompareIijLPv0EEENS_15AssertionResultEPKcS6_RKT_RKT0_
FNDA:0,_ZN7testing8internal8EqHelper7CompareIijLPv0EEENS_15AssertionResultEPKcS6_RKT_RKT0_
FN:1374,_ZN7testing8internal8EqHelper7CompareIhhLPv0EEENS_15AssertionResultEPKcS6_RKT_RKT0_
FNDA:0,_ZN7testing8internal8EqHelper7CompareIhhLPv0EEENS_15AssertionResultEPKcS6_RKT_RKT0_
FN:1374,_ZN7testing8internal8EqHelper7CompareIhiLPv0EEENS_15AssertionResultEPKcS6_RKT_RKT0_
FNDA:9,_ZN7testing8internal8EqHelper7CompareIhiLPv0EEENS_15AssertionResultEPKcS6_RKT_RKT0_
FN:1374,_ZN7testing8internal8EqHelper7CompareIyyLPv0EEENS_15AssertionResultEPKcS6_RKT_RKT0_
FNDA:9,_ZN7testing8internal8EqHelper7CompareIyyLPv0EEENS_15AssertionResultEPKcS6_RKT_RKT0_
FN:1374,_ZN7testing8internal8EqHelper7CompareI23DtsProtocolPacketHeaderhLPv0EEENS_15AssertionResultEPKcS7_RKT_RKT0_
FNDA:3,_ZN7testing8internal8EqHelper7CompareI23DtsProtocolPacketHeaderhLPv0EEENS_15AssertionResultEPKcS7_RKT_RKT0_
DA:244,0
DA:252,0
DA:257,0
DA:258,0
DA:339,0
DA:1338,0
DA:1341,0
DA:1342,0
DA:1343,0
DA:1344,0
DA:1355,21
DA:1358,21
DA:1359,21
DA:1362,0
DA:1363,21
DA:1374,21
DA:1377,21
FNF:23
FNH:6
LF:17
LH:6
end_of_record
SF:/Library/Developer/CommandLineTools/SDKs/MacOSX12.3.sdk/usr/include/c++/v1/__memory/unique_ptr.h
FN:52,_ZNKSt3__114default_deleteINS_18basic_stringstreamIcNS_11char_traitsIcEENS_9allocatorIcEEEEEclEPS6_
FNDA:0,_ZNKSt3__114default_deleteINS_18basic_stringstreamIcNS_11char_traitsIcEENS_9allocatorIcEEEEEclEPS6_
FN:52,_ZNKSt3__114default_deleteINS_12basic_stringIcNS_11char_traitsIcEENS_9allocatorIcEEEEEclEPS6_
FNDA:0,_ZNKSt3__114default_deleteINS_12basic_stringIcNS_11char_traitsIcEENS_9allocatorIcEEEEEclEPS6_
FN:272,_ZNSt3__110unique_ptrINS_18basic_stringstreamIcNS_11char_traitsIcEENS_9allocatorIcEEEENS_14default_deleteIS6_EEED1Ev
FNDA:0,_ZNSt3__110unique_ptrINS_18basic_stringstreamIcNS_11char_traitsIcEENS_9allocatorIcEEEENS_14default_deleteIS6_EEED1Ev
FN:272,_ZNSt3__110unique_ptrINS_18basic_stringstreamIcNS_11char_traitsIcEENS_9allocatorIcEEEENS_14default_deleteIS6_EEED2Ev
FNDA:0,_ZNSt3__110unique_ptrINS_18basic_stringstreamIcNS_11char_traitsIcEENS_9allocatorIcEEEENS_14default_deleteIS6_EEED2Ev
FN:272,_ZNSt3__110unique_ptrINS_12basic_stringIcNS_11char_traitsIcEENS_9allocatorIcEEEENS_14default_deleteIS6_EEED1Ev
FNDA:0,_ZNSt3__110unique_ptrINS_12basic_stringIcNS_11char_traitsIcEENS_9allocatorIcEEEENS_14default_deleteIS6_EEED1Ev
FN:272,_ZNSt3__110unique_ptrINS_12basic_stringIcNS_11char_traitsIcEENS_9allocatorIcEEEENS_14default_deleteIS6_EEED2Ev
FNDA:0,_ZNSt3__110unique_ptrINS_12basic_stringIcNS_11char_traitsIcEENS_9allocatorIcEEEENS_14default_deleteIS6_EEED2Ev
FN:286,_ZNKSt3__110unique_ptrINS_12basic_stringIcNS_11char_traitsIcEENS_9allocatorIcEEEENS_14default_deleteIS6_EEEptEv
FNDA:0,_ZNKSt3__110unique_ptrINS_12basic_stringIcNS_11char_traitsIcEENS_9allocatorIcEEEENS_14default_deleteIS6_EEEptEv
FN:290,_ZNKSt3__110unique_ptrINS_12basic_stringIcNS_11char_traitsIcEENS_9allocatorIcEEEENS_14default_deleteIS6_EEE3getEv
FNDA:0,_ZNKSt3__110unique_ptrINS_12basic_stringIcNS_11char_traitsIcEENS_9allocatorIcEEEENS_14default_deleteIS6_EEE3getEv
FN:314,_ZNSt3__110unique_ptrINS_18basic_stringstreamIcNS_11char_traitsIcEENS_9allocatorIcEEEENS_14default_deleteIS6_EEE5resetEPS6_
FNDA:0,_ZNSt3__110unique_ptrINS_18basic_stringstreamIcNS_11char_traitsIcEENS_9allocatorIcEEEENS_14default_deleteIS6_EEE5resetEPS6_
FN:314,_ZNSt3__110unique_ptrINS_12basic_stringIcNS_11char_traitsIcEENS_9allocatorIcEEEENS_14default_deleteIS6_EEE5resetEPS6_
FNDA:0,_ZNSt3__110unique_ptrINS_12basic_stringIcNS_11char_traitsIcEENS_9allocatorIcEEEENS_14default_deleteIS6_EEE5resetEPS6_
DA:52,0
DA:57,0
DA:58,0
DA:272,0
DA:286,0
DA:287,0
DA:290,0
DA:291,0
DA:314,0
DA:315,0
DA:316,0
DA:317,0
DA:318,0
DA:319,0
FNF:10
FNH:0
LF:14
LH:0
end_of_record
SF:/Library/Developer/CommandLineTools/SDKs/MacOSX12.3.sdk/usr/include/c++/v1/__locale
FN:252,_ZNSt3__1L9use_facetINS_5ctypeIcEEEERKT_RKNS_6localeE
FNDA:0,_ZNSt3__1L9use_facetINS_5ctypeIcEEEERKT_RKNS_6localeE
FN:697,_ZNKSt3__15ctypeIcE5widenEc
FNDA:0,_ZNKSt3__15ctypeIcE5widenEc
DA:252,0
DA:254,0
DA:697,0
DA:699,0
FNF:2
FNH:0
LF:4
LH:0
end_of_record
SF:/Users/dogukanarat/Workspace/DevelopmentTestSystem/Binaries/Debug/Intermediate/_deps/googletest-src/googletest/include/gtest/internal/gtest-internal.h
FN:431,_ZN7testing8internal9GetTypeIdI15TestDtsProtocolEEPKvv
FNDA:630,_ZN7testing8internal9GetTypeIdI15TestDtsProtocolEEPKvv
FN:450,_ZN7testing8internal15TestFactoryBaseD1Ev
FNDA:0,_ZN7testing8internal15TestFactoryBaseD1Ev
FN:450,_ZN7testing8internal15TestFactoryBaseD0Ev
FNDA:0,_ZN7testing8internal15TestFactoryBaseD0Ev
FN:450,_ZN7testing8internal15TestFactoryBaseD2Ev
FNDA:0,_ZN7testing8internal15TestFactoryBaseD2Ev
FN:457,_ZN7testing8internal15TestFactoryBaseC2Ev
FNDA:0,_ZN7testing8internal15TestFactoryBaseC2Ev
FN:467,_ZN7testing8internal15TestFactoryImplI41TestDtsProtocol_dtsProtocolSetHeader_TestEC1Ev
FNDA:90,_ZN7testing8internal15TestFactoryImplI41TestDtsProtocol_dtsProtocolSetHeader_TestEC1Ev
FN:467,_ZN7testing8internal15TestFactoryImplI40TestDtsProtocol_dtsProtocolSetValue_TestEC1Ev
FNDA:90,_ZN7testing8internal15TestFactoryImplI40TestDtsProtocol_dtsProtocolSetValue_TestEC1Ev
FN:467,_ZN7testing8internal15TestFactoryImplI44TestDtsProtocol_dtsProtocolSetParameter_TestEC1Ev
FNDA:90,_ZN7testing8internal15TestFactoryImplI44TestDtsProtocol_dtsProtocolSetParameter_TestEC1Ev
FN:467,_ZN7testing8internal15TestFactoryImplI52TestDtsProtocol_dtsProtocolCreateMonitorMessage_TestEC1Ev
FNDA:90,_ZN7testing8internal15TestFactoryImplI52TestDtsProtocol_dtsProtocolCreateMonitorMessage_TestEC1Ev
FN:467,_ZN7testing8internal15TestFactoryImplI53TestDtsProtocol_dtsProtocolResolveMonitorMessage_TestEC1Ev
FNDA:90,_ZN7testing8internal15TestFactoryImplI53TestDtsProtocol_dtsProtocolResolveMonitorMessage_TestEC1Ev
FN:467,_ZN7testing8internal15TestFactoryImplI54TestDtsProtocol_dtsProtocolCreateDiscoveryMessage_TestEC1Ev
FNDA:90,_ZN7testing8internal15TestFactoryImplI54TestDtsProtocol_dtsProtocolCreateDiscoveryMessage_TestEC1Ev
FN:467,_ZN7testing8internal15TestFactoryImplI63TestDtsProtocol_dtsProtocolResolveDiscoveryResponseMessage_TestEC1Ev
FNDA:90,_ZN7testing8internal15TestFactoryImplI63TestDtsProtocol_dtsProtocolResolveDiscoveryResponseMessage_TestEC1Ev
FN:467,_ZN7testing8internal15TestFactoryImplI41TestDtsProtocol_dtsProtocolSetHeader_TestEC2Ev
FNDA:90,_ZN7testing8internal15TestFactoryImplI41TestDtsProtocol_dtsProtocolSetHeader_TestEC2Ev
FN:467,_ZN7testing8internal15TestFactoryImplI41TestDtsProtocol_dtsProtocolSetHeader_TestED1Ev
FNDA:0,_ZN7testing8internal15TestFactoryImplI41TestDtsProtocol_dtsProtocolSetHeader_TestED1Ev
FN:467,_ZN7testing8internal15TestFactoryImplI41TestDtsProtocol_dtsProtocolSetHeader_TestED0Ev
FNDA:0,_ZN7testing8internal15TestFactoryImplI41TestDtsProtocol_dtsProtocolSetHeader_TestED0Ev
FN:467,_ZN7testing8internal15TestFactoryImplI41TestDtsProtocol_dtsProtocolSetHeader_TestED2Ev
FNDA:0,_ZN7testing8internal15TestFactoryImplI41TestDtsProtocol_dtsProtocolSetHeader_TestED2Ev
FN:467,_ZN7testing8internal15TestFactoryImplI40TestDtsProtocol_dtsProtocolSetValue_TestEC2Ev
FNDA:90,_ZN7testing8internal15TestFactoryImplI40TestDtsProtocol_dtsProtocolSetValue_TestEC2Ev
FN:467,_ZN7testing8internal15TestFactoryImplI40TestDtsProtocol_dtsProtocolSetValue_TestED1Ev
FNDA:0,_ZN7testing8internal15TestFactoryImplI40TestDtsProtocol_dtsProtocolSetValue_TestED1Ev
FN:467,_ZN7testing8internal15TestFactoryImplI40TestDtsProtocol_dtsProtocolSetValue_TestED0Ev
FNDA:0,_ZN7testing8internal15TestFactoryImplI40TestDtsProtocol_dtsProtocolSetValue_TestED0Ev
FN:467,_ZN7testing8internal15TestFactoryImplI40TestDtsProtocol_dtsProtocolSetValue_TestED2Ev
FNDA:0,_ZN7testing8internal15TestFactoryImplI40TestDtsProtocol_dtsProtocolSetValue_TestED2Ev
FN:467,_ZN7testing8internal15TestFactoryImplI44TestDtsProtocol_dtsProtocolSetParameter_TestEC2Ev
FNDA:90,_ZN7testing8internal15TestFactoryImplI44TestDtsProtocol_dtsProtocolSetParameter_TestEC2Ev
FN:467,_ZN7testing8internal15TestFactoryImplI44TestDtsProtocol_dtsProtocolSetParameter_TestED1Ev
FNDA:0,_ZN7testing8internal15TestFactoryImplI44TestDtsProtocol_dtsProtocolSetParameter_TestED1Ev
FN:467,_ZN7testing8internal15TestFactoryImplI44TestDtsProtocol_dtsProtocolSetParameter_TestED0Ev
FNDA:0,_ZN7testing8internal15TestFactoryImplI44TestDtsProtocol_dtsProtocolSetParameter_TestED0Ev
FN:467,_ZN7testing8internal15TestFactoryImplI44TestDtsProtocol_dtsProtocolSetParameter_TestED2Ev
FNDA:0,_ZN7testing8internal15TestFactoryImplI44TestDtsProtocol_dtsProtocolSetParameter_TestED2Ev
FN:467,_ZN7testing8internal15TestFactoryImplI52TestDtsProtocol_dtsProtocolCreateMonitorMessage_TestEC2Ev
FNDA:90,_ZN7testing8internal15TestFactoryImplI52TestDtsProtocol_dtsProtocolCreateMonitorMessage_TestEC2Ev
FN:467,_ZN7testing8internal15TestFactoryImplI52TestDtsProtocol_dtsProtocolCreateMonitorMessage_TestED1Ev
FNDA:0,_ZN7testing8internal15TestFactoryImplI52TestDtsProtocol_dtsProtocolCreateMonitorMessage_TestED1Ev
FN:467,_ZN7testing8internal15TestFactoryImplI52TestDtsProtocol_dtsProtocolCreateMonitorMessage_TestED0Ev
FNDA:0,_ZN7testing8internal15TestFactoryImplI52TestDtsProtocol_dtsProtocolCreateMonitorMessage_TestED0Ev
FN:467,_ZN7testing8internal15TestFactoryImplI52TestDtsProtocol_dtsProtocolCreateMonitorMessage_TestED2Ev
FNDA:0,_ZN7testing8internal15TestFactoryImplI52TestDtsProtocol_dtsProtocolCreateMonitorMessage_TestED2Ev
FN:467,_ZN7testing8internal15TestFactoryImplI53TestDtsProtocol_dtsProtocolResolveMonitorMessage_TestEC2Ev
FNDA:90,_ZN7testing8internal15TestFactoryImplI53TestDtsProtocol_dtsProtocolResolveMonitorMessage_TestEC2Ev
FN:467,_ZN7testing8internal15TestFactoryImplI53TestDtsProtocol_dtsProtocolResolveMonitorMessage_TestED1Ev
FNDA:0,_ZN7testing8internal15TestFactoryImplI53TestDtsProtocol_dtsProtocolResolveMonitorMessage_TestED1Ev
FN:467,_ZN7testing8internal15TestFactoryImplI53TestDtsProtocol_dtsProtocolResolveMonitorMessage_TestED0Ev
FNDA:0,_ZN7testing8internal15TestFactoryImplI53TestDtsProtocol_dtsProtocolResolveMonitorMessage_TestED0Ev
FN:467,_ZN7testing8internal15TestFactoryImplI53TestDtsProtocol_dtsProtocolResolveMonitorMessage_TestED2Ev
FNDA:0,_ZN7testing8internal15TestFactoryImplI53TestDtsProtocol_dtsProtocolResolveMonitorMessage_TestED2Ev
FN:467,_ZN7testing8internal15TestFactoryImplI54TestDtsProtocol_dtsProtocolCreateDiscoveryMessage_TestEC2Ev
FNDA:90,_ZN7testing8internal15TestFactoryImplI54TestDtsProtocol_dtsProtocolCreateDiscoveryMessage_TestEC2Ev
FN:467,_ZN7testing8internal15TestFactoryImplI54TestDtsProtocol_dtsProtocolCreateDiscoveryMessage_TestED1Ev
FNDA:0,_ZN7testing8internal15TestFactoryImplI54TestDtsProtocol_dtsProtocolCreateDiscoveryMessage_TestED1Ev
FN:467,_ZN7testing8internal15TestFactoryImplI54TestDtsProtocol_dtsProtocolCreateDiscoveryMessage_TestED0Ev
FNDA:0,_ZN7testing8internal15TestFactoryImplI54TestDtsProtocol_dtsProtocolCreateDiscoveryMessage_TestED0Ev
FN:467,_ZN7testing8internal15TestFactoryImplI54TestDtsProtocol_dtsProtocolCreateDiscoveryMessage_TestED2Ev
FNDA:0,_ZN7testing8internal15TestFactoryImplI54TestDtsProtocol_dtsProtocolCreateDiscoveryMessage_TestED2Ev
FN:467,_ZN7testing8internal15TestFactoryImplI63TestDtsProtocol_dtsProtocolResolveDiscoveryResponseMessage_TestEC2Ev
FNDA:90,_ZN7testing8internal15TestFactoryImplI63TestDtsProtocol_dtsProtocolResolveDiscoveryResponseMessage_TestEC2Ev
FN:467,_ZN7testing8internal15TestFactoryImplI63TestDtsProtocol_dtsProtocolResolveDiscoveryResponseMessage_TestED1Ev
FNDA:0,_ZN7testing8internal15TestFactoryImplI63TestDtsProtocol_dtsProtocolResolveDiscoveryResponseMessage_TestED1Ev
FN:467,_ZN7testing8internal15TestFactoryImplI63TestDtsProtocol_dtsProtocolResolveDiscoveryResponseMessage_TestED0Ev
FNDA:0,_ZN7testing8internal15TestFactoryImplI63TestDtsProtocol_dtsProtocolResolveDiscoveryResponseMessage_TestED0Ev
FN:467,_ZN7testing8internal15TestFactoryImplI63TestDtsProtocol_dtsProtocolResolveDiscoveryResponseMessage_TestED2Ev
FNDA:0,_ZN7testing8internal15TestFactoryImplI63TestDtsProtocol_dtsProtocolResolveDiscoveryResponseMessage_TestED2Ev
FN:469,_ZN7testing8internal15TestFactoryImplI41TestDtsProtocol_dtsProtocolSetHeader_TestE10CreateTestEv
FNDA:3,_ZN7testing8internal15TestFactoryImplI41TestDtsProtocol_dtsProtocolSetHeader_TestE10CreateTestEv
FN:469,_ZN7testing8internal15TestFactoryImplI40TestDtsProtocol_dtsProtocolSetValue_TestE10CreateTestEv
FNDA:3,_ZN7testing8internal15TestFactoryImplI40TestDtsProtocol_dtsProtocolSetValue_TestE10CreateTestEv
FN:469,_ZN7testing8internal15TestFactoryImplI44TestDtsProtocol_dtsProtocolSetParameter_TestE10CreateTestEv
FNDA:3,_ZN7testing8internal15TestFactoryImplI44TestDtsProtocol_dtsProtocolSetParameter_TestE10CreateTestEv
FN:469,_ZN7testing8internal15TestFactoryImplI52TestDtsProtocol_dtsProtocolCreateMonitorMessage_TestE10CreateTestEv
FNDA:3,_ZN7testing8internal15TestFactoryImplI52TestDtsProtocol_dtsProtocolCreateMonitorMessage_TestE10CreateTestEv
FN:469,_ZN7testing8internal15TestFactoryImplI53TestDtsProtocol_dtsProtocolResolveMonitorMessage_TestE10CreateTestEv
FNDA:3,_ZN7testing8internal15TestFactoryImplI53TestDtsProtocol_dtsProtocolResolveMonitorMessage_TestE10CreateTestEv
FN:469,_ZN7testing8internal15TestFactoryImplI54TestDtsProtocol_dtsProtocolCreateDiscoveryMessage_TestE10CreateTestEv
FNDA:3,_ZN7testing8internal15TestFactoryImplI54TestDtsProtocol_dtsProtocolCreateDiscoveryMessage_TestE10CreateTestEv
FN:469,_ZN7testing8internal15TestFactoryImplI63TestDtsProtocol_dtsProtocolResolveDiscoveryResponseMessage_TestE10CreateTestEv
FNDA:3,_ZN7testing8internal15TestFactoryImplI63TestDtsProtocol_dtsProtocolResolveDiscoveryResponseMessage_TestE10CreateTestEv
FN:489,_ZN7testing8internal12CodeLocationD1Ev
FNDA:0,_ZN7testing8internal12CodeLocationD1Ev
FN:489,_ZN7testing8internal12CodeLocationD2Ev
FNDA:0,_ZN7testing8internal12CodeLocationD2Ev
FN:490,_ZN7testing8internal12CodeLocationC1ERKNSt3__112basic_stringIcNS2_11char_traitsIcEENS2_9allocatorIcEEEEi
FNDA:0,_ZN7testing8internal12CodeLocationC1ERKNSt3__112basic_stringIcNS2_11char_traitsIcEENS2_9allocatorIcEEEEi
FN:490,_ZN7testing8internal12CodeLocationC2ERKNSt3__112basic_stringIcNS2_11char_traitsIcEENS2_9allocatorIcEEEEi
FNDA:0,_ZN7testing8internal12CodeLocationC2ERKNSt3__112basic_stringIcNS2_11char_traitsIcEENS2_9allocatorIcEEEEi
FN:503,_ZN7testing8internal19GetNotDefaultOrNullEPFvvES2_
FNDA:0,_ZN7testing8internal19GetNotDefaultOrNullEPFvvES2_
FN:518,_ZN7testing8internal16SuiteApiResolverI15TestDtsProtocolE19GetSetUpCaseOrSuiteEPKci
FNDA:630,_ZN7testing8internal16SuiteApiResolverI15TestDtsProtocolE19GetSetUpCaseOrSuiteEPKci
FN:539,_ZN7testing8internal16SuiteApiResolverI15TestDtsProtocolE22GetTearDownCaseOrSuiteEPKci
FNDA:630,_ZN7testing8internal16SuiteApiResolverI15TestDtsProtocolE22GetTearDownCaseOrSuiteEPKci
DA:431,630
DA:436,630
DA:450,0
DA:457,0
DA:469,21
DA:490,0
DA:491,0
DA:503,0
DA:505,0
DA:518,630
DA:521,630
DA:522,630
DA:523,630
DA:524,630
DA:526,630
DA:527,0
DA:529,0
DA:531,630
DA:537,0
DA:539,630
DA:542,630
DA:543,630
DA:544,630
DA:545,630
DA:547,630
DA:548,0
DA:550,0
DA:552,630
DA:558,0
FNF:54
FNH:24
LF:29
LH:17
end_of_record
SF:/Library/Developer/CommandLineTools/SDKs/MacOSX12.3.sdk/usr/include/c++/v1/streambuf
FN:228,_ZNSt3__115basic_streambufIcNS_11char_traitsIcEEE5sputnEPKcl
FNDA:0,_ZNSt3__115basic_streambufIcNS_11char_traitsIcEEE5sputnEPKcl
DA:228,0
DA:229,0
FNF:1
FNH:0
LF:2
LH:0
end_of_record
SF:/Library/Developer/CommandLineTools/SDKs/MacOSX12.3.sdk/usr/include/c++/v1/__string
FN:342,_ZNSt3__111char_traitsIcE6lengthEPKc
FNDA:0,_ZNSt3__111char_traitsIcE6lengthEPKc
FN:374,_ZNSt3__111char_traitsIcE11eq_int_typeEii
FNDA:0,_ZNSt3__111char_traitsIcE11eq_int_typeEii
FN:376,_ZNSt3__111char_traitsIcE3eofEv
FNDA:0,_ZNSt3__111char_traitsIcE3eofEv
DA:342,0
DA:374,0
DA:375,0
DA:376,0
DA:377,0
FNF:3
FNH:0
LF:5
LH:0
end_of_record
SF:/Library/Developer/CommandLineTools/SDKs/MacOSX12.3.sdk/usr/include/c++/v1/__memory/pointer_traits.h
FN:152,_ZNSt3__114pointer_traitsIPKcE10pointer_toERS1_
FNDA:0,_ZNSt3__114pointer_traitsIPKcE10pointer_toERS1_
FN:173,_ZNSt3__1L12__to_addressIKcEEPT_S3_
FNDA:0,_ZNSt3__1L12__to_addressIKcEEPT_S3_
DA:152,0
DA:154,0
DA:173,0
DA:175,0
FNF:2
FNH:0
LF:4
LH:0
end_of_record
SF:/Library/Developer/CommandLineTools/SDKs/MacOSX12.3.sdk/usr/include/c++/v1/ostream
FN:234,_ZNSt3__113basic_ostreamIcNS_11char_traitsIcEEEC2Ev
FNDA:0,_ZNSt3__113basic_ostreamIcNS_11char_traitsIcEEEC2Ev
FN:251,_ZNKSt3__113basic_ostreamIcNS_11char_traitsIcEEE6sentrycvbEv
FNDA:0,_ZNKSt3__113basic_ostreamIcNS_11char_traitsIcEEE6sentrycvbEv
FN:707,_ZNSt3__124__put_character_sequenceIcNS_11char_traitsIcEEEERNS_13basic_ostreamIT_T0_EES7_PKS4_m
FNDA:0,_ZNSt3__124__put_character_sequenceIcNS_11char_traitsIcEEEERNS_13basic_ostreamIT_T0_EES7_PKS4_m
FN:855,_ZNSt3__1lsINS_11char_traitsIcEEEERNS_13basic_ostreamIcT_EES6_PKc
FNDA:0,_ZNSt3__1lsINS_11char_traitsIcEEEERNS_13basic_ostreamIcT_EES6_PKc
DA:234,0
DA:251,0
DA:707,0
DA:714,0
DA:715,0
DA:718,0
DA:719,0
DA:720,0
DA:721,0
DA:722,0
DA:723,0
DA:724,0
DA:725,0
DA:726,0
DA:727,0
DA:729,0
DA:732,0
DA:733,0
DA:735,0
DA:736,0
DA:855,0
DA:857,0
FNF:4
FNH:0
LF:22
LH:0
end_of_record
SF:/Library/Developer/CommandLineTools/SDKs/MacOSX12.3.sdk/usr/include/c++/v1/__utility/forward.h
FN:27,_ZNSt3__1L7forwardINS_18__default_init_tagEEEOT_RNS_16remove_referenceIS2_E4typeE
FNDA:1260,_ZNSt3__1L7forwardINS_18__default_init_tagEEEOT_RNS_16remove_referenceIS2_E4typeE
DA:27,1260
DA:28,1260
FNF:1
FNH:1
LF:2
LH:2
end_of_record
SF:/Users/dogukanarat/Workspace/DevelopmentTestSystem/Tests/UnitTest/TestDtsProtocol.h
FN:19,_ZN15TestDtsProtocolC2Ev
FNDA:21,_ZN15TestDtsProtocolC2Ev
FN:22,_ZN15TestDtsProtocolD1Ev
FNDA:0,_ZN15TestDtsProtocolD1Ev
FN:22,_ZN15TestDtsProtocolD0Ev
FNDA:0,_ZN15TestDtsProtocolD0Ev
FN:22,_ZN15TestDtsProtocolD2Ev
FNDA:21,_ZN15TestDtsProtocolD2Ev
FN:26,_ZN15TestDtsProtocol5SetUpEv
FNDA:21,_ZN15TestDtsProtocol5SetUpEv
FN:34,_ZN15TestDtsProtocol8TearDownEv
FNDA:21,_ZN15TestDtsProtocol8TearDownEv
DA:19,63
DA:20,42
DA:21,21
DA:22,21
DA:23,0
DA:24,21
DA:26,21
DA:28,21
DA:29,21
DA:32,21
DA:34,21
DA:36,21
FNF:6
FNH:4
LF:12
LH:11
end_of_record
SF:/Library/Developer/CommandLineTools/SDKs/MacOSX12.3.sdk/usr/include/c++/v1/istream
FN:191,_ZNSt3__113basic_istreamIcNS_11char_traitsIcEEEC2EPNS_15basic_streambufIcS2_EE
FNDA:0,_ZNSt3__113basic_istreamIcNS_11char_traitsIcEEEC2EPNS_15basic_streambufIcS2_EE
FN:1405,_ZNSt3__114basic_iostreamIcNS_11char_traitsIcEEEC2EPNS_15basic_streambufIcS2_EE
FNDA:0,_ZNSt3__114basic_iostreamIcNS_11char_traitsIcEEEC2EPNS_15basic_streambufIcS2_EE
DA:191,0
DA:192,0
DA:1405,0
DA:1406,0
DA:1407,0
FNF:2
FNH:0
LF:5
LH:0
end_of_record
SF:/Users/dogukanarat/Workspace/DevelopmentTestSystem/Binaries/Debug/Intermediate/_deps/googletest-src/googletest/include/gtest/internal/gtest-port.h
FN:967,_ZN7testing8internal8GTestLog9GetStreamEv
FNDA:0,_ZN7testing8internal8GTestLog9GetStreamEv
DA:967,0
FNF:1
FNH:0
LF:1
LH:0
end_of_record
SF:/Library/Developer/CommandLineTools/SDKs/MacOSX12.3.sdk/usr/include/c++/v1/locale
FN:1395,_ZNSt3__116__pad_and_outputIcNS_11char_traitsIcEEEENS_19ostreambuf_iteratorIT_T0_EES6_PKS4_S8_S8_RNS_8ios_baseES4_
FNDA:0,_ZNSt3__116__pad_and_outputIcNS_11char_traitsIcEEEENS_19ostreambuf_iteratorIT_T0_EES6_PKS4_S8_S8_RNS_8ios_baseES4_
DA:1395,0
DA:1399,0
DA:1400,0
DA:1401,0
DA:1402,0
DA:1403,0
DA:1404,0
DA:1406,0
DA:1407,0
DA:1408,0
DA:1410,0
DA:1412,0
DA:1413,0
DA:1415,0
DA:1416,0
DA:1418,0
DA:1419,0
DA:1421,0
DA:1422,0
DA:1424,0
DA:1425,0
DA:1426,0
DA:1428,0
DA:1430,0
DA:1431,0
DA:1433,0
DA:1434,0
DA:1435,0
DA:1436,0
FNF:1
FNH:0
LF:29
LH:0
end_of_record
SF:/Library/Developer/CommandLineTools/SDKs/MacOSX12.3.sdk/usr/include/c++/v1/string
FN:840,_ZNSt3__112basic_stringIcNS_11char_traitsIcEENS_9allocatorIcEEEC1IDnEEPKc
FNDA:630,_ZNSt3__112basic_stringIcNS_11char_traitsIcEENS_9allocatorIcEEEC1IDnEEPKc
FN:840,_ZNSt3__112basic_stringIcNS_11char_traitsIcEENS_9allocatorIcEEEC2IDnEEPKc
FNDA:630,_ZNSt3__112basic_stringIcNS_11char_traitsIcEENS_9allocatorIcEEEC2IDnEEPKc
FN:1263,_ZNKSt3__112basic_stringIcNS_11char_traitsIcEENS_9allocatorIcEEE5c_strEv
FNDA:0,_ZNKSt3__112basic_stringIcNS_11char_traitsIcEENS_9allocatorIcEEE5c_strEv
FN:1265,_ZNKSt3__112basic_stringIcNS_11char_traitsIcEENS_9allocatorIcEEE4dataEv
FNDA:0,_ZNKSt3__112basic_stringIcNS_11char_traitsIcEENS_9allocatorIcEEE4dataEv
FN:1458,_ZNKSt3__112basic_stringIcNS_11char_traitsIcEENS_9allocatorIcEEE9__is_longEv
FNDA:0,_ZNKSt3__112basic_stringIcNS_11char_traitsIcEENS_9allocatorIcEEE9__is_longEv
FN:1540,_ZNKSt3__112basic_stringIcNS_11char_traitsIcEENS_9allocatorIcEEE18__get_long_pointerEv
FNDA:0,_ZNKSt3__112basic_stringIcNS_11char_traitsIcEENS_9allocatorIcEEE18__get_long_pointerEv
FN:1546,_ZNKSt3__112basic_stringIcNS_11char_traitsIcEENS_9allocatorIcEEE19__get_short_pointerEv
FNDA:0,_ZNKSt3__112basic_stringIcNS_11char_traitsIcEENS_9allocatorIcEEE19__get_short_pointerEv
FN:1552,_ZNKSt3__112basic_stringIcNS_11char_traitsIcEENS_9allocatorIcEEE13__get_pointerEv
FNDA:0,_ZNKSt3__112basic_stringIcNS_11char_traitsIcEENS_9allocatorIcEEE13__get_pointerEv
FN:1556,_ZNSt3__112basic_stringIcNS_11char_traitsIcEENS_9allocatorIcEEE6__zeroEv
FNDA:0,_ZNSt3__112basic_stringIcNS_11char_traitsIcEENS_9allocatorIcEEE6__zeroEv
FN:1829,_ZNSt3__112basic_stringIcNS_11char_traitsIcEENS_9allocatorIcEEEC1Ev
FNDA:0,_ZNSt3__112basic_stringIcNS_11char_traitsIcEENS_9allocatorIcEEEC1Ev
FN:1829,_ZNSt3__112basic_stringIcNS_11char_traitsIcEENS_9allocatorIcEEEC2Ev
FNDA:0,_ZNSt3__112basic_stringIcNS_11char_traitsIcEENS_9allocatorIcEEEC2Ev
FN:2056,_ZNSt3__112basic_stringIcNS_11char_traitsIcEENS_9allocatorIcEEEC1Emc
FNDA:0,_ZNSt3__112basic_stringIcNS_11char_traitsIcEENS_9allocatorIcEEEC1Emc
FN:2056,_ZNSt3__112basic_stringIcNS_11char_traitsIcEENS_9allocatorIcEEEC2Emc
FNDA:0,_ZNSt3__112basic_stringIcNS_11char_traitsIcEENS_9allocatorIcEEEC2Emc
DA:840,1260
DA:842,630
DA:846,1260
DA:1263,0
DA:1265,0
DA:1458,0
DA:1459,0
DA:1540,0
DA:1541,0
DA:1546,0
DA:1547,0
DA:1552,0
DA:1553,0
DA:1556,0
DA:1558,0
DA:1559,0
DA:1560,0
DA:1561,0
DA:1829,0
DA:1831,0
DA:1832,0
DA:1836,0
DA:1837,0
DA:2056,0
DA:2057,0
DA:2058,0
DA:2059,0
DA:2063,0
FNF:13
FNH:2
LF:28
LH:3
end_of_record
SF:/Library/Developer/CommandLineTools/SDKs/MacOSX12.3.sdk/usr/include/c++/v1/__memory/allocator.h
FN:74,_ZNSt3__116__non_trivial_ifILb1ENS_9allocatorIcEEEC2Ev
FNDA:630,_ZNSt3__116__non_trivial_ifILb1ENS_9allocatorIcEEEC2Ev
FN:94,_ZNSt3__19allocatorIcEC2Ev
FNDA:630,_ZNSt3__19allocatorIcEC2Ev
DA:74,630
DA:94,630
FNF:2
FNH:2
LF:2
LH:2
end_of_record
SF:/Library/Developer/CommandLineTools/SDKs/MacOSX12.3.sdk/usr/include/c++/v1/__memory/compressed_pair.h
FN:41,_ZNSt3__122__compressed_pair_elemINS_12basic_stringIcNS_11char_traitsIcEENS_9allocatorIcEEE5__repELi0ELb0EEC2ENS_18__default_init_tagE
FNDA:630,_ZNSt3__122__compressed_pair_elemINS_12basic_stringIcNS_11char_traitsIcEENS_9allocatorIcEEE5__repELi0ELb0EEC2ENS_18__default_init_tagE
FN:65,_ZNSt3__122__compressed_pair_elemIPNS_18basic_stringstreamIcNS_11char_traitsIcEENS_9allocatorIcEEEELi0ELb0EE5__getEv
FNDA:0,_ZNSt3__122__compressed_pair_elemIPNS_18basic_stringstreamIcNS_11char_traitsIcEENS_9allocatorIcEEEELi0ELb0EE5__getEv
FN:65,_ZNSt3__122__compressed_pair_elemIPNS_12basic_stringIcNS_11char_traitsIcEENS_9allocatorIcEEEELi0ELb0EE5__getEv
FNDA:0,_ZNSt3__122__compressed_pair_elemIPNS_12basic_stringIcNS_11char_traitsIcEENS_9allocatorIcEEEELi0ELb0EE5__getEv
FN:65,_ZNSt3__122__compressed_pair_elemINS_12basic_stringIcNS_11char_traitsIcEENS_9allocatorIcEEE5__repELi0ELb0EE5__getEv
FNDA:0,_ZNSt3__122__compressed_pair_elemINS_12basic_stringIcNS_11char_traitsIcEENS_9allocatorIcEEE5__repELi0ELb0EE5__getEv
FN:67,_ZNKSt3__122__compressed_pair_elemIPNS_12basic_stringIcNS_11char_traitsIcEENS_9allocatorIcEEEELi0ELb0EE5__getEv
FNDA:0,_ZNKSt3__122__compressed_pair_elemIPNS_12basic_stringIcNS_11char_traitsIcEENS_9allocatorIcEEEELi0ELb0EE5__getEv
FN:67,_ZNKSt3__122__compressed_pair_elemINS_12basic_stringIcNS_11char_traitsIcEENS_9allocatorIcEEE5__repELi0ELb0EE5__getEv
FNDA:0,_ZNKSt3__122__compressed_pair_elemINS_12basic_stringIcNS_11char_traitsIcEENS_9allocatorIcEEE5__repELi0ELb0EE5__getEv
FN:82,_ZNSt3__122__compressed_pair_elemINS_9allocatorIcEELi1ELb1EEC2ENS_18__default_init_tagE
FNDA:630,_ZNSt3__122__compressed_pair_elemINS_9allocatorIcEELi1ELb1EEC2ENS_18__default_init_tagE
FN:103,_ZNSt3__122__compressed_pair_elemINS_14default_deleteINS_18basic_stringstreamIcNS_11char_traitsIcEENS_9allocatorIcEEEEEELi1ELb1EE5__getEv
FNDA:0,_ZNSt3__122__compressed_pair_elemINS_14default_deleteINS_18basic_stringstreamIcNS_11char_traitsIcEENS_9allocatorIcEEEEEELi1ELb1EE5__getEv
FN:103,_ZNSt3__122__compressed_pair_elemINS_14default_deleteINS_12basic_stringIcNS_11char_traitsIcEENS_9allocatorIcEEEEEELi1ELb1EE5__getEv
FNDA:0,_ZNSt3__122__compressed_pair_elemINS_14default_deleteINS_12basic_stringIcNS_11char_traitsIcEENS_9allocatorIcEEEEEELi1ELb1EE5__getEv
FN:135,_ZNSt3__117__compressed_pairINS_12basic_stringIcNS_11char_traitsIcEENS_9allocatorIcEEE5__repES5_EC1INS_18__default_init_tagESA_EEOT_OT0_
FNDA:630,_ZNSt3__117__compressed_pairINS_12basic_stringIcNS_11char_traitsIcEENS_9allocatorIcEEE5__repES5_EC1INS_18__default_init_tagESA_EEOT_OT0_
FN:135,_ZNSt3__117__compressed_pairINS_12basic_stringIcNS_11char_traitsIcEENS_9allocatorIcEEE5__repES5_EC2INS_18__default_init_tagESA_EEOT_OT0_
FNDA:630,_ZNSt3__117__compressed_pairINS_12basic_stringIcNS_11char_traitsIcEENS_9allocatorIcEEE5__repES5_EC2INS_18__default_init_tagESA_EEOT_OT0_
FN:150,_ZNSt3__117__compressed_pairIPNS_18basic_stringstreamIcNS_11char_traitsIcEENS_9allocatorIcEEEENS_14default_deleteIS6_EEE5firstEv
FNDA:0,_ZNSt3__117__compressed_pairIPNS_18basic_stringstreamIcNS_11char_traitsIcEENS_9allocatorIcEEEENS_14default_deleteIS6_EEE5firstEv
FN:150,_ZNSt3__117__compressed_pairIPNS_12basic_stringIcNS_11char_traitsIcEENS_9allocatorIcEEEENS_14default_deleteIS6_EEE5firstEv
FNDA:0,_ZNSt3__117__compressed_pairIPNS_12basic_stringIcNS_11char_traitsIcEENS_9allocatorIcEEEENS_14default_deleteIS6_EEE5firstEv
FN:150,_ZNSt3__117__compressed_pairINS_12basic_stringIcNS_11char_traitsIcEENS_9allocatorIcEEE5__repES5_E5firstEv
FNDA:0,_ZNSt3__117__compressed_pairINS_12basic_stringIcNS_11char_traitsIcEENS_9allocatorIcEEE5__repES5_E5firstEv
FN:155,_ZNKSt3__117__compressed_pairIPNS_12basic_stringIcNS_11char_traitsIcEENS_9allocatorIcEEEENS_14default_deleteIS6_EEE5firstEv
FNDA:0,_ZNKSt3__117__compressed_pairIPNS_12basic_stringIcNS_11char_traitsIcEENS_9allocatorIcEEEENS_14default_deleteIS6_EEE5firstEv
FN:155,_ZNKSt3__117__compressed_pairINS_12basic_stringIcNS_11char_traitsIcEENS_9allocatorIcEEE5__repES5_E5firstEv
FNDA:0,_ZNKSt3__117__compressed_pairINS_12basic_stringIcNS_11char_traitsIcEENS_9allocatorIcEEE5__repES5_E5firstEv
FN:160,_ZNSt3__117__compressed_pairIPNS_18basic_stringstreamIcNS_11char_traitsIcEENS_9allocatorIcEEEENS_14default_deleteIS6_EEE6secondEv
FNDA:0,_ZNSt3__117__compressed_pairIPNS_18basic_stringstreamIcNS_11char_traitsIcEENS_9allocatorIcEEEENS_14default_deleteIS6_EEE6secondEv
FN:160,_ZNSt3__117__compressed_pairIPNS_12basic_stringIcNS_11char_traitsIcEENS_9allocatorIcEEEENS_14default_deleteIS6_EEE6secondEv
FNDA:0,_ZNSt3__117__compressed_pairIPNS_12basic_stringIcNS_11char_traitsIcEENS_9allocatorIcEEEENS_14default_deleteIS6_EEE6secondEv
DA:41,630
DA:65,0
DA:67,0
DA:82,630
DA:103,0
DA:135,1260
DA:136,1260
DA:150,0
DA:151,0
DA:155,0
DA:156,0
DA:160,0
DA:161,0
FNF:18
FNH:4
LF:13
LH:4
end_of_record
SF:/Library/Developer/CommandLineTools/SDKs/MacOSX12.3.sdk/usr/include/c++/v1/__memory/addressof.h
FN:30,_ZNSt3__1L9addressofIKcEEPT_RS2_
FNDA:0,_ZNSt3__1L9addressofIKcEEPT_RS2_
DA:30,0
DA:32,0
FNF:1
FNH:0
LF:2
LH:0
end_of_record
SF:/Users/dogukanarat/Workspace/DevelopmentTestSystem/Tests/UnitTest/TestDtsProtocol.cpp
FN:0,__cxx_global_var_init
FNDA:90,__cxx_global_var_init
FN:0,__cxx_global_var_init.11
FNDA:90,__cxx_global_var_init.11
FN:0,__cxx_global_var_init.18
FNDA:90,__cxx_global_var_init.18
FN:0,__cxx_global_var_init.27
FNDA:90,__cxx_global_var_init.27
FN:0,__cxx_global_var_init.44
FNDA:90,__cxx_global_var_init.44
FN:0,__cxx_global_var_init.52
FNDA:90,__cxx_global_var_init.52
FN:0,__cxx_global_var_init.56
FNDA:90,__cxx_global_var_init.56
FN:10,_ZN41TestDtsProtocol_dtsProtocolSetHeader_Test8TestBodyEv
FNDA:3,_ZN41TestDtsProtocol_dtsProtocolSetHeader_Test8TestBodyEv
FN:10,_ZN41TestDtsProtocol_dtsProtocolSetHeader_TestD1Ev
FNDA:3,_ZN41TestDtsProtocol_dtsProtocolSetHeader_TestD1Ev
FN:10,_ZN41TestDtsProtocol_dtsProtocolSetHeader_TestD0Ev
FNDA:3,_ZN41TestDtsProtocol_dtsProtocolSetHeader_TestD0Ev
FN:10,_ZN41TestDtsProtocol_dtsProtocolSetHeader_TestC1Ev
FNDA:3,_ZN41TestDtsProtocol_dtsProtocolSetHeader_TestC1Ev
FN:10,_ZN41TestDtsProtocol_dtsProtocolSetHeader_TestC2Ev
FNDA:3,_ZN41TestDtsProtocol_dtsProtocolSetHeader_TestC2Ev
FN:10,_ZN41TestDtsProtocol_dtsProtocolSetHeader_TestD2Ev
FNDA:3,_ZN41TestDtsProtocol_dtsProtocolSetHeader_TestD2Ev
FN:30,_ZN40TestDtsProtocol_dtsProtocolSetValue_Test8TestBodyEv
FNDA:3,_ZN40TestDtsProtocol_dtsProtocolSetValue_Test8TestBodyEv
FN:30,_ZN40TestDtsProtocol_dtsProtocolSetValue_TestD1Ev
FNDA:3,_ZN40TestDtsProtocol_dtsProtocolSetValue_TestD1Ev
FN:30,_ZN40TestDtsProtocol_dtsProtocolSetValue_TestD0Ev
FNDA:3,_ZN40TestDtsProtocol_dtsProtocolSetValue_TestD0Ev
FN:30,_ZN40TestDtsProtocol_dtsProtocolSetValue_TestC1Ev
FNDA:3,_ZN40TestDtsProtocol_dtsProtocolSetValue_TestC1Ev
FN:30,_ZN40TestDtsProtocol_dtsProtocolSetValue_TestC2Ev
FNDA:3,_ZN40TestDtsProtocol_dtsProtocolSetValue_TestC2Ev
FN:30,_ZN40TestDtsProtocol_dtsProtocolSetValue_TestD2Ev
FNDA:3,_ZN40TestDtsProtocol_dtsProtocolSetValue_TestD2Ev
FN:53,_ZN44TestDtsProtocol_dtsProtocolSetParameter_Test8TestBodyEv
FNDA:3,_ZN44TestDtsProtocol_dtsProtocolSetParameter_Test8TestBodyEv
FN:53,_ZN44TestDtsProtocol_dtsProtocolSetParameter_TestD1Ev
FNDA:3,_ZN44TestDtsProtocol_dtsProtocolSetParameter_TestD1Ev
FN:53,_ZN44TestDtsProtocol_dtsProtocolSetParameter_TestD0Ev
FNDA:3,_ZN44TestDtsProtocol_dtsProtocolSetParameter_TestD0Ev
FN:53,_ZN44TestDtsProtocol_dtsProtocolSetParameter_TestC1Ev
FNDA:3,_ZN44TestDtsProtocol_dtsProtocolSetParameter_TestC1Ev
FN:53,_ZN44TestDtsProtocol_dtsProtocolSetParameter_TestC2Ev
FNDA:3,_ZN44TestDtsProtocol_dtsProtocolSetParameter_TestC2Ev
FN:53,_ZN44TestDtsProtocol_dtsProtocolSetParameter_TestD2Ev
FNDA:3,_ZN44TestDtsProtocol_dtsProtocolSetParameter_TestD2Ev
FN:86,_ZN52TestDtsProtocol_dtsProtocolCreateMonitorMessage_Test8TestBodyEv
FNDA:3,_ZN52TestDtsProtocol_dtsProtocolCreateMonitorMessage_Test8TestBodyEv
FN:86,_ZN52TestDtsProtocol_dtsProtocolCreateMonitorMessage_TestD1Ev
FNDA:3,_ZN52TestDtsProtocol_dtsProtocolCreateMonitorMessage_TestD1Ev
FN:86,_ZN52TestDtsProtocol_dtsProtocolCreateMonitorMessage_TestD0Ev
FNDA:3,_ZN52TestDtsProtocol_dtsProtocolCreateMonitorMessage_TestD0Ev
FN:86,_ZN52TestDtsProtocol_dtsProtocolCreateMonitorMessage_TestC1Ev
FNDA:3,_ZN52TestDtsProtocol_dtsProtocolCreateMonitorMessage_TestC1Ev
FN:86,_ZN52TestDtsProtocol_dtsProtocolCreateMonitorMessage_TestC2Ev
FNDA:3,_ZN52TestDtsProtocol_dtsProtocolCreateMonitorMessage_TestC2Ev
FN:86,_ZN52TestDtsProtocol_dtsProtocolCreateMonitorMessage_TestD2Ev
FNDA:3,_ZN52TestDtsProtocol_dtsProtocolCreateMonitorMessage_TestD2Ev
FN:173,_ZN53TestDtsProtocol_dtsProtocolResolveMonitorMessage_Test8TestBodyEv
FNDA:3,_ZN53TestDtsProtocol_dtsProtocolResolveMonitorMessage_Test8TestBodyEv
FN:173,_ZN53TestDtsProtocol_dtsProtocolResolveMonitorMessage_TestD1Ev
FNDA:3,_ZN53TestDtsProtocol_dtsProtocolResolveMonitorMessage_TestD1Ev
FN:173,_ZN53TestDtsProtocol_dtsProtocolResolveMonitorMessage_TestD0Ev
FNDA:3,_ZN53TestDtsProtocol_dtsProtocolResolveMonitorMessage_TestD0Ev
FN:173,_ZN53TestDtsProtocol_dtsProtocolResolveMonitorMessage_TestC1Ev
FNDA:3,_ZN53TestDtsProtocol_dtsProtocolResolveMonitorMessage_TestC1Ev
FN:173,_ZN53TestDtsProtocol_dtsProtocolResolveMonitorMessage_TestC2Ev
FNDA:3,_ZN53TestDtsProtocol_dtsProtocolResolveMonitorMessage_TestC2Ev
FN:173,_ZN53TestDtsProtocol_dtsProtocolResolveMonitorMessage_TestD2Ev
FNDA:3,_ZN53TestDtsProtocol_dtsProtocolResolveMonitorMessage_TestD2Ev
FN:237,_ZN54TestDtsProtocol_dtsProtocolCreateDiscoveryMessage_Test8TestBodyEv
FNDA:3,_ZN54TestDtsProtocol_dtsProtocolCreateDiscoveryMessage_Test8TestBodyEv
FN:237,_ZN54TestDtsProtocol_dtsProtocolCreateDiscoveryMessage_TestD1Ev
FNDA:3,_ZN54TestDtsProtocol_dtsProtocolCreateDiscoveryMessage_TestD1Ev
FN:237,_ZN54TestDtsProtocol_dtsProtocolCreateDiscoveryMessage_TestD0Ev
FNDA:3,_ZN54TestDtsProtocol_dtsProtocolCreateDiscoveryMessage_TestD0Ev
FN:237,_ZN54TestDtsProtocol_dtsProtocolCreateDiscoveryMessage_TestC1Ev
FNDA:3,_ZN54TestDtsProtocol_dtsProtocolCreateDiscoveryMessage_TestC1Ev
FN:237,_ZN54TestDtsProtocol_dtsProtocolCreateDiscoveryMessage_TestC2Ev
FNDA:3,_ZN54TestDtsProtocol_dtsProtocolCreateDiscoveryMessage_TestC2Ev
FN:237,_ZN54TestDtsProtocol_dtsProtocolCreateDiscoveryMessage_TestD2Ev
FNDA:3,_ZN54TestDtsProtocol_dtsProtocolCreateDiscoveryMessage_TestD2Ev
FN:258,_ZN63TestDtsProtocol_dtsProtocolResolveDiscoveryResponseMessage_Test8TestBodyEv
FNDA:3,_ZN63TestDtsProtocol_dtsProtocolResolveDiscoveryResponseMessage_Test8TestBodyEv
FN:258,_ZN63TestDtsProtocol_dtsProtocolResolveDiscoveryResponseMessage_TestD1Ev
FNDA:3,_ZN63TestDtsProtocol_dtsProtocolResolveDiscoveryResponseMessage_TestD1Ev
FN:258,_ZN63TestDtsProtocol_dtsProtocolResolveDiscoveryResponseMessage_TestD0Ev
FNDA:3,_ZN63TestDtsProtocol_dtsProtocolResolveDiscoveryResponseMessage_TestD0Ev
FN:258,_ZN63TestDtsProtocol_dtsProtocolResolveDiscoveryResponseMessage_TestC1Ev
FNDA:3,_ZN63TestDtsProtocol_dtsProtocolResolveDiscoveryResponseMessage_TestC1Ev
FN:258,_ZN63TestDtsProtocol_dtsProtocolResolveDiscoveryResponseMessage_TestC2Ev
FNDA:3,_ZN63TestDtsProtocol_dtsProtocolResolveDiscoveryResponseMessage_TestC2Ev
FN:258,_ZN63TestDtsProtocol_dtsProtocolResolveDiscoveryResponseMessage_TestD2Ev
FNDA:3,_ZN63TestDtsProtocol_dtsProtocolResolveDiscoveryResponseMessage_TestD2Ev
DA:10,108
DA:14,3
DA:16,3
DA:18,3
DA:20,3
DA:22,3
DA:24,3
DA:25,3
DA:27,3
DA:28,3
DA:30,108
DA:34,3
DA:35,3
DA:37,3
DA:39,3
DA:41,3
DA:43,3
DA:45,3
DA:46,3
DA:47,3
DA:48,3
DA:50,3
DA:51,3
DA:53,108
DA:57,3
DA:59,3
DA:61,3
DA:63,3
DA:65,3
DA:67,3
DA:69,3
DA:72,3
DA:73,3
DA:76,3
DA:77,3
DA:80,3
DA:81,3
DA:82,3
DA:83,3
DA:84,3
DA:86,108
DA:90,3
DA:92,3
DA:94,3
DA:96,3
DA:99,3
DA:101,3
DA:102,3
DA:107,3
DA:108,3
DA:110,3
DA:112,3
DA:114,3
DA:116,3
DA:119,3
DA:120,3
DA:123,3
DA:124,3
DA:128,3
DA:129,3
DA:132,3
DA:133,3
DA:136,3
DA:137,3
DA:138,3
DA:139,3
DA:140,3
DA:141,3
DA:142,3
DA:143,3
DA:147,3
DA:148,3
DA:151,3
DA:152,3
DA:155,3
DA:156,3
DA:157,3
DA:158,3
DA:162,3
DA:163,3
DA:166,3
DA:167,3
DA:170,3
DA:171,3
DA:173,108
DA:178,3
DA:180,3
DA:182,3
DA:184,3
DA:186,3
DA:188,3
DA:191,3
DA:193,3
DA:194,3
DA:199,3
DA:200,3
DA:202,3
DA:204,3
DA:208,3
DA:214,3
DA:216,3
DA:218,3
DA:220,3
DA:225,3
DA:230,3
DA:235,3
DA:237,108
DA:241,3
DA:243,3
DA:245,3
DA:247,3
DA:249,3
DA:251,3
DA:254,3
DA:255,3
DA:256,3
DA:258,108
DA:262,3
DA:264,3
DA:266,3
DA:268,3
DA:270,3
DA:272,3
DA:275,3
DA:277,3
DA:279,3
DA:281,3
DA:283,3
DA:284,3
FNF:49
FNH:49
LF:129
LH:129
end_of_record
SF:/Library/Developer/CommandLineTools/SDKs/MacOSX12.3.sdk/usr/include/c++/v1/ios
FN:344,_ZNSt3__18ios_baseC2Ev
FNDA:0,_ZNSt3__18ios_baseC2Ev
FN:348,_ZNKSt3__18ios_base5rdbufEv
FNDA:0,_ZNKSt3__18ios_base5rdbufEv
FN:459,_ZNKSt3__18ios_base5flagsEv
FNDA:0,_ZNKSt3__18ios_base5flagsEv
FN:521,_ZNKSt3__18ios_base5widthEv
FNDA:0,_ZNKSt3__18ios_base5widthEv
FN:528,_ZNSt3__18ios_base5widthEl
FNDA:0,_ZNSt3__18ios_base5widthEl
FN:546,_ZNSt3__18ios_base8setstateEj
FNDA:0,_ZNSt3__18ios_base8setstateEj
FN:623,_ZNSt3__19basic_iosIcNS_11char_traitsIcEEE8setstateEj
FNDA:0,_ZNSt3__19basic_iosIcNS_11char_traitsIcEEE8setstateEj
FN:665,_ZNSt3__19basic_iosIcNS_11char_traitsIcEEEC2Ev
FNDA:0,_ZNSt3__19basic_iosIcNS_11char_traitsIcEEEC2Ev
FN:698,_ZNSt3__19basic_iosIcNS_11char_traitsIcEEE4initEPNS_15basic_streambufIcS2_EE
FNDA:0,_ZNSt3__19basic_iosIcNS_11char_traitsIcEEE4initEPNS_15basic_streambufIcS2_EE
FN:726,_ZNKSt3__19basic_iosIcNS_11char_traitsIcEEE5rdbufEv
FNDA:0,_ZNKSt3__19basic_iosIcNS_11char_traitsIcEEE5rdbufEv
FN:764,_ZNKSt3__19basic_iosIcNS_11char_traitsIcEEE5widenEc
FNDA:0,_ZNKSt3__19basic_iosIcNS_11char_traitsIcEEE5widenEc
FN:772,_ZNKSt3__19basic_iosIcNS_11char_traitsIcEEE4fillEv
FNDA:0,_ZNKSt3__19basic_iosIcNS_11char_traitsIcEEE4fillEv
DA:344,0
DA:345,0
DA:348,0
DA:459,0
DA:461,0
DA:521,0
DA:523,0
DA:528,0
DA:530,0
DA:531,0
DA:532,0
DA:546,0
DA:548,0
DA:549,0
DA:623,0
DA:665,0
DA:666,0
DA:698,0
DA:700,0
DA:701,0
DA:702,0
DA:703,0
DA:726,0
DA:728,0
DA:764,0
DA:766,0
DA:767,0
DA:772,0
DA:774,0
DA:775,0
DA:776,0
FNF:12
FNH:0
LF:31
LH:0
end_of_record
SF:/Library/Developer/CommandLineTools/SDKs/MacOSX12.3.sdk/usr/include/c++/v1/sstream
FN:227,_ZNSt3__115basic_stringbufIcNS_11char_traitsIcEENS_9allocatorIcEEEC1Ej
FNDA:0,_ZNSt3__115basic_stringbufIcNS_11char_traitsIcEENS_9allocatorIcEEEC1Ej
FN:227,_ZNSt3__115basic_stringbufIcNS_11char_traitsIcEENS_9allocatorIcEEEC2Ej
FNDA:0,_ZNSt3__115basic_stringbufIcNS_11char_traitsIcEENS_9allocatorIcEEEC2Ej
FN:802,_ZNSt3__118basic_stringstreamIcNS_11char_traitsIcEENS_9allocatorIcEEEC1Ev
FNDA:0,_ZNSt3__118basic_stringstreamIcNS_11char_traitsIcEENS_9allocatorIcEEEC1Ev
FN:842,_ZNKSt3__118basic_stringstreamIcNS_11char_traitsIcEENS_9allocatorIcEEE3strEv
FNDA:0,_ZNKSt3__118basic_stringstreamIcNS_11char_traitsIcEENS_9allocatorIcEEE3strEv
FN:861,_ZNSt3__115basic_stringbufIcNS_11char_traitsIcEENS_9allocatorIcEEED1Ev
FNDA:0,_ZNSt3__115basic_stringbufIcNS_11char_traitsIcEENS_9allocatorIcEEED1Ev
FN:861,_ZNSt3__115basic_stringbufIcNS_11char_traitsIcEENS_9allocatorIcEEED2Ev
FNDA:0,_ZNSt3__115basic_stringbufIcNS_11char_traitsIcEENS_9allocatorIcEEED2Ev
FN:862,_ZNSt3__118basic_stringstreamIcNS_11char_traitsIcEENS_9allocatorIcEEED1Ev
FNDA:0,_ZNSt3__118basic_stringstreamIcNS_11char_traitsIcEENS_9allocatorIcEEED1Ev
FN:862,_ZNSt3__118basic_stringstreamIcNS_11char_traitsIcEENS_9allocatorIcEEED2Ev
FNDA:0,_ZNSt3__118basic_stringstreamIcNS_11char_traitsIcEENS_9allocatorIcEEED2Ev
DA:227,0
DA:228,0
DA:802,0
DA:803,0
DA:842,0
DA:843,0
FNF:8
FNH:0
LF:6
LH:0
end_of_record
SF:/Users/dogukanarat/Workspace/DevelopmentTestSystem/Binaries/Debug/Intermediate/_deps/googletest-src/googletest/include/gtest/gtest-assertion-result.h
FN:133,_ZN7testing15AssertionResultD1Ev
FNDA:0,_ZN7testing15AssertionResultD1Ev
FN:133,_ZN7testing15AssertionResultD2Ev
FNDA:0,_ZN7testing15AssertionResultD2Ev
FN:174,_ZNK7testing15AssertionResultcvbEv
FNDA:0,_ZNK7testing15AssertionResultcvbEv
FN:183,_ZNK7testing15AssertionResult7messageEv
FNDA:0,_ZNK7testing15AssertionResult7messageEv
FN:187,_ZNK7testing15AssertionResult15failure_messageEv
FNDA:0,_ZNK7testing15AssertionResult15failure_messageEv
DA:174,0
DA:183,0
DA:184,0
DA:187,0
FNF:5
FNH:0
LF:4
LH:0
end_of_record
TN:
SF:/Library/Developer/CommandLineTools/SDKs/MacOSX12.3.sdk/usr/include/c++/v1/ostream
FN:234,_ZNSt3__113basic_ostreamIcNS_11char_traitsIcEEEC2Ev
FNDA:0,_ZNSt3__113basic_ostreamIcNS_11char_traitsIcEEEC2Ev
FN:251,_ZNKSt3__113basic_ostreamIcNS_11char_traitsIcEEE6sentrycvbEv
FNDA:0,_ZNKSt3__113basic_ostreamIcNS_11char_traitsIcEEE6sentrycvbEv
FN:707,_ZNSt3__124__put_character_sequenceIcNS_11char_traitsIcEEEERNS_13basic_ostreamIT_T0_EES7_PKS4_m
FNDA:0,_ZNSt3__124__put_character_sequenceIcNS_11char_traitsIcEEEERNS_13basic_ostreamIT_T0_EES7_PKS4_m
FN:855,_ZNSt3__1lsINS_11char_traitsIcEEEERNS_13basic_ostreamIcT_EES6_PKc
FNDA:0,_ZNSt3__1lsINS_11char_traitsIcEEEERNS_13basic_ostreamIcT_EES6_PKc
DA:234,0
DA:251,0
DA:707,0
DA:714,0
DA:715,0
DA:718,0
DA:719,0
DA:720,0
DA:721,0
DA:722,0
DA:723,0
DA:724,0
DA:725,0
DA:726,0
DA:727,0
DA:729,0
DA:732,0
DA:733,0
DA:735,0
DA:736,0
DA:855,0
DA:857,0
FNF:4
FNH:0
LF:22
LH:0
end_of_record
SF:/Library/Developer/CommandLineTools/SDKs/MacOSX12.3.sdk/usr/include/c++/v1/__utility/forward.h
FN:27,_ZNSt3__1L7forwardINS_18__default_init_tagEEEOT_RNS_16remove_referenceIS2_E4typeE
FNDA:1080,_ZNSt3__1L7forwardINS_18__default_init_tagEEEOT_RNS_16remove_referenceIS2_E4typeE
DA:27,1080
DA:28,1080
FNF:1
FNH:1
LF:2
LH:2
end_of_record
SF:/Library/Developer/CommandLineTools/SDKs/MacOSX12.3.sdk/usr/include/c++/v1/__memory/unique_ptr.h
FN:52,_ZNKSt3__114default_deleteINS_18basic_stringstreamIcNS_11char_traitsIcEENS_9allocatorIcEEEEEclEPS6_
FNDA:0,_ZNKSt3__114default_deleteINS_18basic_stringstreamIcNS_11char_traitsIcEENS_9allocatorIcEEEEEclEPS6_
FN:52,_ZNKSt3__114default_deleteINS_12basic_stringIcNS_11char_traitsIcEENS_9allocatorIcEEEEEclEPS6_
FNDA:0,_ZNKSt3__114default_deleteINS_12basic_stringIcNS_11char_traitsIcEENS_9allocatorIcEEEEEclEPS6_
FN:272,_ZNSt3__110unique_ptrINS_18basic_stringstreamIcNS_11char_traitsIcEENS_9allocatorIcEEEENS_14default_deleteIS6_EEED1Ev
FNDA:0,_ZNSt3__110unique_ptrINS_18basic_stringstreamIcNS_11char_traitsIcEENS_9allocatorIcEEEENS_14default_deleteIS6_EEED1Ev
FN:272,_ZNSt3__110unique_ptrINS_18basic_stringstreamIcNS_11char_traitsIcEENS_9allocatorIcEEEENS_14default_deleteIS6_EEED2Ev
FNDA:0,_ZNSt3__110unique_ptrINS_18basic_stringstreamIcNS_11char_traitsIcEENS_9allocatorIcEEEENS_14default_deleteIS6_EEED2Ev
FN:272,_ZNSt3__110unique_ptrINS_12basic_stringIcNS_11char_traitsIcEENS_9allocatorIcEEEENS_14default_deleteIS6_EEED1Ev
FNDA:0,_ZNSt3__110unique_ptrINS_12basic_stringIcNS_11char_traitsIcEENS_9allocatorIcEEEENS_14default_deleteIS6_EEED1Ev
FN:272,_ZNSt3__110unique_ptrINS_12basic_stringIcNS_11char_traitsIcEENS_9allocatorIcEEEENS_14default_deleteIS6_EEED2Ev
FNDA:0,_ZNSt3__110unique_ptrINS_12basic_stringIcNS_11char_traitsIcEENS_9allocatorIcEEEENS_14default_deleteIS6_EEED2Ev
FN:286,_ZNKSt3__110unique_ptrINS_12basic_stringIcNS_11char_traitsIcEENS_9allocatorIcEEEENS_14default_deleteIS6_EEEptEv
FNDA:0,_ZNKSt3__110unique_ptrINS_12basic_stringIcNS_11char_traitsIcEENS_9allocatorIcEEEENS_14default_deleteIS6_EEEptEv
FN:290,_ZNKSt3__110unique_ptrINS_12basic_stringIcNS_11char_traitsIcEENS_9allocatorIcEEEENS_14default_deleteIS6_EEE3getEv
FNDA:0,_ZNKSt3__110unique_ptrINS_12basic_stringIcNS_11char_traitsIcEENS_9allocatorIcEEEENS_14default_deleteIS6_EEE3getEv
FN:314,_ZNSt3__110unique_ptrINS_18basic_stringstreamIcNS_11char_traitsIcEENS_9allocatorIcEEEENS_14default_deleteIS6_EEE5resetEPS6_
FNDA:0,_ZNSt3__110unique_ptrINS_18basic_stringstreamIcNS_11char_traitsIcEENS_9allocatorIcEEEENS_14default_deleteIS6_EEE5resetEPS6_
FN:314,_ZNSt3__110unique_ptrINS_12basic_stringIcNS_11char_traitsIcEENS_9allocatorIcEEEENS_14default_deleteIS6_EEE5resetEPS6_
FNDA:0,_ZNSt3__110unique_ptrINS_12basic_stringIcNS_11char_traitsIcEENS_9allocatorIcEEEENS_14default_deleteIS6_EEE5resetEPS6_
DA:52,0
DA:57,0
DA:58,0
DA:272,0
DA:286,0
DA:287,0
DA:290,0
DA:291,0
DA:314,0
DA:315,0
DA:316,0
DA:317,0
DA:318,0
DA:319,0
FNF:10
FNH:0
LF:14
LH:0
end_of_record
SF:/Library/Developer/CommandLineTools/SDKs/MacOSX12.3.sdk/usr/include/c++/v1/__locale
FN:252,_ZNSt3__1L9use_facetINS_5ctypeIcEEEERKT_RKNS_6localeE
FNDA:0,_ZNSt3__1L9use_facetINS_5ctypeIcEEEERKT_RKNS_6localeE
FN:697,_ZNKSt3__15ctypeIcE5widenEc
FNDA:0,_ZNKSt3__15ctypeIcE5widenEc
DA:252,0
DA:254,0
DA:697,0
DA:699,0
FNF:2
FNH:0
LF:4
LH:0
end_of_record
SF:/Library/Developer/CommandLineTools/SDKs/MacOSX12.3.sdk/usr/include/c++/v1/streambuf
FN:228,_ZNSt3__115basic_streambufIcNS_11char_traitsIcEEE5sputnEPKcl
FNDA:0,_ZNSt3__115basic_streambufIcNS_11char_traitsIcEEE5sputnEPKcl
DA:228,0
DA:229,0
FNF:1
FNH:0
LF:2
LH:0
end_of_record
SF:/Users/dogukanarat/Workspace/DevelopmentTestSystem/Binaries/Debug/Intermediate/_deps/googletest-src/googletest/include/gtest/internal/gtest-internal.h
FN:431,_ZN7testing8internal9GetTypeIdI13TestDtsUpdateEEPKvv
FNDA:540,_ZN7testing8internal9GetTypeIdI13TestDtsUpdateEEPKvv
FN:450,_ZN7testing8internal15TestFactoryBaseD1Ev
FNDA:0,_ZN7testing8internal15TestFactoryBaseD1Ev
FN:450,_ZN7testing8internal15TestFactoryBaseD0Ev
FNDA:0,_ZN7testing8internal15TestFactoryBaseD0Ev
FN:450,_ZN7testing8internal15TestFactoryBaseD2Ev
FNDA:0,_ZN7testing8internal15TestFactoryBaseD2Ev
FN:457,_ZN7testing8internal15TestFactoryBaseC2Ev
FNDA:0,_ZN7testing8internal15TestFactoryBaseC2Ev
FN:467,_ZN7testing8internal15TestFactoryImplI42TestDtsUpdate_dtsUpdateForBoolDefault_TestEC1Ev
FNDA:90,_ZN7testing8internal15TestFactoryImplI42TestDtsUpdate_dtsUpdateForBoolDefault_TestEC1Ev
FN:467,_ZN7testing8internal15TestFactoryImplI42TestDtsUpdate_dtsUpdateForBoolUpdated_TestEC1Ev
FNDA:90,_ZN7testing8internal15TestFactoryImplI42TestDtsUpdate_dtsUpdateForBoolUpdated_TestEC1Ev
FN:467,_ZN7testing8internal15TestFactoryImplI43TestDtsUpdate_dtsUpdateForInt32Default_TestEC1Ev
FNDA:90,_ZN7testing8internal15TestFactoryImplI43TestDtsUpdate_dtsUpdateForInt32Default_TestEC1Ev
FN:467,_ZN7testing8internal15TestFactoryImplI43TestDtsUpdate_dtsUpdateForInt32Updated_TestEC1Ev
FNDA:90,_ZN7testing8internal15TestFactoryImplI43TestDtsUpdate_dtsUpdateForInt32Updated_TestEC1Ev
FN:467,_ZN7testing8internal15TestFactoryImplI45TestDtsUpdate_dtsUpdateForFloat64Default_TestEC1Ev
FNDA:90,_ZN7testing8internal15TestFactoryImplI45TestDtsUpdate_dtsUpdateForFloat64Default_TestEC1Ev
FN:467,_ZN7testing8internal15TestFactoryImplI45TestDtsUpdate_dtsUpdateForFloat64Updated_TestEC1Ev
FNDA:90,_ZN7testing8internal15TestFactoryImplI45TestDtsUpdate_dtsUpdateForFloat64Updated_TestEC1Ev
FN:467,_ZN7testing8internal15TestFactoryImplI42TestDtsUpdate_dtsUpdateForBoolDefault_TestEC2Ev
FNDA:90,_ZN7testing8internal15TestFactoryImplI42TestDtsUpdate_dtsUpdateForBoolDefault_TestEC2Ev
FN:467,_ZN7testing8internal15TestFactoryImplI42TestDtsUpdate_dtsUpdateForBoolDefault_TestED1Ev
FNDA:0,_ZN7testing8internal15TestFactoryImplI42TestDtsUpdate_dtsUpdateForBoolDefault_TestED1Ev
FN:467,_ZN7testing8internal15TestFactoryImplI42TestDtsUpdate_dtsUpdateForBoolDefault_TestED0Ev
FNDA:0,_ZN7testing8internal15TestFactoryImplI42TestDtsUpdate_dtsUpdateForBoolDefault_TestED0Ev
FN:467,_ZN7testing8internal15TestFactoryImplI42TestDtsUpdate_dtsUpdateForBoolDefault_TestED2Ev
FNDA:0,_ZN7testing8internal15TestFactoryImplI42TestDtsUpdate_dtsUpdateForBoolDefault_TestED2Ev
FN:467,_ZN7testing8internal15TestFactoryImplI42TestDtsUpdate_dtsUpdateForBoolUpdated_TestEC2Ev
FNDA:90,_ZN7testing8internal15TestFactoryImplI42TestDtsUpdate_dtsUpdateForBoolUpdated_TestEC2Ev
FN:467,_ZN7testing8internal15TestFactoryImplI42TestDtsUpdate_dtsUpdateForBoolUpdated_TestED1Ev
FNDA:0,_ZN7testing8internal15TestFactoryImplI42TestDtsUpdate_dtsUpdateForBoolUpdated_TestED1Ev
FN:467,_ZN7testing8internal15TestFactoryImplI42TestDtsUpdate_dtsUpdateForBoolUpdated_TestED0Ev
FNDA:0,_ZN7testing8internal15TestFactoryImplI42TestDtsUpdate_dtsUpdateForBoolUpdated_TestED0Ev
FN:467,_ZN7testing8internal15TestFactoryImplI42TestDtsUpdate_dtsUpdateForBoolUpdated_TestED2Ev
FNDA:0,_ZN7testing8internal15TestFactoryImplI42TestDtsUpdate_dtsUpdateForBoolUpdated_TestED2Ev
FN:467,_ZN7testing8internal15TestFactoryImplI43TestDtsUpdate_dtsUpdateForInt32Default_TestEC2Ev
FNDA:90,_ZN7testing8internal15TestFactoryImplI43TestDtsUpdate_dtsUpdateForInt32Default_TestEC2Ev
FN:467,_ZN7testing8internal15TestFactoryImplI43TestDtsUpdate_dtsUpdateForInt32Default_TestED1Ev
FNDA:0,_ZN7testing8internal15TestFactoryImplI43TestDtsUpdate_dtsUpdateForInt32Default_TestED1Ev
FN:467,_ZN7testing8internal15TestFactoryImplI43TestDtsUpdate_dtsUpdateForInt32Default_TestED0Ev
FNDA:0,_ZN7testing8internal15TestFactoryImplI43TestDtsUpdate_dtsUpdateForInt32Default_TestED0Ev
FN:467,_ZN7testing8internal15TestFactoryImplI43TestDtsUpdate_dtsUpdateForInt32Default_TestED2Ev
FNDA:0,_ZN7testing8internal15TestFactoryImplI43TestDtsUpdate_dtsUpdateForInt32Default_TestED2Ev
FN:467,_ZN7testing8internal15TestFactoryImplI43TestDtsUpdate_dtsUpdateForInt32Updated_TestEC2Ev
FNDA:90,_ZN7testing8internal15TestFactoryImplI43TestDtsUpdate_dtsUpdateForInt32Updated_TestEC2Ev
FN:467,_ZN7testing8internal15TestFactoryImplI43TestDtsUpdate_dtsUpdateForInt32Updated_TestED1Ev
FNDA:0,_ZN7testing8internal15TestFactoryImplI43TestDtsUpdate_dtsUpdateForInt32Updated_TestED1Ev
FN:467,_ZN7testing8internal15TestFactoryImplI43TestDtsUpdate_dtsUpdateForInt32Updated_TestED0Ev
FNDA:0,_ZN7testing8internal15TestFactoryImplI43TestDtsUpdate_dtsUpdateForInt32Updated_TestED0Ev
FN:467,_ZN7testing8internal15TestFactoryImplI43TestDtsUpdate_dtsUpdateForInt32Updated_TestED2Ev
FNDA:0,_ZN7testing8internal15TestFactoryImplI43TestDtsUpdate_dtsUpdateForInt32Updated_TestED2Ev
FN:467,_ZN7testing8internal15TestFactoryImplI45TestDtsUpdate_dtsUpdateForFloat64Default_TestEC2Ev
FNDA:90,_ZN7testing8internal15TestFactoryImplI45TestDtsUpdate_dtsUpdateForFloat64Default_TestEC2Ev
FN:467,_ZN7testing8internal15TestFactoryImplI45TestDtsUpdate_dtsUpdateForFloat64Default_TestED1Ev
FNDA:0,_ZN7testing8internal15TestFactoryImplI45TestDtsUpdate_dtsUpdateForFloat64Default_TestED1Ev
FN:467,_ZN7testing8internal15TestFactoryImplI45TestDtsUpdate_dtsUpdateForFloat64Default_TestED0Ev
FNDA:0,_ZN7testing8internal15TestFactoryImplI45TestDtsUpdate_dtsUpdateForFloat64Default_TestED0Ev
FN:467,_ZN7testing8internal15TestFactoryImplI45TestDtsUpdate_dtsUpdateForFloat64Default_TestED2Ev
FNDA:0,_ZN7testing8internal15TestFactoryImplI45TestDtsUpdate_dtsUpdateForFloat64Default_TestED2Ev
FN:467,_ZN7testing8internal15TestFactoryImplI45TestDtsUpdate_dtsUpdateForFloat64Updated_TestEC2Ev
FNDA:90,_ZN7testing8internal15TestFactoryImplI45TestDtsUpdate_dtsUpdateForFloat64Updated_TestEC2Ev
FN:467,_ZN7testing8internal15TestFactoryImplI45TestDtsUpdate_dtsUpdateForFloat64Updated_TestED1Ev
FNDA:0,_ZN7testing8internal15TestFactoryImplI45TestDtsUpdate_dtsUpdateForFloat64Updated_TestED1Ev
FN:467,_ZN7testing8internal15TestFactoryImplI45TestDtsUpdate_dtsUpdateForFloat64Updated_TestED0Ev
FNDA:0,_ZN7testing8internal15TestFactoryImplI45TestDtsUpdate_dtsUpdateForFloat64Updated_TestED0Ev
FN:467,_ZN7testing8internal15TestFactoryImplI45TestDtsUpdate_dtsUpdateForFloat64Updated_TestED2Ev
FNDA:0,_ZN7testing8internal15TestFactoryImplI45TestDtsUpdate_dtsUpdateForFloat64Updated_TestED2Ev
FN:469,_ZN7testing8internal15TestFactoryImplI42TestDtsUpdate_dtsUpdateForBoolDefault_TestE10CreateTestEv
FNDA:3,_ZN7testing8internal15TestFactoryImplI42TestDtsUpdate_dtsUpdateForBoolDefault_TestE10CreateTestEv
FN:469,_ZN7testing8internal15TestFactoryImplI42TestDtsUpdate_dtsUpdateForBoolUpdated_TestE10CreateTestEv
FNDA:3,_ZN7testing8internal15TestFactoryImplI42TestDtsUpdate_dtsUpdateForBoolUpdated_TestE10CreateTestEv
FN:469,_ZN7testing8internal15TestFactoryImplI43TestDtsUpdate_dtsUpdateForInt32Default_TestE10CreateTestEv
FNDA:3,_ZN7testing8internal15TestFactoryImplI43TestDtsUpdate_dtsUpdateForInt32Default_TestE10CreateTestEv
FN:469,_ZN7testing8internal15TestFactoryImplI43TestDtsUpdate_dtsUpdateForInt32Updated_TestE10CreateTestEv
FNDA:3,_ZN7testing8internal15TestFactoryImplI43TestDtsUpdate_dtsUpdateForInt32Updated_TestE10CreateTestEv
FN:469,_ZN7testing8internal15TestFactoryImplI45TestDtsUpdate_dtsUpdateForFloat64Default_TestE10CreateTestEv
FNDA:3,_ZN7testing8internal15TestFactoryImplI45TestDtsUpdate_dtsUpdateForFloat64Default_TestE10CreateTestEv
FN:469,_ZN7testing8internal15TestFactoryImplI45TestDtsUpdate_dtsUpdateForFloat64Updated_TestE10CreateTestEv
FNDA:3,_ZN7testing8internal15TestFactoryImplI45TestDtsUpdate_dtsUpdateForFloat64Updated_TestE10CreateTestEv
FN:489,_ZN7testing8internal12CodeLocationD1Ev
FNDA:0,_ZN7testing8internal12CodeLocationD1Ev
FN:489,_ZN7testing8internal12CodeLocationD2Ev
FNDA:0,_ZN7testing8internal12CodeLocationD2Ev
FN:490,_ZN7testing8internal12CodeLocationC1ERKNSt3__112basic_stringIcNS2_11char_traitsIcEENS2_9allocatorIcEEEEi
FNDA:0,_ZN7testing8internal12CodeLocationC1ERKNSt3__112basic_stringIcNS2_11char_traitsIcEENS2_9allocatorIcEEEEi
FN:490,_ZN7testing8internal12CodeLocationC2ERKNSt3__112basic_stringIcNS2_11char_traitsIcEENS2_9allocatorIcEEEEi
FNDA:0,_ZN7testing8internal12CodeLocationC2ERKNSt3__112basic_stringIcNS2_11char_traitsIcEENS2_9allocatorIcEEEEi
FN:503,_ZN7testing8internal19GetNotDefaultOrNullEPFvvES2_
FNDA:0,_ZN7testing8internal19GetNotDefaultOrNullEPFvvES2_
FN:518,_ZN7testing8internal16SuiteApiResolverI13TestDtsUpdateE19GetSetUpCaseOrSuiteEPKci
FNDA:540,_ZN7testing8internal16SuiteApiResolverI13TestDtsUpdateE19GetSetUpCaseOrSuiteEPKci
FN:539,_ZN7testing8internal16SuiteApiResolverI13TestDtsUpdateE22GetTearDownCaseOrSuiteEPKci
FNDA:540,_ZN7testing8internal16SuiteApiResolverI13TestDtsUpdateE22GetTearDownCaseOrSuiteEPKci
DA:431,540
DA:436,540
DA:450,0
DA:457,0
DA:469,18
DA:490,0
DA:491,0
DA:503,0
DA:505,0
DA:518,540
DA:521,540
DA:522,540
DA:523,540
DA:524,540
DA:526,540
DA:527,0
DA:529,0
DA:531,540
DA:537,0
DA:539,540
DA:542,540
DA:543,540
DA:544,540
DA:545,540
DA:547,540
DA:548,0
DA:550,0
DA:552,540
DA:558,0
FNF:48
FNH:21
LF:29
LH:17
end_of_record
SF:/Users/dogukanarat/Workspace/DevelopmentTestSystem/Binaries/Debug/Intermediate/_deps/googletest-src/googletest/include/gtest/gtest.h
FN:244,_ZN7testing4Test14SetUpTestSuiteEv
FNDA:0,_ZN7testing4Test14SetUpTestSuiteEv
FN:252,_ZN7testing4Test17TearDownTestSuiteEv
FNDA:0,_ZN7testing4Test17TearDownTestSuiteEv
FN:257,_ZN7testing4Test16TearDownTestCaseEv
FNDA:0,_ZN7testing4Test16TearDownTestCaseEv
FN:258,_ZN7testing4Test13SetUpTestCaseEv
FNDA:0,_ZN7testing4Test13SetUpTestCaseEv
FN:339,_ZN7testing4Test5SetupEv
FNDA:0,_ZN7testing4Test5SetupEv
FN:1338,_ZN7testing8internal18CmpHelperEQFailureIhhEENS_15AssertionResultEPKcS4_RKT_RKT0_
FNDA:0,_ZN7testing8internal18CmpHelperEQFailureIhhEENS_15AssertionResultEPKcS4_RKT_RKT0_
FN:1338,_ZN7testing8internal18CmpHelperEQFailureIbhEENS_15AssertionResultEPKcS4_RKT_RKT0_
FNDA:0,_ZN7testing8internal18CmpHelperEQFailureIbhEENS_15AssertionResultEPKcS4_RKT_RKT0_
FN:1338,_ZN7testing8internal18CmpHelperEQFailureIiiEENS_15AssertionResultEPKcS4_RKT_RKT0_
FNDA:0,_ZN7testing8internal18CmpHelperEQFailureIiiEENS_15AssertionResultEPKcS4_RKT_RKT0_
FN:1338,_ZN7testing8internal18CmpHelperEQFailureIddEENS_15AssertionResultEPKcS4_RKT_RKT0_
FNDA:0,_ZN7testing8internal18CmpHelperEQFailureIddEENS_15AssertionResultEPKcS4_RKT_RKT0_
FN:1355,_ZN7testing8internal11CmpHelperEQIhhEENS_15AssertionResultEPKcS4_RKT_RKT0_
FNDA:0,_ZN7testing8internal11CmpHelperEQIhhEENS_15AssertionResultEPKcS4_RKT_RKT0_
FN:1355,_ZN7testing8internal11CmpHelperEQIbhEENS_15AssertionResultEPKcS4_RKT_RKT0_
FNDA:3,_ZN7testing8internal11CmpHelperEQIbhEENS_15AssertionResultEPKcS4_RKT_RKT0_
FN:1355,_ZN7testing8internal11CmpHelperEQIiiEENS_15AssertionResultEPKcS4_RKT_RKT0_
FNDA:6,_ZN7testing8internal11CmpHelperEQIiiEENS_15AssertionResultEPKcS4_RKT_RKT0_
FN:1355,_ZN7testing8internal11CmpHelperEQIddEENS_15AssertionResultEPKcS4_RKT_RKT0_
FNDA:9,_ZN7testing8internal11CmpHelperEQIddEENS_15AssertionResultEPKcS4_RKT_RKT0_
FN:1374,_ZN7testing8internal8EqHelper7CompareIhhLPv0EEENS_15AssertionResultEPKcS6_RKT_RKT0_
FNDA:0,_ZN7testing8internal8EqHelper7CompareIhhLPv0EEENS_15AssertionResultEPKcS6_RKT_RKT0_
FN:1374,_ZN7testing8internal8EqHelper7CompareIbhLPv0EEENS_15AssertionResultEPKcS6_RKT_RKT0_
FNDA:3,_ZN7testing8internal8EqHelper7CompareIbhLPv0EEENS_15AssertionResultEPKcS6_RKT_RKT0_
FN:1374,_ZN7testing8internal8EqHelper7CompareIiiLPv0EEENS_15AssertionResultEPKcS6_RKT_RKT0_
FNDA:6,_ZN7testing8internal8EqHelper7CompareIiiLPv0EEENS_15AssertionResultEPKcS6_RKT_RKT0_
FN:1374,_ZN7testing8internal8EqHelper7CompareIddLPv0EEENS_15AssertionResultEPKcS6_RKT_RKT0_
FNDA:9,_ZN7testing8internal8EqHelper7CompareIddLPv0EEENS_15AssertionResultEPKcS6_RKT_RKT0_
DA:244,0
DA:252,0
DA:257,0
DA:258,0
DA:339,0
DA:1338,0
DA:1341,0
DA:1342,0
DA:1343,0
DA:1344,0
DA:1355,18
DA:1358,18
DA:1359,18
DA:1362,0
DA:1363,18
DA:1374,18
DA:1377,18
FNF:17
FNH:6
LF:17
LH:6
end_of_record
SF:/Library/Developer/CommandLineTools/SDKs/MacOSX12.3.sdk/usr/include/c++/v1/__string
FN:342,_ZNSt3__111char_traitsIcE6lengthEPKc
FNDA:0,_ZNSt3__111char_traitsIcE6lengthEPKc
FN:374,_ZNSt3__111char_traitsIcE11eq_int_typeEii
FNDA:0,_ZNSt3__111char_traitsIcE11eq_int_typeEii
FN:376,_ZNSt3__111char_traitsIcE3eofEv
FNDA:0,_ZNSt3__111char_traitsIcE3eofEv
DA:342,0
DA:374,0
DA:375,0
DA:376,0
DA:377,0
FNF:3
FNH:0
LF:5
LH:0
end_of_record
SF:/Library/Developer/CommandLineTools/SDKs/MacOSX12.3.sdk/usr/include/c++/v1/__memory/pointer_traits.h
FN:152,_ZNSt3__114pointer_traitsIPKcE10pointer_toERS1_
FNDA:0,_ZNSt3__114pointer_traitsIPKcE10pointer_toERS1_
FN:173,_ZNSt3__1L12__to_addressIKcEEPT_S3_
FNDA:0,_ZNSt3__1L12__to_addressIKcEEPT_S3_
DA:152,0
DA:154,0
DA:173,0
DA:175,0
FNF:2
FNH:0
LF:4
LH:0
end_of_record
SF:/Users/dogukanarat/Workspace/DevelopmentTestSystem/Binaries/Debug/Intermediate/_deps/googletest-src/googletest/include/gtest/gtest-printers.h
FN:213,_ZN7testing8internal52internal_stream_operator_without_lexical_name_lookup13StreamPrinter10PrintValueIivRNSt3__113basic_ostreamIcNS4_11char_traitsIcEEEEEEvRKT_PS8_
FNDA:0,_ZN7testing8internal52internal_stream_operator_without_lexical_name_lookup13StreamPrinter10PrintValueIivRNSt3__113basic_ostreamIcNS4_11char_traitsIcEEEEEEvRKT_PS8_
FN:213,_ZN7testing8internal52internal_stream_operator_without_lexical_name_lookup13StreamPrinter10PrintValueIdvRNSt3__113basic_ostreamIcNS4_11char_traitsIcEEEEEEvRKT_PS8_
FNDA:0,_ZN7testing8internal52internal_stream_operator_without_lexical_name_lookup13StreamPrinter10PrintValueIdvRNSt3__113basic_ostreamIcNS4_11char_traitsIcEEEEEEvRKT_PS8_
FN:305,_ZN7testing8internal17PrintWithFallbackIiEEvRKT_PNSt3__113basic_ostreamIcNS5_11char_traitsIcEEEE
FNDA:0,_ZN7testing8internal17PrintWithFallbackIiEEvRKT_PNSt3__113basic_ostreamIcNS5_11char_traitsIcEEEE
FN:305,_ZN7testing8internal17PrintWithFallbackIdEEvRKT_PNSt3__113basic_ostreamIcNS5_11char_traitsIcEEEE
FNDA:0,_ZN7testing8internal17PrintWithFallbackIdEEvRKT_PNSt3__113basic_ostreamIcNS5_11char_traitsIcEEEE
FN:332,_ZN7testing8internal19FormatForComparisonIhhE6FormatERKh
FNDA:0,_ZN7testing8internal19FormatForComparisonIhhE6FormatERKh
FN:332,_ZN7testing8internal19FormatForComparisonIbhE6FormatERKb
FNDA:0,_ZN7testing8internal19FormatForComparisonIbhE6FormatERKb
FN:332,_ZN7testing8internal19FormatForComparisonIhbE6FormatERKh
FNDA:0,_ZN7testing8internal19FormatForComparisonIhbE6FormatERKh
FN:332,_ZN7testing8internal19FormatForComparisonIiiE6FormatERKi
FNDA:0,_ZN7testing8internal19FormatForComparisonIiiE6FormatERKi
FN:332,_ZN7testing8internal19FormatForComparisonIddE6FormatERKd
FNDA:0,_ZN7testing8internal19FormatForComparisonIddE6FormatERKd
FN:412,_ZN7testing8internal33FormatForComparisonFailureMessageIhhEENSt3__112basic_stringIcNS2_11char_traitsIcEENS2_9allocatorIcEEEERKT_RKT0_
FNDA:0,_ZN7testing8internal33FormatForComparisonFailureMessageIhhEENSt3__112basic_stringIcNS2_11char_traitsIcEENS2_9allocatorIcEEEERKT_RKT0_
FN:412,_ZN7testing8internal33FormatForComparisonFailureMessageIbhEENSt3__112basic_stringIcNS2_11char_traitsIcEENS2_9allocatorIcEEEERKT_RKT0_
FNDA:0,_ZN7testing8internal33FormatForComparisonFailureMessageIbhEENSt3__112basic_stringIcNS2_11char_traitsIcEENS2_9allocatorIcEEEERKT_RKT0_
FN:412,_ZN7testing8internal33FormatForComparisonFailureMessageIhbEENSt3__112basic_stringIcNS2_11char_traitsIcEENS2_9allocatorIcEEEERKT_RKT0_
FNDA:0,_ZN7testing8internal33FormatForComparisonFailureMessageIhbEENSt3__112basic_stringIcNS2_11char_traitsIcEENS2_9allocatorIcEEEERKT_RKT0_
FN:412,_ZN7testing8internal33FormatForComparisonFailureMessageIiiEENSt3__112basic_stringIcNS2_11char_traitsIcEENS2_9allocatorIcEEEERKT_RKT0_
FNDA:0,_ZN7testing8internal33FormatForComparisonFailureMessageIiiEENSt3__112basic_stringIcNS2_11char_traitsIcEENS2_9allocatorIcEEEERKT_RKT0_
FN:412,_ZN7testing8internal33FormatForComparisonFailureMessageIddEENSt3__112basic_stringIcNS2_11char_traitsIcEENS2_9allocatorIcEEEERKT_RKT0_
FNDA:0,_ZN7testing8internal33FormatForComparisonFailureMessageIddEENSt3__112basic_stringIcNS2_11char_traitsIcEENS2_9allocatorIcEEEERKT_RKT0_
FN:439,_ZN7testing8internal7PrintToIiEEvRKT_PNSt3__113basic_ostreamIcNS5_11char_traitsIcEEEE
FNDA:0,_ZN7testing8internal7PrintToIiEEvRKT_PNSt3__113basic_ostreamIcNS5_11char_traitsIcEEEE
FN:439,_ZN7testing8internal7PrintToIdEEvRKT_PNSt3__113basic_ostreamIcNS5_11char_traitsIcEEEE
FNDA:0,_ZN7testing8internal7PrintToIdEEvRKT_PNSt3__113basic_ostreamIcNS5_11char_traitsIcEEEE
FN:458,_ZN7testing8internal7PrintToEbPNSt3__113basic_ostreamIcNS1_11char_traitsIcEEEE
FNDA:0,_ZN7testing8internal7PrintToEbPNSt3__113basic_ostreamIcNS1_11char_traitsIcEEEE
FN:693,_ZN7testing8internal16UniversalPrinterIhE5PrintERKhPNSt3__113basic_ostreamIcNS5_11char_traitsIcEEEE
FNDA:0,_ZN7testing8internal16UniversalPrinterIhE5PrintERKhPNSt3__113basic_ostreamIcNS5_11char_traitsIcEEEE
FN:693,_ZN7testing8internal16UniversalPrinterIbE5PrintERKbPNSt3__113basic_ostreamIcNS5_11char_traitsIcEEEE
FNDA:0,_ZN7testing8internal16UniversalPrinterIbE5PrintERKbPNSt3__113basic_ostreamIcNS5_11char_traitsIcEEEE
FN:693,_ZN7testing8internal16UniversalPrinterIiE5PrintERKiPNSt3__113basic_ostreamIcNS5_11char_traitsIcEEEE
FNDA:0,_ZN7testing8internal16UniversalPrinterIiE5PrintERKiPNSt3__113basic_ostreamIcNS5_11char_traitsIcEEEE
FN:693,_ZN7testing8internal16UniversalPrinterIdE5PrintERKdPNSt3__113basic_ostreamIcNS5_11char_traitsIcEEEE
FNDA:0,_ZN7testing8internal16UniversalPrinterIdE5PrintERKdPNSt3__113basic_ostreamIcNS5_11char_traitsIcEEEE
FN:883,_ZN7testing8internal21UniversalTersePrinterIhE5PrintERKhPNSt3__113basic_ostreamIcNS5_11char_traitsIcEEEE
FNDA:0,_ZN7testing8internal21UniversalTersePrinterIhE5PrintERKhPNSt3__113basic_ostreamIcNS5_11char_traitsIcEEEE
FN:883,_ZN7testing8internal21UniversalTersePrinterIbE5PrintERKbPNSt3__113basic_ostreamIcNS5_11char_traitsIcEEEE
FNDA:0,_ZN7testing8internal21UniversalTersePrinterIbE5PrintERKbPNSt3__113basic_ostreamIcNS5_11char_traitsIcEEEE
FN:883,_ZN7testing8internal21UniversalTersePrinterIiE5PrintERKiPNSt3__113basic_ostreamIcNS5_11char_traitsIcEEEE
FNDA:0,_ZN7testing8internal21UniversalTersePrinterIiE5PrintERKiPNSt3__113basic_ostreamIcNS5_11char_traitsIcEEEE
FN:883,_ZN7testing8internal21UniversalTersePrinterIdE5PrintERKdPNSt3__113basic_ostreamIcNS5_11char_traitsIcEEEE
FNDA:0,_ZN7testing8internal21UniversalTersePrinterIdE5PrintERKdPNSt3__113basic_ostreamIcNS5_11char_traitsIcEEEE
FN:995,_ZN7testing8internal14UniversalPrintIhEEvRKT_PNSt3__113basic_ostreamIcNS5_11char_traitsIcEEEE
FNDA:0,_ZN7testing8internal14UniversalPrintIhEEvRKT_PNSt3__113basic_ostreamIcNS5_11char_traitsIcEEEE
FN:995,_ZN7testing8internal14UniversalPrintIbEEvRKT_PNSt3__113basic_ostreamIcNS5_11char_traitsIcEEEE
FNDA:0,_ZN7testing8internal14UniversalPrintIbEEvRKT_PNSt3__113basic_ostreamIcNS5_11char_traitsIcEEEE
FN:995,_ZN7testing8internal14UniversalPrintIiEEvRKT_PNSt3__113basic_ostreamIcNS5_11char_traitsIcEEEE
FNDA:0,_ZN7testing8internal14UniversalPrintIiEEvRKT_PNSt3__113basic_ostreamIcNS5_11char_traitsIcEEEE
FN:995,_ZN7testing8internal14UniversalPrintIdEEvRKT_PNSt3__113basic_ostreamIcNS5_11char_traitsIcEEEE
FNDA:0,_ZN7testing8internal14UniversalPrintIdEEvRKT_PNSt3__113basic_ostreamIcNS5_11char_traitsIcEEEE
FN:1035,_ZN7testing13PrintToStringIhEENSt3__112basic_stringIcNS1_11char_traitsIcEENS1_9allocatorIcEEEERKT_
FNDA:0,_ZN7testing13PrintToStringIhEENSt3__112basic_stringIcNS1_11char_traitsIcEENS1_9allocatorIcEEEERKT_
FN:1035,_ZN7testing13PrintToStringIbEENSt3__112basic_stringIcNS1_11char_traitsIcEENS1_9allocatorIcEEEERKT_
FNDA:0,_ZN7testing13PrintToStringIbEENSt3__112basic_stringIcNS1_11char_traitsIcEENS1_9allocatorIcEEEERKT_
FN:1035,_ZN7testing13PrintToStringIiEENSt3__112basic_stringIcNS1_11char_traitsIcEENS1_9allocatorIcEEEERKT_
FNDA:0,_ZN7testing13PrintToStringIiEENSt3__112basic_stringIcNS1_11char_traitsIcEENS1_9allocatorIcEEEERKT_
FN:1035,_ZN7testing13PrintToStringIdEENSt3__112basic_stringIcNS1_11char_traitsIcEENS1_9allocatorIcEEEERKT_
FNDA:0,_ZN7testing13PrintToStringIdEENSt3__112basic_stringIcNS1_11char_traitsIcEENS1_9allocatorIcEEEERKT_
DA:213,0
DA:216,0
DA:217,0
DA:305,0
DA:311,0
DA:312,0
DA:332,0
DA:333,0
DA:412,0
DA:414,0
DA:439,0
DA:440,0
DA:441,0
DA:458,0
DA:459,0
DA:460,0
DA:693,0
DA:702,0
DA:703,0
DA:883,0
DA:884,0
DA:885,0
DA:995,0
DA:999,0
DA:1000,0
DA:1035,0
DA:1036,0
DA:1037,0
DA:1038,0
DA:1039,0
FNF:33
FNH:0
LF:30
LH:0
end_of_record
SF:/Users/dogukanarat/Workspace/DevelopmentTestSystem/Binaries/Debug/Intermediate/_deps/googletest-src/googletest/include/gtest/gtest-message.h
FN:92,_ZN7testing7MessageD1Ev
FNDA:0,_ZN7testing7MessageD1Ev
FN:92,_ZN7testing7MessageD2Ev
FNDA:0,_ZN7testing7MessageD2Ev
FNF:2
FNH:0
LF:0
LH:0
end_of_record
SF:/Users/dogukanarat/Workspace/DevelopmentTestSystem/Tests/UnitTest/TestDtsUpdate.h
FN:18,_ZN13TestDtsUpdateC2Ev
FNDA:18,_ZN13TestDtsUpdateC2Ev
FN:21,_ZN13TestDtsUpdateD1Ev
FNDA:0,_ZN13TestDtsUpdateD1Ev
FN:21,_ZN13TestDtsUpdateD0Ev
FNDA:0,_ZN13TestDtsUpdateD0Ev
FN:21,_ZN13TestDtsUpdateD2Ev
FNDA:18,_ZN13TestDtsUpdateD2Ev
FN:25,_ZN13TestDtsUpdate5SetUpEv
FNDA:18,_ZN13TestDtsUpdate5SetUpEv
FN:33,_ZN13TestDtsUpdate8TearDownEv
FNDA:18,_ZN13TestDtsUpdate8TearDownEv
DA:18,54
DA:19,36
DA:20,18
DA:21,18
DA:22,0
DA:23,18
DA:25,18
DA:27,18
DA:28,18
DA:31,18
DA:33,18
DA:35,18
FNF:6
FNH:4
LF:12
LH:11
end_of_record
SF:/Users/dogukanarat/Workspace/DevelopmentTestSystem/Tests/UnitTest/TestDtsUpdate.cpp
FN:0,__cxx_global_var_init
FNDA:90,__cxx_global_var_init
FN:0,__cxx_global_var_init.5
FNDA:90,__cxx_global_var_init.5
FN:0,__cxx_global_var_init.8
FNDA:90,__cxx_global_var_init.8
FN:0,__cxx_global_var_init.10
FNDA:90,__cxx_global_var_init.10
FN:0,__cxx_global_var_init.13
FNDA:90,__cxx_global_var_init.13
FN:0,__cxx_global_var_init.15
FNDA:90,__cxx_global_var_init.15
FN:3,_ZN42TestDtsUpdate_dtsUpdateForBoolDefault_Test8TestBodyEv
FNDA:3,_ZN42TestDtsUpdate_dtsUpdateForBoolDefault_Test8TestBodyEv
FN:3,_ZN42TestDtsUpdate_dtsUpdateForBoolDefault_TestD1Ev
FNDA:3,_ZN42TestDtsUpdate_dtsUpdateForBoolDefault_TestD1Ev
FN:3,_ZN42TestDtsUpdate_dtsUpdateForBoolDefault_TestD0Ev
FNDA:3,_ZN42TestDtsUpdate_dtsUpdateForBoolDefault_TestD0Ev
FN:3,_ZN42TestDtsUpdate_dtsUpdateForBoolDefault_TestC1Ev
FNDA:3,_ZN42TestDtsUpdate_dtsUpdateForBoolDefault_TestC1Ev
FN:3,_ZN42TestDtsUpdate_dtsUpdateForBoolDefault_TestC2Ev
FNDA:3,_ZN42TestDtsUpdate_dtsUpdateForBoolDefault_TestC2Ev
FN:3,_ZN42TestDtsUpdate_dtsUpdateForBoolDefault_TestD2Ev
FNDA:3,_ZN42TestDtsUpdate_dtsUpdateForBoolDefault_TestD2Ev
FN:17,_ZN42TestDtsUpdate_dtsUpdateForBoolUpdated_Test8TestBodyEv
FNDA:3,_ZN42TestDtsUpdate_dtsUpdateForBoolUpdated_Test8TestBodyEv
FN:17,_ZN42TestDtsUpdate_dtsUpdateForBoolUpdated_TestD1Ev
FNDA:3,_ZN42TestDtsUpdate_dtsUpdateForBoolUpdated_TestD1Ev
FN:17,_ZN42TestDtsUpdate_dtsUpdateForBoolUpdated_TestD0Ev
FNDA:3,_ZN42TestDtsUpdate_dtsUpdateForBoolUpdated_TestD0Ev
FN:17,_ZN42TestDtsUpdate_dtsUpdateForBoolUpdated_TestC1Ev
FNDA:3,_ZN42TestDtsUpdate_dtsUpdateForBoolUpdated_TestC1Ev
FN:17,_ZN42TestDtsUpdate_dtsUpdateForBoolUpdated_TestC2Ev
FNDA:3,_ZN42TestDtsUpdate_dtsUpdateForBoolUpdated_TestC2Ev
FN:17,_ZN42TestDtsUpdate_dtsUpdateForBoolUpdated_TestD2Ev
FNDA:3,_ZN42TestDtsUpdate_dtsUpdateForBoolUpdated_TestD2Ev
FN:31,_ZN43TestDtsUpdate_dtsUpdateForInt32Default_Test8TestBodyEv
FNDA:3,_ZN43TestDtsUpdate_dtsUpdateForInt32Default_Test8TestBodyEv
FN:31,_ZN43TestDtsUpdate_dtsUpdateForInt32Default_TestD1Ev
FNDA:3,_ZN43TestDtsUpdate_dtsUpdateForInt32Default_TestD1Ev
FN:31,_ZN43TestDtsUpdate_dtsUpdateForInt32Default_TestD0Ev
FNDA:3,_ZN43TestDtsUpdate_dtsUpdateForInt32Default_TestD0Ev
FN:31,_ZN43TestDtsUpdate_dtsUpdateForInt32Default_TestC1Ev
FNDA:3,_ZN43TestDtsUpdate_dtsUpdateForInt32Default_TestC1Ev
FN:31,_ZN43TestDtsUpdate_dtsUpdateForInt32Default_TestC2Ev
FNDA:3,_ZN43TestDtsUpdate_dtsUpdateForInt32Default_TestC2Ev
FN:31,_ZN43TestDtsUpdate_dtsUpdateForInt32Default_TestD2Ev
FNDA:3,_ZN43TestDtsUpdate_dtsUpdateForInt32Default_TestD2Ev
FN:45,_ZN43TestDtsUpdate_dtsUpdateForInt32Updated_Test8TestBodyEv
FNDA:3,_ZN43TestDtsUpdate_dtsUpdateForInt32Updated_Test8TestBodyEv
FN:45,_ZN43TestDtsUpdate_dtsUpdateForInt32Updated_TestD1Ev
FNDA:3,_ZN43TestDtsUpdate_dtsUpdateForInt32Updated_TestD1Ev
FN:45,_ZN43TestDtsUpdate_dtsUpdateForInt32Updated_TestD0Ev
FNDA:3,_ZN43TestDtsUpdate_dtsUpdateForInt32Updated_TestD0Ev
FN:45,_ZN43TestDtsUpdate_dtsUpdateForInt32Updated_TestC1Ev
FNDA:3,_ZN43TestDtsUpdate_dtsUpdateForInt32Updated_TestC1Ev
FN:45,_ZN43TestDtsUpdate_dtsUpdateForInt32Updated_TestC2Ev
FNDA:3,_ZN43TestDtsUpdate_dtsUpdateForInt32Updated_TestC2Ev
FN:45,_ZN43TestDtsUpdate_dtsUpdateForInt32Updated_TestD2Ev
FNDA:3,_ZN43TestDtsUpdate_dtsUpdateForInt32Updated_TestD2Ev
FN:59,_ZN45TestDtsUpdate_dtsUpdateForFloat64Default_Test8TestBodyEv
FNDA:3,_ZN45TestDtsUpdate_dtsUpdateForFloat64Default_Test8TestBodyEv
FN:59,_ZN45TestDtsUpdate_dtsUpdateForFloat64Default_TestD1Ev
FNDA:3,_ZN45TestDtsUpdate_dtsUpdateForFloat64Default_TestD1Ev
FN:59,_ZN45TestDtsUpdate_dtsUpdateForFloat64Default_TestD0Ev
FNDA:3,_ZN45TestDtsUpdate_dtsUpdateForFloat64Default_TestD0Ev
FN:59,_ZN45TestDtsUpdate_dtsUpdateForFloat64Default_TestC1Ev
FNDA:3,_ZN45TestDtsUpdate_dtsUpdateForFloat64Default_TestC1Ev
FN:59,_ZN45TestDtsUpdate_dtsUpdateForFloat64Default_TestC2Ev
FNDA:3,_ZN45TestDtsUpdate_dtsUpdateForFloat64Default_TestC2Ev
FN:59,_ZN45TestDtsUpdate_dtsUpdateForFloat64Default_TestD2Ev
FNDA:3,_ZN45TestDtsUpdate_dtsUpdateForFloat64Default_TestD2Ev
FN:74,_ZN45TestDtsUpdate_dtsUpdateForFloat64Updated_Test8TestBodyEv
FNDA:3,_ZN45TestDtsUpdate_dtsUpdateForFloat64Updated_Test8TestBodyEv
FN:74,_ZN45TestDtsUpdate_dtsUpdateForFloat64Updated_TestD1Ev
FNDA:3,_ZN45TestDtsUpdate_dtsUpdateForFloat64Updated_TestD1Ev
FN:74,_ZN45TestDtsUpdate_dtsUpdateForFloat64Updated_TestD0Ev
FNDA:3,_ZN45TestDtsUpdate_dtsUpdateForFloat64Updated_TestD0Ev
FN:74,_ZN45TestDtsUpdate_dtsUpdateForFloat64Updated_TestC1Ev
FNDA:3,_ZN45TestDtsUpdate_dtsUpdateForFloat64Updated_TestC1Ev
FN:74,_ZN45TestDtsUpdate_dtsUpdateForFloat64Updated_TestC2Ev
FNDA:3,_ZN45TestDtsUpdate_dtsUpdateForFloat64Updated_TestC2Ev
FN:74,_ZN45TestDtsUpdate_dtsUpdateForFloat64Updated_TestD2Ev
FNDA:3,_ZN45TestDtsUpdate_dtsUpdateForFloat64Updated_TestD2Ev
DA:3,108
DA:5,3
DA:6,3
DA:9,3
DA:10,3
DA:12,3
DA:14,3
DA:15,3
DA:17,108
DA:19,3
DA:20,3
DA:23,3
DA:24,3
DA:26,3
DA:28,3
DA:29,3
DA:31,108
DA:33,3
DA:34,3
DA:37,3
DA:38,3
DA:40,3
DA:42,3
DA:43,3
DA:45,108
DA:47,3
DA:48,3
DA:51,3
DA:52,3
DA:54,3
DA:56,3
DA:57,3
DA:59,108
DA:61,3
DA:62,3
DA:63,3
DA:66,3
DA:67,3
DA:69,3
DA:71,3
DA:72,3
DA:74,108
DA:76,3
DA:77,3
DA:78,3
DA:81,3
DA:82,3
DA:84,3
DA:86,3
DA:87,3
FNF:42
FNH:42
LF:50
LH:50
end_of_record
SF:/Library/Developer/CommandLineTools/SDKs/MacOSX12.3.sdk/usr/include/c++/v1/__iterator/ostreambuf_iterator.h
FN:53,_ZNSt3__119ostreambuf_iteratorIcNS_11char_traitsIcEEEC1ERNS_13basic_ostreamIcS2_EE
FNDA:0,_ZNSt3__119ostreambuf_iteratorIcNS_11char_traitsIcEEEC1ERNS_13basic_ostreamIcS2_EE
FN:53,_ZNSt3__119ostreambuf_iteratorIcNS_11char_traitsIcEEEC2ERNS_13basic_ostreamIcS2_EE
FNDA:0,_ZNSt3__119ostreambuf_iteratorIcNS_11char_traitsIcEEEC2ERNS_13basic_ostreamIcS2_EE
FN:66,_ZNKSt3__119ostreambuf_iteratorIcNS_11char_traitsIcEEE6failedEv
FNDA:0,_ZNKSt3__119ostreambuf_iteratorIcNS_11char_traitsIcEEE6failedEv
DA:53,0
DA:54,0
DA:66,0
FNF:3
FNH:0
LF:3
LH:0
end_of_record
SF:/Library/Developer/CommandLineTools/SDKs/MacOSX12.3.sdk/usr/include/c++/v1/sstream
FN:227,_ZNSt3__115basic_stringbufIcNS_11char_traitsIcEENS_9allocatorIcEEEC1Ej
FNDA:0,_ZNSt3__115basic_stringbufIcNS_11char_traitsIcEENS_9allocatorIcEEEC1Ej
FN:227,_ZNSt3__115basic_stringbufIcNS_11char_traitsIcEENS_9allocatorIcEEEC2Ej
FNDA:0,_ZNSt3__115basic_stringbufIcNS_11char_traitsIcEENS_9allocatorIcEEEC2Ej
FN:802,_ZNSt3__118basic_stringstreamIcNS_11char_traitsIcEENS_9allocatorIcEEEC1Ev
FNDA:0,_ZNSt3__118basic_stringstreamIcNS_11char_traitsIcEENS_9allocatorIcEEEC1Ev
FN:842,_ZNKSt3__118basic_stringstreamIcNS_11char_traitsIcEENS_9allocatorIcEEE3strEv
FNDA:0,_ZNKSt3__118basic_stringstreamIcNS_11char_traitsIcEENS_9allocatorIcEEE3strEv
FN:861,_ZNSt3__115basic_stringbufIcNS_11char_traitsIcEENS_9allocatorIcEEED1Ev
FNDA:0,_ZNSt3__115basic_stringbufIcNS_11char_traitsIcEENS_9allocatorIcEEED1Ev
FN:861,_ZNSt3__115basic_stringbufIcNS_11char_traitsIcEENS_9allocatorIcEEED2Ev
FNDA:0,_ZNSt3__115basic_stringbufIcNS_11char_traitsIcEENS_9allocatorIcEEED2Ev
FN:862,_ZNSt3__118basic_stringstreamIcNS_11char_traitsIcEENS_9allocatorIcEEED1Ev
FNDA:0,_ZNSt3__118basic_stringstreamIcNS_11char_traitsIcEENS_9allocatorIcEEED1Ev
FN:862,_ZNSt3__118basic_stringstreamIcNS_11char_traitsIcEENS_9allocatorIcEEED2Ev
FNDA:0,_ZNSt3__118basic_stringstreamIcNS_11char_traitsIcEENS_9allocatorIcEEED2Ev
DA:227,0
DA:228,0
DA:802,0
DA:803,0
DA:842,0
DA:843,0
FNF:8
FNH:0
LF:6
LH:0
end_of_record
SF:/Library/Developer/CommandLineTools/SDKs/MacOSX12.3.sdk/usr/include/c++/v1/ios
FN:344,_ZNSt3__18ios_baseC2Ev
FNDA:0,_ZNSt3__18ios_baseC2Ev
FN:348,_ZNKSt3__18ios_base5rdbufEv
FNDA:0,_ZNKSt3__18ios_base5rdbufEv
FN:459,_ZNKSt3__18ios_base5flagsEv
FNDA:0,_ZNKSt3__18ios_base5flagsEv
FN:521,_ZNKSt3__18ios_base5widthEv
FNDA:0,_ZNKSt3__18ios_base5widthEv
FN:528,_ZNSt3__18ios_base5widthEl
FNDA:0,_ZNSt3__18ios_base5widthEl
FN:546,_ZNSt3__18ios_base8setstateEj
FNDA:0,_ZNSt3__18ios_base8setstateEj
FN:623,_ZNSt3__19basic_iosIcNS_11char_traitsIcEEE8setstateEj
FNDA:0,_ZNSt3__19basic_iosIcNS_11char_traitsIcEEE8setstateEj
FN:665,_ZNSt3__19basic_iosIcNS_11char_traitsIcEEEC2Ev
FNDA:0,_ZNSt3__19basic_iosIcNS_11char_traitsIcEEEC2Ev
FN:698,_ZNSt3__19basic_iosIcNS_11char_traitsIcEEE4initEPNS_15basic_streambufIcS2_EE
FNDA:0,_ZNSt3__19basic_iosIcNS_11char_traitsIcEEE4initEPNS_15basic_streambufIcS2_EE
FN:726,_ZNKSt3__19basic_iosIcNS_11char_traitsIcEEE5rdbufEv
FNDA:0,_ZNKSt3__19basic_iosIcNS_11char_traitsIcEEE5rdbufEv
FN:764,_ZNKSt3__19basic_iosIcNS_11char_traitsIcEEE5widenEc
FNDA:0,_ZNKSt3__19basic_iosIcNS_11char_traitsIcEEE5widenEc
FN:772,_ZNKSt3__19basic_iosIcNS_11char_traitsIcEEE4fillEv
FNDA:0,_ZNKSt3__19basic_iosIcNS_11char_traitsIcEEE4fillEv
DA:344,0
DA:345,0
DA:348,0
DA:459,0
DA:461,0
DA:521,0
DA:523,0
DA:528,0
DA:530,0
DA:531,0
DA:532,0
DA:546,0
DA:548,0
DA:549,0
DA:623,0
DA:665,0
DA:666,0
DA:698,0
DA:700,0
DA:701,0
DA:702,0
DA:703,0
DA:726,0
DA:728,0
DA:764,0
DA:766,0
DA:767,0
DA:772,0
DA:774,0
DA:775,0
DA:776,0
FNF:12
FNH:0
LF:31
LH:0
end_of_record
SF:/Users/dogukanarat/Workspace/DevelopmentTestSystem/Binaries/Debug/Intermediate/_deps/googletest-src/googletest/include/gtest/gtest-assertion-result.h
FN:133,_ZN7testing15AssertionResultD1Ev
FNDA:0,_ZN7testing15AssertionResultD1Ev
FN:133,_ZN7testing15AssertionResultD2Ev
FNDA:0,_ZN7testing15AssertionResultD2Ev
FN:174,_ZNK7testing15AssertionResultcvbEv
FNDA:0,_ZNK7testing15AssertionResultcvbEv
FN:183,_ZNK7testing15AssertionResult7messageEv
FNDA:0,_ZNK7testing15AssertionResult7messageEv
FN:187,_ZNK7testing15AssertionResult15failure_messageEv
FNDA:0,_ZNK7testing15AssertionResult15failure_messageEv
DA:174,0
DA:183,0
DA:184,0
DA:187,0
FNF:5
FNH:0
LF:4
LH:0
end_of_record
SF:/Library/Developer/CommandLineTools/SDKs/MacOSX12.3.sdk/usr/include/c++/v1/__memory/addressof.h
FN:30,_ZNSt3__1L9addressofIKcEEPT_RS2_
FNDA:0,_ZNSt3__1L9addressofIKcEEPT_RS2_
DA:30,0
DA:32,0
FNF:1
FNH:0
LF:2
LH:0
end_of_record
SF:/Library/Developer/CommandLineTools/SDKs/MacOSX12.3.sdk/usr/include/c++/v1/__memory/allocator.h
FN:74,_ZNSt3__116__non_trivial_ifILb1ENS_9allocatorIcEEEC2Ev
FNDA:540,_ZNSt3__116__non_trivial_ifILb1ENS_9allocatorIcEEEC2Ev
FN:94,_ZNSt3__19allocatorIcEC2Ev
FNDA:540,_ZNSt3__19allocatorIcEC2Ev
DA:74,540
DA:94,540
FNF:2
FNH:2
LF:2
LH:2
end_of_record
SF:/Library/Developer/CommandLineTools/SDKs/MacOSX12.3.sdk/usr/include/c++/v1/locale
FN:1395,_ZNSt3__116__pad_and_outputIcNS_11char_traitsIcEEEENS_19ostreambuf_iteratorIT_T0_EES6_PKS4_S8_S8_RNS_8ios_baseES4_
FNDA:0,_ZNSt3__116__pad_and_outputIcNS_11char_traitsIcEEEENS_19ostreambuf_iteratorIT_T0_EES6_PKS4_S8_S8_RNS_8ios_baseES4_
DA:1395,0
DA:1399,0
DA:1400,0
DA:1401,0
DA:1402,0
DA:1403,0
DA:1404,0
DA:1406,0
DA:1407,0
DA:1408,0
DA:1410,0
DA:1412,0
DA:1413,0
DA:1415,0
DA:1416,0
DA:1418,0
DA:1419,0
DA:1421,0
DA:1422,0
DA:1424,0
DA:1425,0
DA:1426,0
DA:1428,0
DA:1430,0
DA:1431,0
DA:1433,0
DA:1434,0
DA:1435,0
DA:1436,0
FNF:1
FNH:0
LF:29
LH:0
end_of_record
SF:/Library/Developer/CommandLineTools/SDKs/MacOSX12.3.sdk/usr/include/c++/v1/__memory/compressed_pair.h
FN:41,_ZNSt3__122__compressed_pair_elemINS_12basic_stringIcNS_11char_traitsIcEENS_9allocatorIcEEE5__repELi0ELb0EEC2ENS_18__default_init_tagE
FNDA:540,_ZNSt3__122__compressed_pair_elemINS_12basic_stringIcNS_11char_traitsIcEENS_9allocatorIcEEE5__repELi0ELb0EEC2ENS_18__default_init_tagE
FN:65,_ZNSt3__122__compressed_pair_elemIPNS_18basic_stringstreamIcNS_11char_traitsIcEENS_9allocatorIcEEEELi0ELb0EE5__getEv
FNDA:0,_ZNSt3__122__compressed_pair_elemIPNS_18basic_stringstreamIcNS_11char_traitsIcEENS_9allocatorIcEEEELi0ELb0EE5__getEv
FN:65,_ZNSt3__122__compressed_pair_elemIPNS_12basic_stringIcNS_11char_traitsIcEENS_9allocatorIcEEEELi0ELb0EE5__getEv
FNDA:0,_ZNSt3__122__compressed_pair_elemIPNS_12basic_stringIcNS_11char_traitsIcEENS_9allocatorIcEEEELi0ELb0EE5__getEv
FN:65,_ZNSt3__122__compressed_pair_elemINS_12basic_stringIcNS_11char_traitsIcEENS_9allocatorIcEEE5__repELi0ELb0EE5__getEv
FNDA:0,_ZNSt3__122__compressed_pair_elemINS_12basic_stringIcNS_11char_traitsIcEENS_9allocatorIcEEE5__repELi0ELb0EE5__getEv
FN:67,_ZNKSt3__122__compressed_pair_elemIPNS_12basic_stringIcNS_11char_traitsIcEENS_9allocatorIcEEEELi0ELb0EE5__getEv
FNDA:0,_ZNKSt3__122__compressed_pair_elemIPNS_12basic_stringIcNS_11char_traitsIcEENS_9allocatorIcEEEELi0ELb0EE5__getEv
FN:67,_ZNKSt3__122__compressed_pair_elemINS_12basic_stringIcNS_11char_traitsIcEENS_9allocatorIcEEE5__repELi0ELb0EE5__getEv
FNDA:0,_ZNKSt3__122__compressed_pair_elemINS_12basic_stringIcNS_11char_traitsIcEENS_9allocatorIcEEE5__repELi0ELb0EE5__getEv
FN:82,_ZNSt3__122__compressed_pair_elemINS_9allocatorIcEELi1ELb1EEC2ENS_18__default_init_tagE
FNDA:540,_ZNSt3__122__compressed_pair_elemINS_9allocatorIcEELi1ELb1EEC2ENS_18__default_init_tagE
FN:103,_ZNSt3__122__compressed_pair_elemINS_14default_deleteINS_18basic_stringstreamIcNS_11char_traitsIcEENS_9allocatorIcEEEEEELi1ELb1EE5__getEv
FNDA:0,_ZNSt3__122__compressed_pair_elemINS_14default_deleteINS_18basic_stringstreamIcNS_11char_traitsIcEENS_9allocatorIcEEEEEELi1ELb1EE5__getEv
FN:103,_ZNSt3__122__compressed_pair_elemINS_14default_deleteINS_12basic_stringIcNS_11char_traitsIcEENS_9allocatorIcEEEEEELi1ELb1EE5__getEv
FNDA:0,_ZNSt3__122__compressed_pair_elemINS_14default_deleteINS_12basic_stringIcNS_11char_traitsIcEENS_9allocatorIcEEEEEELi1ELb1EE5__getEv
FN:135,_ZNSt3__117__compressed_pairINS_12basic_stringIcNS_11char_traitsIcEENS_9allocatorIcEEE5__repES5_EC1INS_18__default_init_tagESA_EEOT_OT0_
FNDA:540,_ZNSt3__117__compressed_pairINS_12basic_stringIcNS_11char_traitsIcEENS_9allocatorIcEEE5__repES5_EC1INS_18__default_init_tagESA_EEOT_OT0_
FN:135,_ZNSt3__117__compressed_pairINS_12basic_stringIcNS_11char_traitsIcEENS_9allocatorIcEEE5__repES5_EC2INS_18__default_init_tagESA_EEOT_OT0_
FNDA:540,_ZNSt3__117__compressed_pairINS_12basic_stringIcNS_11char_traitsIcEENS_9allocatorIcEEE5__repES5_EC2INS_18__default_init_tagESA_EEOT_OT0_
FN:150,_ZNSt3__117__compressed_pairIPNS_18basic_stringstreamIcNS_11char_traitsIcEENS_9allocatorIcEEEENS_14default_deleteIS6_EEE5firstEv
FNDA:0,_ZNSt3__117__compressed_pairIPNS_18basic_stringstreamIcNS_11char_traitsIcEENS_9allocatorIcEEEENS_14default_deleteIS6_EEE5firstEv
FN:150,_ZNSt3__117__compressed_pairIPNS_12basic_stringIcNS_11char_traitsIcEENS_9allocatorIcEEEENS_14default_deleteIS6_EEE5firstEv
FNDA:0,_ZNSt3__117__compressed_pairIPNS_12basic_stringIcNS_11char_traitsIcEENS_9allocatorIcEEEENS_14default_deleteIS6_EEE5firstEv
FN:150,_ZNSt3__117__compressed_pairINS_12basic_stringIcNS_11char_traitsIcEENS_9allocatorIcEEE5__repES5_E5firstEv
FNDA:0,_ZNSt3__117__compressed_pairINS_12basic_stringIcNS_11char_traitsIcEENS_9allocatorIcEEE5__repES5_E5firstEv
FN:155,_ZNKSt3__117__compressed_pairIPNS_12basic_stringIcNS_11char_traitsIcEENS_9allocatorIcEEEENS_14default_deleteIS6_EEE5firstEv
FNDA:0,_ZNKSt3__117__compressed_pairIPNS_12basic_stringIcNS_11char_traitsIcEENS_9allocatorIcEEEENS_14default_deleteIS6_EEE5firstEv
FN:155,_ZNKSt3__117__compressed_pairINS_12basic_stringIcNS_11char_traitsIcEENS_9allocatorIcEEE5__repES5_E5firstEv
FNDA:0,_ZNKSt3__117__compressed_pairINS_12basic_stringIcNS_11char_traitsIcEENS_9allocatorIcEEE5__repES5_E5firstEv
FN:160,_ZNSt3__117__compressed_pairIPNS_18basic_stringstreamIcNS_11char_traitsIcEENS_9allocatorIcEEEENS_14default_deleteIS6_EEE6secondEv
FNDA:0,_ZNSt3__117__compressed_pairIPNS_18basic_stringstreamIcNS_11char_traitsIcEENS_9allocatorIcEEEENS_14default_deleteIS6_EEE6secondEv
FN:160,_ZNSt3__117__compressed_pairIPNS_12basic_stringIcNS_11char_traitsIcEENS_9allocatorIcEEEENS_14default_deleteIS6_EEE6secondEv
FNDA:0,_ZNSt3__117__compressed_pairIPNS_12basic_stringIcNS_11char_traitsIcEENS_9allocatorIcEEEENS_14default_deleteIS6_EEE6secondEv
DA:41,540
DA:65,0
DA:67,0
DA:82,540
DA:103,0
DA:135,1080
DA:136,1080
DA:150,0
DA:151,0
DA:155,0
DA:156,0
DA:160,0
DA:161,0
FNF:18
FNH:4
LF:13
LH:4
end_of_record
SF:/Library/Developer/CommandLineTools/SDKs/MacOSX12.3.sdk/usr/include/c++/v1/string
FN:840,_ZNSt3__112basic_stringIcNS_11char_traitsIcEENS_9allocatorIcEEEC1IDnEEPKc
FNDA:540,_ZNSt3__112basic_stringIcNS_11char_traitsIcEENS_9allocatorIcEEEC1IDnEEPKc
FN:840,_ZNSt3__112basic_stringIcNS_11char_traitsIcEENS_9allocatorIcEEEC2IDnEEPKc
FNDA:540,_ZNSt3__112basic_stringIcNS_11char_traitsIcEENS_9allocatorIcEEEC2IDnEEPKc
FN:1263,_ZNKSt3__112basic_stringIcNS_11char_traitsIcEENS_9allocatorIcEEE5c_strEv
FNDA:0,_ZNKSt3__112basic_stringIcNS_11char_traitsIcEENS_9allocatorIcEEE5c_strEv
FN:1265,_ZNKSt3__112basic_stringIcNS_11char_traitsIcEENS_9allocatorIcEEE4dataEv
FNDA:0,_ZNKSt3__112basic_stringIcNS_11char_traitsIcEENS_9allocatorIcEEE4dataEv
FN:1458,_ZNKSt3__112basic_stringIcNS_11char_traitsIcEENS_9allocatorIcEEE9__is_longEv
FNDA:0,_ZNKSt3__112basic_stringIcNS_11char_traitsIcEENS_9allocatorIcEEE9__is_longEv
FN:1540,_ZNKSt3__112basic_stringIcNS_11char_traitsIcEENS_9allocatorIcEEE18__get_long_pointerEv
FNDA:0,_ZNKSt3__112basic_stringIcNS_11char_traitsIcEENS_9allocatorIcEEE18__get_long_pointerEv
FN:1546,_ZNKSt3__112basic_stringIcNS_11char_traitsIcEENS_9allocatorIcEEE19__get_short_pointerEv
FNDA:0,_ZNKSt3__112basic_stringIcNS_11char_traitsIcEENS_9allocatorIcEEE19__get_short_pointerEv
FN:1552,_ZNKSt3__112basic_stringIcNS_11char_traitsIcEENS_9allocatorIcEEE13__get_pointerEv
FNDA:0,_ZNKSt3__112basic_stringIcNS_11char_traitsIcEENS_9allocatorIcEEE13__get_pointerEv
FN:1556,_ZNSt3__112basic_stringIcNS_11char_traitsIcEENS_9allocatorIcEEE6__zeroEv
FNDA:0,_ZNSt3__112basic_stringIcNS_11char_traitsIcEENS_9allocatorIcEEE6__zeroEv
FN:1829,_ZNSt3__112basic_stringIcNS_11char_traitsIcEENS_9allocatorIcEEEC1Ev
FNDA:0,_ZNSt3__112basic_stringIcNS_11char_traitsIcEENS_9allocatorIcEEEC1Ev
FN:1829,_ZNSt3__112basic_stringIcNS_11char_traitsIcEENS_9allocatorIcEEEC2Ev
FNDA:0,_ZNSt3__112basic_stringIcNS_11char_traitsIcEENS_9allocatorIcEEEC2Ev
FN:2056,_ZNSt3__112basic_stringIcNS_11char_traitsIcEENS_9allocatorIcEEEC1Emc
FNDA:0,_ZNSt3__112basic_stringIcNS_11char_traitsIcEENS_9allocatorIcEEEC1Emc
FN:2056,_ZNSt3__112basic_stringIcNS_11char_traitsIcEENS_9allocatorIcEEEC2Emc
FNDA:0,_ZNSt3__112basic_stringIcNS_11char_traitsIcEENS_9allocatorIcEEEC2Emc
DA:840,1080
DA:842,540
DA:846,1080
DA:1263,0
DA:1265,0
DA:1458,0
DA:1459,0
DA:1540,0
DA:1541,0
DA:1546,0
DA:1547,0
DA:1552,0
DA:1553,0
DA:1556,0
DA:1558,0
DA:1559,0
DA:1560,0
DA:1561,0
DA:1829,0
DA:1831,0
DA:1832,0
DA:1836,0
DA:1837,0
DA:2056,0
DA:2057,0
DA:2058,0
DA:2059,0
DA:2063,0
FNF:13
FNH:2
LF:28
LH:3
end_of_record
SF:/Library/Developer/CommandLineTools/SDKs/MacOSX12.3.sdk/usr/include/c++/v1/istream
FN:191,_ZNSt3__113basic_istreamIcNS_11char_traitsIcEEEC2EPNS_15basic_streambufIcS2_EE
FNDA:0,_ZNSt3__113basic_istreamIcNS_11char_traitsIcEEEC2EPNS_15basic_streambufIcS2_EE
FN:1405,_ZNSt3__114basic_iostreamIcNS_11char_traitsIcEEEC2EPNS_15basic_streambufIcS2_EE
FNDA:0,_ZNSt3__114basic_iostreamIcNS_11char_traitsIcEEEC2EPNS_15basic_streambufIcS2_EE
DA:191,0
DA:192,0
DA:1405,0
DA:1406,0
DA:1407,0
FNF:2
FNH:0
LF:5
LH:0
end_of_record
SF:/Users/dogukanarat/Workspace/DevelopmentTestSystem/Binaries/Debug/Intermediate/_deps/googletest-src/googletest/include/gtest/internal/gtest-port.h
FN:967,_ZN7testing8internal8GTestLog9GetStreamEv
FNDA:0,_ZN7testing8internal8GTestLog9GetStreamEv
DA:967,0
FNF:1
FNH:0
LF:1
LH:0
end_of_record
TN:
SF:/Users/dogukanarat/Workspace/DevelopmentTestSystem/Tests/UnitTest/TestDtsServer.cpp
FN:0,__cxx_global_var_init
FNDA:90,__cxx_global_var_init
FN:0,__cxx_global_var_init.14
FNDA:90,__cxx_global_var_init.14
FN:3,_ZN42TestDtsServer_TestDtsServerInitialize_Test8TestBodyEv
FNDA:3,_ZN42TestDtsServer_TestDtsServerInitialize_Test8TestBodyEv
FN:3,_ZN42TestDtsServer_TestDtsServerInitialize_TestD1Ev
FNDA:3,_ZN42TestDtsServer_TestDtsServerInitialize_TestD1Ev
FN:3,_ZN42TestDtsServer_TestDtsServerInitialize_TestD0Ev
FNDA:3,_ZN42TestDtsServer_TestDtsServerInitialize_TestD0Ev
FN:3,_ZN42TestDtsServer_TestDtsServerInitialize_TestC1Ev
FNDA:3,_ZN42TestDtsServer_TestDtsServerInitialize_TestC1Ev
FN:3,_ZN42TestDtsServer_TestDtsServerInitialize_TestC2Ev
FNDA:3,_ZN42TestDtsServer_TestDtsServerInitialize_TestC2Ev
FN:3,_ZN42TestDtsServer_TestDtsServerInitialize_TestD2Ev
FNDA:3,_ZN42TestDtsServer_TestDtsServerInitialize_TestD2Ev
FN:25,_ZN49TestDtsServer_TestDtsServerMonitoringFeature_Test8TestBodyEv
FNDA:3,_ZN49TestDtsServer_TestDtsServerMonitoringFeature_Test8TestBodyEv
FN:25,_ZN49TestDtsServer_TestDtsServerMonitoringFeature_TestD1Ev
FNDA:3,_ZN49TestDtsServer_TestDtsServerMonitoringFeature_TestD1Ev
FN:25,_ZN49TestDtsServer_TestDtsServerMonitoringFeature_TestD0Ev
FNDA:3,_ZN49TestDtsServer_TestDtsServerMonitoringFeature_TestD0Ev
FN:25,_ZN49TestDtsServer_TestDtsServerMonitoringFeature_TestC1Ev
FNDA:3,_ZN49TestDtsServer_TestDtsServerMonitoringFeature_TestC1Ev
FN:25,_ZN49TestDtsServer_TestDtsServerMonitoringFeature_TestC2Ev
FNDA:3,_ZN49TestDtsServer_TestDtsServerMonitoringFeature_TestC2Ev
FN:25,_ZN49TestDtsServer_TestDtsServerMonitoringFeature_TestD2Ev
FNDA:3,_ZN49TestDtsServer_TestDtsServerMonitoringFeature_TestD2Ev
DA:3,108
DA:5,3
DA:7,3
DA:8,3
DA:11,3
DA:13,3
DA:16,3
DA:17,3
DA:18,3
DA:19,3
DA:20,3
DA:21,3
DA:23,3
DA:25,108
DA:27,3
DA:29,3
DA:30,3
DA:33,3
DA:35,3
DA:40,3
DA:42,3
DA:43,3
DA:48,3
DA:50,3
DA:52,3
DA:54,3
DA:56,3
DA:58,3
DA:60,3
DA:61,3
DA:62,3
FNF:14
FNH:14
LF:31
LH:31
end_of_record
SF:/Library/Developer/CommandLineTools/SDKs/MacOSX12.3.sdk/usr/include/c++/v1/locale
FN:1395,_ZNSt3__116__pad_and_outputIcNS_11char_traitsIcEEEENS_19ostreambuf_iteratorIT_T0_EES6_PKS4_S8_S8_RNS_8ios_baseES4_
FNDA:0,_ZNSt3__116__pad_and_outputIcNS_11char_traitsIcEEEENS_19ostreambuf_iteratorIT_T0_EES6_PKS4_S8_S8_RNS_8ios_baseES4_
DA:1395,0
DA:1399,0
DA:1400,0
DA:1401,0
DA:1402,0
DA:1403,0
DA:1404,0
DA:1406,0
DA:1407,0
DA:1408,0
DA:1410,0
DA:1412,0
DA:1413,0
DA:1415,0
DA:1416,0
DA:1418,0
DA:1419,0
DA:1421,0
DA:1422,0
DA:1424,0
DA:1425,0
DA:1426,0
DA:1428,0
DA:1430,0
DA:1431,0
DA:1433,0
DA:1434,0
DA:1435,0
DA:1436,0
FNF:1
FNH:0
LF:29
LH:0
end_of_record
SF:/Library/Developer/CommandLineTools/SDKs/MacOSX12.3.sdk/usr/include/c++/v1/__memory/allocator.h
FN:74,_ZNSt3__116__non_trivial_ifILb1ENS_9allocatorIcEEEC2Ev
FNDA:180,_ZNSt3__116__non_trivial_ifILb1ENS_9allocatorIcEEEC2Ev
FN:94,_ZNSt3__19allocatorIcEC2Ev
FNDA:180,_ZNSt3__19allocatorIcEC2Ev
DA:74,180
DA:94,180
FNF:2
FNH:2
LF:2
LH:2
end_of_record
SF:/Library/Developer/CommandLineTools/SDKs/MacOSX12.3.sdk/usr/include/c++/v1/__memory/compressed_pair.h
FN:41,_ZNSt3__122__compressed_pair_elemINS_12basic_stringIcNS_11char_traitsIcEENS_9allocatorIcEEE5__repELi0ELb0EEC2ENS_18__default_init_tagE
FNDA:180,_ZNSt3__122__compressed_pair_elemINS_12basic_stringIcNS_11char_traitsIcEENS_9allocatorIcEEE5__repELi0ELb0EEC2ENS_18__default_init_tagE
FN:65,_ZNSt3__122__compressed_pair_elemIPNS_18basic_stringstreamIcNS_11char_traitsIcEENS_9allocatorIcEEEELi0ELb0EE5__getEv
FNDA:0,_ZNSt3__122__compressed_pair_elemIPNS_18basic_stringstreamIcNS_11char_traitsIcEENS_9allocatorIcEEEELi0ELb0EE5__getEv
FN:65,_ZNSt3__122__compressed_pair_elemIPNS_12basic_stringIcNS_11char_traitsIcEENS_9allocatorIcEEEELi0ELb0EE5__getEv
FNDA:0,_ZNSt3__122__compressed_pair_elemIPNS_12basic_stringIcNS_11char_traitsIcEENS_9allocatorIcEEEELi0ELb0EE5__getEv
FN:65,_ZNSt3__122__compressed_pair_elemINS_12basic_stringIcNS_11char_traitsIcEENS_9allocatorIcEEE5__repELi0ELb0EE5__getEv
FNDA:0,_ZNSt3__122__compressed_pair_elemINS_12basic_stringIcNS_11char_traitsIcEENS_9allocatorIcEEE5__repELi0ELb0EE5__getEv
FN:67,_ZNKSt3__122__compressed_pair_elemIPNS_12basic_stringIcNS_11char_traitsIcEENS_9allocatorIcEEEELi0ELb0EE5__getEv
FNDA:0,_ZNKSt3__122__compressed_pair_elemIPNS_12basic_stringIcNS_11char_traitsIcEENS_9allocatorIcEEEELi0ELb0EE5__getEv
FN:67,_ZNKSt3__122__compressed_pair_elemINS_12basic_stringIcNS_11char_traitsIcEENS_9allocatorIcEEE5__repELi0ELb0EE5__getEv
FNDA:0,_ZNKSt3__122__compressed_pair_elemINS_12basic_stringIcNS_11char_traitsIcEENS_9allocatorIcEEE5__repELi0ELb0EE5__getEv
FN:82,_ZNSt3__122__compressed_pair_elemINS_9allocatorIcEELi1ELb1EEC2ENS_18__default_init_tagE
FNDA:180,_ZNSt3__122__compressed_pair_elemINS_9allocatorIcEELi1ELb1EEC2ENS_18__default_init_tagE
FN:103,_ZNSt3__122__compressed_pair_elemINS_14default_deleteINS_18basic_stringstreamIcNS_11char_traitsIcEENS_9allocatorIcEEEEEELi1ELb1EE5__getEv
FNDA:0,_ZNSt3__122__compressed_pair_elemINS_14default_deleteINS_18basic_stringstreamIcNS_11char_traitsIcEENS_9allocatorIcEEEEEELi1ELb1EE5__getEv
FN:103,_ZNSt3__122__compressed_pair_elemINS_14default_deleteINS_12basic_stringIcNS_11char_traitsIcEENS_9allocatorIcEEEEEELi1ELb1EE5__getEv
FNDA:0,_ZNSt3__122__compressed_pair_elemINS_14default_deleteINS_12basic_stringIcNS_11char_traitsIcEENS_9allocatorIcEEEEEELi1ELb1EE5__getEv
FN:135,_ZNSt3__117__compressed_pairINS_12basic_stringIcNS_11char_traitsIcEENS_9allocatorIcEEE5__repES5_EC1INS_18__default_init_tagESA_EEOT_OT0_
FNDA:180,_ZNSt3__117__compressed_pairINS_12basic_stringIcNS_11char_traitsIcEENS_9allocatorIcEEE5__repES5_EC1INS_18__default_init_tagESA_EEOT_OT0_
FN:135,_ZNSt3__117__compressed_pairINS_12basic_stringIcNS_11char_traitsIcEENS_9allocatorIcEEE5__repES5_EC2INS_18__default_init_tagESA_EEOT_OT0_
FNDA:180,_ZNSt3__117__compressed_pairINS_12basic_stringIcNS_11char_traitsIcEENS_9allocatorIcEEE5__repES5_EC2INS_18__default_init_tagESA_EEOT_OT0_
FN:150,_ZNSt3__117__compressed_pairIPNS_18basic_stringstreamIcNS_11char_traitsIcEENS_9allocatorIcEEEENS_14default_deleteIS6_EEE5firstEv
FNDA:0,_ZNSt3__117__compressed_pairIPNS_18basic_stringstreamIcNS_11char_traitsIcEENS_9allocatorIcEEEENS_14default_deleteIS6_EEE5firstEv
FN:150,_ZNSt3__117__compressed_pairIPNS_12basic_stringIcNS_11char_traitsIcEENS_9allocatorIcEEEENS_14default_deleteIS6_EEE5firstEv
FNDA:0,_ZNSt3__117__compressed_pairIPNS_12basic_stringIcNS_11char_traitsIcEENS_9allocatorIcEEEENS_14default_deleteIS6_EEE5firstEv
FN:150,_ZNSt3__117__compressed_pairINS_12basic_stringIcNS_11char_traitsIcEENS_9allocatorIcEEE5__repES5_E5firstEv
FNDA:0,_ZNSt3__117__compressed_pairINS_12basic_stringIcNS_11char_traitsIcEENS_9allocatorIcEEE5__repES5_E5firstEv
FN:155,_ZNKSt3__117__compressed_pairIPNS_12basic_stringIcNS_11char_traitsIcEENS_9allocatorIcEEEENS_14default_deleteIS6_EEE5firstEv
FNDA:0,_ZNKSt3__117__compressed_pairIPNS_12basic_stringIcNS_11char_traitsIcEENS_9allocatorIcEEEENS_14default_deleteIS6_EEE5firstEv
FN:155,_ZNKSt3__117__compressed_pairINS_12basic_stringIcNS_11char_traitsIcEENS_9allocatorIcEEE5__repES5_E5firstEv
FNDA:0,_ZNKSt3__117__compressed_pairINS_12basic_stringIcNS_11char_traitsIcEENS_9allocatorIcEEE5__repES5_E5firstEv
FN:160,_ZNSt3__117__compressed_pairIPNS_18basic_stringstreamIcNS_11char_traitsIcEENS_9allocatorIcEEEENS_14default_deleteIS6_EEE6secondEv
FNDA:0,_ZNSt3__117__compressed_pairIPNS_18basic_stringstreamIcNS_11char_traitsIcEENS_9allocatorIcEEEENS_14default_deleteIS6_EEE6secondEv
FN:160,_ZNSt3__117__compressed_pairIPNS_12basic_stringIcNS_11char_traitsIcEENS_9allocatorIcEEEENS_14default_deleteIS6_EEE6secondEv
FNDA:0,_ZNSt3__117__compressed_pairIPNS_12basic_stringIcNS_11char_traitsIcEENS_9allocatorIcEEEENS_14default_deleteIS6_EEE6secondEv
DA:41,180
DA:65,0
DA:67,0
DA:82,180
DA:103,0
DA:135,360
DA:136,360
DA:150,0
DA:151,0
DA:155,0
DA:156,0
DA:160,0
DA:161,0
FNF:18
FNH:4
LF:13
LH:4
end_of_record
SF:/Library/Developer/CommandLineTools/SDKs/MacOSX12.3.sdk/usr/include/c++/v1/string
FN:840,_ZNSt3__112basic_stringIcNS_11char_traitsIcEENS_9allocatorIcEEEC1IDnEEPKc
FNDA:180,_ZNSt3__112basic_stringIcNS_11char_traitsIcEENS_9allocatorIcEEEC1IDnEEPKc
FN:840,_ZNSt3__112basic_stringIcNS_11char_traitsIcEENS_9allocatorIcEEEC2IDnEEPKc
FNDA:180,_ZNSt3__112basic_stringIcNS_11char_traitsIcEENS_9allocatorIcEEEC2IDnEEPKc
FN:1263,_ZNKSt3__112basic_stringIcNS_11char_traitsIcEENS_9allocatorIcEEE5c_strEv
FNDA:0,_ZNKSt3__112basic_stringIcNS_11char_traitsIcEENS_9allocatorIcEEE5c_strEv
FN:1265,_ZNKSt3__112basic_stringIcNS_11char_traitsIcEENS_9allocatorIcEEE4dataEv
FNDA:0,_ZNKSt3__112basic_stringIcNS_11char_traitsIcEENS_9allocatorIcEEE4dataEv
FN:1458,_ZNKSt3__112basic_stringIcNS_11char_traitsIcEENS_9allocatorIcEEE9__is_longEv
FNDA:0,_ZNKSt3__112basic_stringIcNS_11char_traitsIcEENS_9allocatorIcEEE9__is_longEv
FN:1540,_ZNKSt3__112basic_stringIcNS_11char_traitsIcEENS_9allocatorIcEEE18__get_long_pointerEv
FNDA:0,_ZNKSt3__112basic_stringIcNS_11char_traitsIcEENS_9allocatorIcEEE18__get_long_pointerEv
FN:1546,_ZNKSt3__112basic_stringIcNS_11char_traitsIcEENS_9allocatorIcEEE19__get_short_pointerEv
FNDA:0,_ZNKSt3__112basic_stringIcNS_11char_traitsIcEENS_9allocatorIcEEE19__get_short_pointerEv
FN:1552,_ZNKSt3__112basic_stringIcNS_11char_traitsIcEENS_9allocatorIcEEE13__get_pointerEv
FNDA:0,_ZNKSt3__112basic_stringIcNS_11char_traitsIcEENS_9allocatorIcEEE13__get_pointerEv
FN:1556,_ZNSt3__112basic_stringIcNS_11char_traitsIcEENS_9allocatorIcEEE6__zeroEv
FNDA:0,_ZNSt3__112basic_stringIcNS_11char_traitsIcEENS_9allocatorIcEEE6__zeroEv
FN:1829,_ZNSt3__112basic_stringIcNS_11char_traitsIcEENS_9allocatorIcEEEC1Ev
FNDA:0,_ZNSt3__112basic_stringIcNS_11char_traitsIcEENS_9allocatorIcEEEC1Ev
FN:1829,_ZNSt3__112basic_stringIcNS_11char_traitsIcEENS_9allocatorIcEEEC2Ev
FNDA:0,_ZNSt3__112basic_stringIcNS_11char_traitsIcEENS_9allocatorIcEEEC2Ev
FN:2056,_ZNSt3__112basic_stringIcNS_11char_traitsIcEENS_9allocatorIcEEEC1Emc
FNDA:0,_ZNSt3__112basic_stringIcNS_11char_traitsIcEENS_9allocatorIcEEEC1Emc
FN:2056,_ZNSt3__112basic_stringIcNS_11char_traitsIcEENS_9allocatorIcEEEC2Emc
FNDA:0,_ZNSt3__112basic_stringIcNS_11char_traitsIcEENS_9allocatorIcEEEC2Emc
DA:840,360
DA:842,180
DA:846,360
DA:1263,0
DA:1265,0
DA:1458,0
DA:1459,0
DA:1540,0
DA:1541,0
DA:1546,0
DA:1547,0
DA:1552,0
DA:1553,0
DA:1556,0
DA:1558,0
DA:1559,0
DA:1560,0
DA:1561,0
DA:1829,0
DA:1831,0
DA:1832,0
DA:1836,0
DA:1837,0
DA:2056,0
DA:2057,0
DA:2058,0
DA:2059,0
DA:2063,0
FNF:13
FNH:2
LF:28
LH:3
end_of_record
SF:/Library/Developer/CommandLineTools/SDKs/MacOSX12.3.sdk/usr/include/c++/v1/istream
FN:191,_ZNSt3__113basic_istreamIcNS_11char_traitsIcEEEC2EPNS_15basic_streambufIcS2_EE
FNDA:0,_ZNSt3__113basic_istreamIcNS_11char_traitsIcEEEC2EPNS_15basic_streambufIcS2_EE
FN:1405,_ZNSt3__114basic_iostreamIcNS_11char_traitsIcEEEC2EPNS_15basic_streambufIcS2_EE
FNDA:0,_ZNSt3__114basic_iostreamIcNS_11char_traitsIcEEEC2EPNS_15basic_streambufIcS2_EE
DA:191,0
DA:192,0
DA:1405,0
DA:1406,0
DA:1407,0
FNF:2
FNH:0
LF:5
LH:0
end_of_record
SF:/Users/dogukanarat/Workspace/DevelopmentTestSystem/Binaries/Debug/Intermediate/_deps/googletest-src/googletest/include/gtest/internal/gtest-port.h
FN:967,_ZN7testing8internal8GTestLog9GetStreamEv
FNDA:0,_ZN7testing8internal8GTestLog9GetStreamEv
DA:967,0
FNF:1
FNH:0
LF:1
LH:0
end_of_record
SF:/Library/Developer/CommandLineTools/SDKs/MacOSX12.3.sdk/usr/include/c++/v1/ios
FN:344,_ZNSt3__18ios_baseC2Ev
FNDA:0,_ZNSt3__18ios_baseC2Ev
FN:348,_ZNKSt3__18ios_base5rdbufEv
FNDA:0,_ZNKSt3__18ios_base5rdbufEv
FN:459,_ZNKSt3__18ios_base5flagsEv
FNDA:0,_ZNKSt3__18ios_base5flagsEv
FN:521,_ZNKSt3__18ios_base5widthEv
FNDA:0,_ZNKSt3__18ios_base5widthEv
FN:528,_ZNSt3__18ios_base5widthEl
FNDA:0,_ZNSt3__18ios_base5widthEl
FN:546,_ZNSt3__18ios_base8setstateEj
FNDA:0,_ZNSt3__18ios_base8setstateEj
FN:623,_ZNSt3__19basic_iosIcNS_11char_traitsIcEEE8setstateEj
FNDA:0,_ZNSt3__19basic_iosIcNS_11char_traitsIcEEE8setstateEj
FN:665,_ZNSt3__19basic_iosIcNS_11char_traitsIcEEEC2Ev
FNDA:0,_ZNSt3__19basic_iosIcNS_11char_traitsIcEEEC2Ev
FN:698,_ZNSt3__19basic_iosIcNS_11char_traitsIcEEE4initEPNS_15basic_streambufIcS2_EE
FNDA:0,_ZNSt3__19basic_iosIcNS_11char_traitsIcEEE4initEPNS_15basic_streambufIcS2_EE
FN:726,_ZNKSt3__19basic_iosIcNS_11char_traitsIcEEE5rdbufEv
FNDA:0,_ZNKSt3__19basic_iosIcNS_11char_traitsIcEEE5rdbufEv
FN:764,_ZNKSt3__19basic_iosIcNS_11char_traitsIcEEE5widenEc
FNDA:0,_ZNKSt3__19basic_iosIcNS_11char_traitsIcEEE5widenEc
FN:772,_ZNKSt3__19basic_iosIcNS_11char_traitsIcEEE4fillEv
FNDA:0,_ZNKSt3__19basic_iosIcNS_11char_traitsIcEEE4fillEv
DA:344,0
DA:345,0
DA:348,0
DA:459,0
DA:461,0
DA:521,0
DA:523,0
DA:528,0
DA:530,0
DA:531,0
DA:532,0
DA:546,0
DA:548,0
DA:549,0
DA:623,0
DA:665,0
DA:666,0
DA:698,0
DA:700,0
DA:701,0
DA:702,0
DA:703,0
DA:726,0
DA:728,0
DA:764,0
DA:766,0
DA:767,0
DA:772,0
DA:774,0
DA:775,0
DA:776,0
FNF:12
FNH:0
LF:31
LH:0
end_of_record
SF:/Library/Developer/CommandLineTools/SDKs/MacOSX12.3.sdk/usr/include/c++/v1/sstream
FN:227,_ZNSt3__115basic_stringbufIcNS_11char_traitsIcEENS_9allocatorIcEEEC1Ej
FNDA:0,_ZNSt3__115basic_stringbufIcNS_11char_traitsIcEENS_9allocatorIcEEEC1Ej
FN:227,_ZNSt3__115basic_stringbufIcNS_11char_traitsIcEENS_9allocatorIcEEEC2Ej
FNDA:0,_ZNSt3__115basic_stringbufIcNS_11char_traitsIcEENS_9allocatorIcEEEC2Ej
FN:802,_ZNSt3__118basic_stringstreamIcNS_11char_traitsIcEENS_9allocatorIcEEEC1Ev
FNDA:0,_ZNSt3__118basic_stringstreamIcNS_11char_traitsIcEENS_9allocatorIcEEEC1Ev
FN:842,_ZNKSt3__118basic_stringstreamIcNS_11char_traitsIcEENS_9allocatorIcEEE3strEv
FNDA:0,_ZNKSt3__118basic_stringstreamIcNS_11char_traitsIcEENS_9allocatorIcEEE3strEv
FN:861,_ZNSt3__115basic_stringbufIcNS_11char_traitsIcEENS_9allocatorIcEEED1Ev
FNDA:0,_ZNSt3__115basic_stringbufIcNS_11char_traitsIcEENS_9allocatorIcEEED1Ev
FN:861,_ZNSt3__115basic_stringbufIcNS_11char_traitsIcEENS_9allocatorIcEEED2Ev
FNDA:0,_ZNSt3__115basic_stringbufIcNS_11char_traitsIcEENS_9allocatorIcEEED2Ev
FN:862,_ZNSt3__118basic_stringstreamIcNS_11char_traitsIcEENS_9allocatorIcEEED1Ev
FNDA:0,_ZNSt3__118basic_stringstreamIcNS_11char_traitsIcEENS_9allocatorIcEEED1Ev
FN:862,_ZNSt3__118basic_stringstreamIcNS_11char_traitsIcEENS_9allocatorIcEEED2Ev
FNDA:0,_ZNSt3__118basic_stringstreamIcNS_11char_traitsIcEENS_9allocatorIcEEED2Ev
DA:227,0
DA:228,0
DA:802,0
DA:803,0
DA:842,0
DA:843,0
FNF:8
FNH:0
LF:6
LH:0
end_of_record
SF:/Users/dogukanarat/Workspace/DevelopmentTestSystem/Binaries/Debug/Intermediate/_deps/googletest-src/googletest/include/gtest/gtest-assertion-result.h
FN:133,_ZN7testing15AssertionResultD1Ev
FNDA:0,_ZN7testing15AssertionResultD1Ev
FN:133,_ZN7testing15AssertionResultD2Ev
FNDA:0,_ZN7testing15AssertionResultD2Ev
FN:174,_ZNK7testing15AssertionResultcvbEv
FNDA:0,_ZNK7testing15AssertionResultcvbEv
FN:183,_ZNK7testing15AssertionResult7messageEv
FNDA:0,_ZNK7testing15AssertionResult7messageEv
FN:187,_ZNK7testing15AssertionResult15failure_messageEv
FNDA:0,_ZNK7testing15AssertionResult15failure_messageEv
DA:174,0
DA:183,0
DA:184,0
DA:187,0
FNF:5
FNH:0
LF:4
LH:0
end_of_record
SF:/Library/Developer/CommandLineTools/SDKs/MacOSX12.3.sdk/usr/include/c++/v1/__memory/addressof.h
FN:30,_ZNSt3__1L9addressofIKcEEPT_RS2_
FNDA:0,_ZNSt3__1L9addressofIKcEEPT_RS2_
DA:30,0
DA:32,0
FNF:1
FNH:0
LF:2
LH:0
end_of_record
SF:/Users/dogukanarat/Workspace/DevelopmentTestSystem/Binaries/Debug/Intermediate/_deps/googletest-src/googletest/include/gtest/gtest-printers.h
FN:213,_ZN7testing8internal52internal_stream_operator_without_lexical_name_lookup13StreamPrinter10PrintValueIivRNSt3__113basic_ostreamIcNS4_11char_traitsIcEEEEEEvRKT_PS8_
FNDA:0,_ZN7testing8internal52internal_stream_operator_without_lexical_name_lookup13StreamPrinter10PrintValueIivRNSt3__113basic_ostreamIcNS4_11char_traitsIcEEEEEEvRKT_PS8_
FN:213,_ZN7testing8internal52internal_stream_operator_without_lexical_name_lookup13StreamPrinter10PrintValueImvRNSt3__113basic_ostreamIcNS4_11char_traitsIcEEEEEEvRKT_PS8_
FNDA:0,_ZN7testing8internal52internal_stream_operator_without_lexical_name_lookup13StreamPrinter10PrintValueImvRNSt3__113basic_ostreamIcNS4_11char_traitsIcEEEEEEvRKT_PS8_
FN:213,_ZN7testing8internal52internal_stream_operator_without_lexical_name_lookup13StreamPrinter10PrintValueIjvRNSt3__113basic_ostreamIcNS4_11char_traitsIcEEEEEEvRKT_PS8_
FNDA:0,_ZN7testing8internal52internal_stream_operator_without_lexical_name_lookup13StreamPrinter10PrintValueIjvRNSt3__113basic_ostreamIcNS4_11char_traitsIcEEEEEEvRKT_PS8_
FN:213,_ZN7testing8internal52internal_stream_operator_without_lexical_name_lookup13StreamPrinter10PrintValueI14DtsServerStatevRNSt3__113basic_ostreamIcNS5_11char_traitsIcEEEEEEvRKT_PS9_
FNDA:0,_ZN7testing8internal52internal_stream_operator_without_lexical_name_lookup13StreamPrinter10PrintValueI14DtsServerStatevRNSt3__113basic_ostreamIcNS5_11char_traitsIcEEEEEEvRKT_PS9_
FN:305,_ZN7testing8internal17PrintWithFallbackIiEEvRKT_PNSt3__113basic_ostreamIcNS5_11char_traitsIcEEEE
FNDA:0,_ZN7testing8internal17PrintWithFallbackIiEEvRKT_PNSt3__113basic_ostreamIcNS5_11char_traitsIcEEEE
FN:305,_ZN7testing8internal17PrintWithFallbackImEEvRKT_PNSt3__113basic_ostreamIcNS5_11char_traitsIcEEEE
FNDA:0,_ZN7testing8internal17PrintWithFallbackImEEvRKT_PNSt3__113basic_ostreamIcNS5_11char_traitsIcEEEE
FN:305,_ZN7testing8internal17PrintWithFallbackIjEEvRKT_PNSt3__113basic_ostreamIcNS5_11char_traitsIcEEEE
FNDA:0,_ZN7testing8internal17PrintWithFallbackIjEEvRKT_PNSt3__113basic_ostreamIcNS5_11char_traitsIcEEEE
FN:305,_ZN7testing8internal17PrintWithFallbackI14DtsServerStateEEvRKT_PNSt3__113basic_ostreamIcNS6_11char_traitsIcEEEE
FNDA:0,_ZN7testing8internal17PrintWithFallbackI14DtsServerStateEEvRKT_PNSt3__113basic_ostreamIcNS6_11char_traitsIcEEEE
FN:332,_ZN7testing8internal19FormatForComparisonIihE6FormatERKi
FNDA:0,_ZN7testing8internal19FormatForComparisonIihE6FormatERKi
FN:332,_ZN7testing8internal19FormatForComparisonIhiE6FormatERKh
FNDA:0,_ZN7testing8internal19FormatForComparisonIhiE6FormatERKh
FN:332,_ZN7testing8internal19FormatForComparisonImjE6FormatERKm
FNDA:0,_ZN7testing8internal19FormatForComparisonImjE6FormatERKm
FN:332,_ZN7testing8internal19FormatForComparisonIjmE6FormatERKj
FNDA:0,_ZN7testing8internal19FormatForComparisonIjmE6FormatERKj
FN:332,_ZN7testing8internal19FormatForComparisonI14DtsServerStateS2_E6FormatERKS2_
FNDA:0,_ZN7testing8internal19FormatForComparisonI14DtsServerStateS2_E6FormatERKS2_
FN:412,_ZN7testing8internal33FormatForComparisonFailureMessageIihEENSt3__112basic_stringIcNS2_11char_traitsIcEENS2_9allocatorIcEEEERKT_RKT0_
FNDA:0,_ZN7testing8internal33FormatForComparisonFailureMessageIihEENSt3__112basic_stringIcNS2_11char_traitsIcEENS2_9allocatorIcEEEERKT_RKT0_
FN:412,_ZN7testing8internal33FormatForComparisonFailureMessageIhiEENSt3__112basic_stringIcNS2_11char_traitsIcEENS2_9allocatorIcEEEERKT_RKT0_
FNDA:0,_ZN7testing8internal33FormatForComparisonFailureMessageIhiEENSt3__112basic_stringIcNS2_11char_traitsIcEENS2_9allocatorIcEEEERKT_RKT0_
FN:412,_ZN7testing8internal33FormatForComparisonFailureMessageImjEENSt3__112basic_stringIcNS2_11char_traitsIcEENS2_9allocatorIcEEEERKT_RKT0_
FNDA:0,_ZN7testing8internal33FormatForComparisonFailureMessageImjEENSt3__112basic_stringIcNS2_11char_traitsIcEENS2_9allocatorIcEEEERKT_RKT0_
FN:412,_ZN7testing8internal33FormatForComparisonFailureMessageIjmEENSt3__112basic_stringIcNS2_11char_traitsIcEENS2_9allocatorIcEEEERKT_RKT0_
FNDA:0,_ZN7testing8internal33FormatForComparisonFailureMessageIjmEENSt3__112basic_stringIcNS2_11char_traitsIcEENS2_9allocatorIcEEEERKT_RKT0_
FN:412,_ZN7testing8internal33FormatForComparisonFailureMessageI14DtsServerStateS2_EENSt3__112basic_stringIcNS3_11char_traitsIcEENS3_9allocatorIcEEEERKT_RKT0_
FNDA:0,_ZN7testing8internal33FormatForComparisonFailureMessageI14DtsServerStateS2_EENSt3__112basic_stringIcNS3_11char_traitsIcEENS3_9allocatorIcEEEERKT_RKT0_
FN:439,_ZN7testing8internal7PrintToIiEEvRKT_PNSt3__113basic_ostreamIcNS5_11char_traitsIcEEEE
FNDA:0,_ZN7testing8internal7PrintToIiEEvRKT_PNSt3__113basic_ostreamIcNS5_11char_traitsIcEEEE
FN:439,_ZN7testing8internal7PrintToImEEvRKT_PNSt3__113basic_ostreamIcNS5_11char_traitsIcEEEE
FNDA:0,_ZN7testing8internal7PrintToImEEvRKT_PNSt3__113basic_ostreamIcNS5_11char_traitsIcEEEE
FN:439,_ZN7testing8internal7PrintToIjEEvRKT_PNSt3__113basic_ostreamIcNS5_11char_traitsIcEEEE
FNDA:0,_ZN7testing8internal7PrintToIjEEvRKT_PNSt3__113basic_ostreamIcNS5_11char_traitsIcEEEE
FN:439,_ZN7testing8internal7PrintToI14DtsServerStateEEvRKT_PNSt3__113basic_ostreamIcNS6_11char_traitsIcEEEE
FNDA:0,_ZN7testing8internal7PrintToI14DtsServerStateEEvRKT_PNSt3__113basic_ostreamIcNS6_11char_traitsIcEEEE
FN:693,_ZN7testing8internal16UniversalPrinterIiE5PrintERKiPNSt3__113basic_ostreamIcNS5_11char_traitsIcEEEE
FNDA:0,_ZN7testing8internal16UniversalPrinterIiE5PrintERKiPNSt3__113basic_ostreamIcNS5_11char_traitsIcEEEE
FN:693,_ZN7testing8internal16UniversalPrinterIhE5PrintERKhPNSt3__113basic_ostreamIcNS5_11char_traitsIcEEEE
FNDA:0,_ZN7testing8internal16UniversalPrinterIhE5PrintERKhPNSt3__113basic_ostreamIcNS5_11char_traitsIcEEEE
FN:693,_ZN7testing8internal16UniversalPrinterImE5PrintERKmPNSt3__113basic_ostreamIcNS5_11char_traitsIcEEEE
FNDA:0,_ZN7testing8internal16UniversalPrinterImE5PrintERKmPNSt3__113basic_ostreamIcNS5_11char_traitsIcEEEE
FN:693,_ZN7testing8internal16UniversalPrinterIjE5PrintERKjPNSt3__113basic_ostreamIcNS5_11char_traitsIcEEEE
FNDA:0,_ZN7testing8internal16UniversalPrinterIjE5PrintERKjPNSt3__113basic_ostreamIcNS5_11char_traitsIcEEEE
FN:693,_ZN7testing8internal16UniversalPrinterI14DtsServerStateE5PrintERKS2_PNSt3__113basic_ostreamIcNS6_11char_traitsIcEEEE
FNDA:0,_ZN7testing8internal16UniversalPrinterI14DtsServerStateE5PrintERKS2_PNSt3__113basic_ostreamIcNS6_11char_traitsIcEEEE
FN:883,_ZN7testing8internal21UniversalTersePrinterIiE5PrintERKiPNSt3__113basic_ostreamIcNS5_11char_traitsIcEEEE
FNDA:0,_ZN7testing8internal21UniversalTersePrinterIiE5PrintERKiPNSt3__113basic_ostreamIcNS5_11char_traitsIcEEEE
FN:883,_ZN7testing8internal21UniversalTersePrinterIhE5PrintERKhPNSt3__113basic_ostreamIcNS5_11char_traitsIcEEEE
FNDA:0,_ZN7testing8internal21UniversalTersePrinterIhE5PrintERKhPNSt3__113basic_ostreamIcNS5_11char_traitsIcEEEE
FN:883,_ZN7testing8internal21UniversalTersePrinterImE5PrintERKmPNSt3__113basic_ostreamIcNS5_11char_traitsIcEEEE
FNDA:0,_ZN7testing8internal21UniversalTersePrinterImE5PrintERKmPNSt3__113basic_ostreamIcNS5_11char_traitsIcEEEE
FN:883,_ZN7testing8internal21UniversalTersePrinterIjE5PrintERKjPNSt3__113basic_ostreamIcNS5_11char_traitsIcEEEE
FNDA:0,_ZN7testing8internal21UniversalTersePrinterIjE5PrintERKjPNSt3__113basic_ostreamIcNS5_11char_traitsIcEEEE
FN:883,_ZN7testing8internal21UniversalTersePrinterI14DtsServerStateE5PrintERKS2_PNSt3__113basic_ostreamIcNS6_11char_traitsIcEEEE
FNDA:0,_ZN7testing8internal21UniversalTersePrinterI14DtsServerStateE5PrintERKS2_PNSt3__113basic_ostreamIcNS6_11char_traitsIcEEEE
FN:995,_ZN7testing8internal14UniversalPrintIiEEvRKT_PNSt3__113basic_ostreamIcNS5_11char_traitsIcEEEE
FNDA:0,_ZN7testing8internal14UniversalPrintIiEEvRKT_PNSt3__113basic_ostreamIcNS5_11char_traitsIcEEEE
FN:995,_ZN7testing8internal14UniversalPrintIhEEvRKT_PNSt3__113basic_ostreamIcNS5_11char_traitsIcEEEE
FNDA:0,_ZN7testing8internal14UniversalPrintIhEEvRKT_PNSt3__113basic_ostreamIcNS5_11char_traitsIcEEEE
FN:995,_ZN7testing8internal14UniversalPrintImEEvRKT_PNSt3__113basic_ostreamIcNS5_11char_traitsIcEEEE
FNDA:0,_ZN7testing8internal14UniversalPrintImEEvRKT_PNSt3__113basic_ostreamIcNS5_11char_traitsIcEEEE
FN:995,_ZN7testing8internal14UniversalPrintIjEEvRKT_PNSt3__113basic_ostreamIcNS5_11char_traitsIcEEEE
FNDA:0,_ZN7testing8internal14UniversalPrintIjEEvRKT_PNSt3__113basic_ostreamIcNS5_11char_traitsIcEEEE
FN:995,_ZN7testing8internal14UniversalPrintI14DtsServerStateEEvRKT_PNSt3__113basic_ostreamIcNS6_11char_traitsIcEEEE
FNDA:0,_ZN7testing8internal14UniversalPrintI14DtsServerStateEEvRKT_PNSt3__113basic_ostreamIcNS6_11char_traitsIcEEEE
FN:1035,_ZN7testing13PrintToStringIiEENSt3__112basic_stringIcNS1_11char_traitsIcEENS1_9allocatorIcEEEERKT_
FNDA:0,_ZN7testing13PrintToStringIiEENSt3__112basic_stringIcNS1_11char_traitsIcEENS1_9allocatorIcEEEERKT_
FN:1035,_ZN7testing13PrintToStringIhEENSt3__112basic_stringIcNS1_11char_traitsIcEENS1_9allocatorIcEEEERKT_
FNDA:0,_ZN7testing13PrintToStringIhEENSt3__112basic_stringIcNS1_11char_traitsIcEENS1_9allocatorIcEEEERKT_
FN:1035,_ZN7testing13PrintToStringImEENSt3__112basic_stringIcNS1_11char_traitsIcEENS1_9allocatorIcEEEERKT_
FNDA:0,_ZN7testing13PrintToStringImEENSt3__112basic_stringIcNS1_11char_traitsIcEENS1_9allocatorIcEEEERKT_
FN:1035,_ZN7testing13PrintToStringIjEENSt3__112basic_stringIcNS1_11char_traitsIcEENS1_9allocatorIcEEEERKT_
FNDA:0,_ZN7testing13PrintToStringIjEENSt3__112basic_stringIcNS1_11char_traitsIcEENS1_9allocatorIcEEEERKT_
FN:1035,_ZN7testing13PrintToStringI14DtsServerStateEENSt3__112basic_stringIcNS2_11char_traitsIcEENS2_9allocatorIcEEEERKT_
FNDA:0,_ZN7testing13PrintToStringI14DtsServerStateEENSt3__112basic_stringIcNS2_11char_traitsIcEENS2_9allocatorIcEEEERKT_
DA:213,0
DA:216,0
DA:217,0
DA:305,0
DA:311,0
DA:312,0
DA:332,0
DA:333,0
DA:412,0
DA:414,0
DA:439,0
DA:440,0
DA:441,0
DA:693,0
DA:702,0
DA:703,0
DA:883,0
DA:884,0
DA:885,0
DA:995,0
DA:999,0
DA:1000,0
DA:1035,0
DA:1036,0
DA:1037,0
DA:1038,0
DA:1039,0
FNF:42
FNH:0
LF:27
LH:0
end_of_record
SF:/Users/dogukanarat/Workspace/DevelopmentTestSystem/Binaries/Debug/Intermediate/_deps/googletest-src/googletest/include/gtest/gtest-message.h
FN:92,_ZN7testing7MessageD1Ev
FNDA:0,_ZN7testing7MessageD1Ev
FN:92,_ZN7testing7MessageD2Ev
FNDA:0,_ZN7testing7MessageD2Ev
FNF:2
FNH:0
LF:0
LH:0
end_of_record
SF:/Library/Developer/CommandLineTools/SDKs/MacOSX12.3.sdk/usr/include/c++/v1/__iterator/ostreambuf_iterator.h
FN:53,_ZNSt3__119ostreambuf_iteratorIcNS_11char_traitsIcEEEC1ERNS_13basic_ostreamIcS2_EE
FNDA:0,_ZNSt3__119ostreambuf_iteratorIcNS_11char_traitsIcEEEC1ERNS_13basic_ostreamIcS2_EE
FN:53,_ZNSt3__119ostreambuf_iteratorIcNS_11char_traitsIcEEEC2ERNS_13basic_ostreamIcS2_EE
FNDA:0,_ZNSt3__119ostreambuf_iteratorIcNS_11char_traitsIcEEEC2ERNS_13basic_ostreamIcS2_EE
FN:66,_ZNKSt3__119ostreambuf_iteratorIcNS_11char_traitsIcEEE6failedEv
FNDA:0,_ZNKSt3__119ostreambuf_iteratorIcNS_11char_traitsIcEEE6failedEv
DA:53,0
DA:54,0
DA:66,0
FNF:3
FNH:0
LF:3
LH:0
end_of_record
SF:/Library/Developer/CommandLineTools/SDKs/MacOSX12.3.sdk/usr/include/c++/v1/__utility/forward.h
FN:27,_ZNSt3__1L7forwardINS_18__default_init_tagEEEOT_RNS_16remove_referenceIS2_E4typeE
FNDA:360,_ZNSt3__1L7forwardINS_18__default_init_tagEEEOT_RNS_16remove_referenceIS2_E4typeE
DA:27,360
DA:28,360
FNF:1
FNH:1
LF:2
LH:2
end_of_record
SF:/Library/Developer/CommandLineTools/SDKs/MacOSX12.3.sdk/usr/include/c++/v1/ostream
FN:234,_ZNSt3__113basic_ostreamIcNS_11char_traitsIcEEEC2Ev
FNDA:0,_ZNSt3__113basic_ostreamIcNS_11char_traitsIcEEEC2Ev
FN:251,_ZNKSt3__113basic_ostreamIcNS_11char_traitsIcEEE6sentrycvbEv
FNDA:0,_ZNKSt3__113basic_ostreamIcNS_11char_traitsIcEEE6sentrycvbEv
FN:707,_ZNSt3__124__put_character_sequenceIcNS_11char_traitsIcEEEERNS_13basic_ostreamIT_T0_EES7_PKS4_m
FNDA:0,_ZNSt3__124__put_character_sequenceIcNS_11char_traitsIcEEEERNS_13basic_ostreamIT_T0_EES7_PKS4_m
FN:855,_ZNSt3__1lsINS_11char_traitsIcEEEERNS_13basic_ostreamIcT_EES6_PKc
FNDA:0,_ZNSt3__1lsINS_11char_traitsIcEEEERNS_13basic_ostreamIcT_EES6_PKc
DA:234,0
DA:251,0
DA:707,0
DA:714,0
DA:715,0
DA:718,0
DA:719,0
DA:720,0
DA:721,0
DA:722,0
DA:723,0
DA:724,0
DA:725,0
DA:726,0
DA:727,0
DA:729,0
DA:732,0
DA:733,0
DA:735,0
DA:736,0
DA:855,0
DA:857,0
FNF:4
FNH:0
LF:22
LH:0
end_of_record
SF:/Users/dogukanarat/Workspace/DevelopmentTestSystem/Tests/UnitTest/TestDtsServer.h
FN:17,_ZN13TestDtsServerC2Ev
FNDA:6,_ZN13TestDtsServerC2Ev
FN:20,_ZN13TestDtsServerD1Ev
FNDA:0,_ZN13TestDtsServerD1Ev
FN:20,_ZN13TestDtsServerD0Ev
FNDA:0,_ZN13TestDtsServerD0Ev
FN:20,_ZN13TestDtsServerD2Ev
FNDA:6,_ZN13TestDtsServerD2Ev
FN:24,_ZN13TestDtsServer5SetUpEv
FNDA:6,_ZN13TestDtsServer5SetUpEv
FN:28,_ZN13TestDtsServer8TearDownEv
FNDA:6,_ZN13TestDtsServer8TearDownEv
DA:17,18
DA:18,12
DA:19,6
DA:20,6
DA:21,0
DA:22,6
DA:24,6
DA:26,6
DA:28,6
DA:30,6
FNF:6
FNH:4
LF:10
LH:9
end_of_record
SF:/Users/dogukanarat/Workspace/DevelopmentTestSystem/Binaries/Debug/Intermediate/_deps/googletest-src/googletest/include/gtest/gtest.h
FN:244,_ZN7testing4Test14SetUpTestSuiteEv
FNDA:0,_ZN7testing4Test14SetUpTestSuiteEv
FN:252,_ZN7testing4Test17TearDownTestSuiteEv
FNDA:0,_ZN7testing4Test17TearDownTestSuiteEv
FN:257,_ZN7testing4Test16TearDownTestCaseEv
FNDA:0,_ZN7testing4Test16TearDownTestCaseEv
FN:258,_ZN7testing4Test13SetUpTestCaseEv
FNDA:0,_ZN7testing4Test13SetUpTestCaseEv
FN:339,_ZN7testing4Test5SetupEv
FNDA:0,_ZN7testing4Test5SetupEv
FN:1338,_ZN7testing8internal18CmpHelperEQFailureIihEENS_15AssertionResultEPKcS4_RKT_RKT0_
FNDA:0,_ZN7testing8internal18CmpHelperEQFailureIihEENS_15AssertionResultEPKcS4_RKT_RKT0_
FN:1338,_ZN7testing8internal18CmpHelperEQFailureImjEENS_15AssertionResultEPKcS4_RKT_RKT0_
FNDA:0,_ZN7testing8internal18CmpHelperEQFailureImjEENS_15AssertionResultEPKcS4_RKT_RKT0_
FN:1338,_ZN7testing8internal18CmpHelperEQFailureI14DtsServerStateS2_EENS_15AssertionResultEPKcS5_RKT_RKT0_
FNDA:0,_ZN7testing8internal18CmpHelperEQFailureI14DtsServerStateS2_EENS_15AssertionResultEPKcS5_RKT_RKT0_
FN:1355,_ZN7testing8internal11CmpHelperEQIihEENS_15AssertionResultEPKcS4_RKT_RKT0_
FNDA:0,_ZN7testing8internal11CmpHelperEQIihEENS_15AssertionResultEPKcS4_RKT_RKT0_
FN:1355,_ZN7testing8internal11CmpHelperEQImjEENS_15AssertionResultEPKcS4_RKT_RKT0_
FNDA:0,_ZN7testing8internal11CmpHelperEQImjEENS_15AssertionResultEPKcS4_RKT_RKT0_
FN:1355,_ZN7testing8internal11CmpHelperEQI14DtsServerStateS2_EENS_15AssertionResultEPKcS5_RKT_RKT0_
FNDA:6,_ZN7testing8internal11CmpHelperEQI14DtsServerStateS2_EENS_15AssertionResultEPKcS5_RKT_RKT0_
FN:1374,_ZN7testing8internal8EqHelper7CompareIihLPv0EEENS_15AssertionResultEPKcS6_RKT_RKT0_
FNDA:0,_ZN7testing8internal8EqHelper7CompareIihLPv0EEENS_15AssertionResultEPKcS6_RKT_RKT0_
FN:1374,_ZN7testing8internal8EqHelper7CompareImjLPv0EEENS_15AssertionResultEPKcS6_RKT_RKT0_
FNDA:0,_ZN7testing8internal8EqHelper7CompareImjLPv0EEENS_15AssertionResultEPKcS6_RKT_RKT0_
FN:1374,_ZN7testing8internal8EqHelper7CompareI14DtsServerStateS3_LPv0EEENS_15AssertionResultEPKcS7_RKT_RKT0_
FNDA:6,_ZN7testing8internal8EqHelper7CompareI14DtsServerStateS3_LPv0EEENS_15AssertionResultEPKcS7_RKT_RKT0_
DA:244,0
DA:252,0
DA:257,0
DA:258,0
DA:339,0
DA:1338,0
DA:1341,0
DA:1342,0
DA:1343,0
DA:1344,0
DA:1355,6
DA:1358,6
DA:1359,6
DA:1362,0
DA:1363,6
DA:1374,6
DA:1377,6
FNF:14
FNH:2
LF:17
LH:6
end_of_record
SF:/Library/Developer/CommandLineTools/SDKs/MacOSX12.3.sdk/usr/include/c++/v1/streambuf
FN:228,_ZNSt3__115basic_streambufIcNS_11char_traitsIcEEE5sputnEPKcl
FNDA:0,_ZNSt3__115basic_streambufIcNS_11char_traitsIcEEE5sputnEPKcl
DA:228,0
DA:229,0
FNF:1
FNH:0
LF:2
LH:0
end_of_record
SF:/Users/dogukanarat/Workspace/DevelopmentTestSystem/Binaries/Debug/Intermediate/_deps/googletest-src/googletest/include/gtest/internal/gtest-internal.h
FN:431,_ZN7testing8internal9GetTypeIdI13TestDtsServerEEPKvv
FNDA:180,_ZN7testing8internal9GetTypeIdI13TestDtsServerEEPKvv
FN:450,_ZN7testing8internal15TestFactoryBaseD1Ev
FNDA:0,_ZN7testing8internal15TestFactoryBaseD1Ev
FN:450,_ZN7testing8internal15TestFactoryBaseD0Ev
FNDA:0,_ZN7testing8internal15TestFactoryBaseD0Ev
FN:450,_ZN7testing8internal15TestFactoryBaseD2Ev
FNDA:0,_ZN7testing8internal15TestFactoryBaseD2Ev
FN:457,_ZN7testing8internal15TestFactoryBaseC2Ev
FNDA:0,_ZN7testing8internal15TestFactoryBaseC2Ev
FN:467,_ZN7testing8internal15TestFactoryImplI42TestDtsServer_TestDtsServerInitialize_TestEC1Ev
FNDA:90,_ZN7testing8internal15TestFactoryImplI42TestDtsServer_TestDtsServerInitialize_TestEC1Ev
FN:467,_ZN7testing8internal15TestFactoryImplI49TestDtsServer_TestDtsServerMonitoringFeature_TestEC1Ev
FNDA:90,_ZN7testing8internal15TestFactoryImplI49TestDtsServer_TestDtsServerMonitoringFeature_TestEC1Ev
FN:467,_ZN7testing8internal15TestFactoryImplI42TestDtsServer_TestDtsServerInitialize_TestEC2Ev
FNDA:90,_ZN7testing8internal15TestFactoryImplI42TestDtsServer_TestDtsServerInitialize_TestEC2Ev
FN:467,_ZN7testing8internal15TestFactoryImplI42TestDtsServer_TestDtsServerInitialize_TestED1Ev
FNDA:0,_ZN7testing8internal15TestFactoryImplI42TestDtsServer_TestDtsServerInitialize_TestED1Ev
FN:467,_ZN7testing8internal15TestFactoryImplI42TestDtsServer_TestDtsServerInitialize_TestED0Ev
FNDA:0,_ZN7testing8internal15TestFactoryImplI42TestDtsServer_TestDtsServerInitialize_TestED0Ev
FN:467,_ZN7testing8internal15TestFactoryImplI42TestDtsServer_TestDtsServerInitialize_TestED2Ev
FNDA:0,_ZN7testing8internal15TestFactoryImplI42TestDtsServer_TestDtsServerInitialize_TestED2Ev
FN:467,_ZN7testing8internal15TestFactoryImplI49TestDtsServer_TestDtsServerMonitoringFeature_TestEC2Ev
FNDA:90,_ZN7testing8internal15TestFactoryImplI49TestDtsServer_TestDtsServerMonitoringFeature_TestEC2Ev
FN:467,_ZN7testing8internal15TestFactoryImplI49TestDtsServer_TestDtsServerMonitoringFeature_TestED1Ev
FNDA:0,_ZN7testing8internal15TestFactoryImplI49TestDtsServer_TestDtsServerMonitoringFeature_TestED1Ev
FN:467,_ZN7testing8internal15TestFactoryImplI49TestDtsServer_TestDtsServerMonitoringFeature_TestED0Ev
FNDA:0,_ZN7testing8internal15TestFactoryImplI49TestDtsServer_TestDtsServerMonitoringFeature_TestED0Ev
FN:467,_ZN7testing8internal15TestFactoryImplI49TestDtsServer_TestDtsServerMonitoringFeature_TestED2Ev
FNDA:0,_ZN7testing8internal15TestFactoryImplI49TestDtsServer_TestDtsServerMonitoringFeature_TestED2Ev
FN:469,_ZN7testing8internal15TestFactoryImplI42TestDtsServer_TestDtsServerInitialize_TestE10CreateTestEv
FNDA:3,_ZN7testing8internal15TestFactoryImplI42TestDtsServer_TestDtsServerInitialize_TestE10CreateTestEv
FN:469,_ZN7testing8internal15TestFactoryImplI49TestDtsServer_TestDtsServerMonitoringFeature_TestE10CreateTestEv
FNDA:3,_ZN7testing8internal15TestFactoryImplI49TestDtsServer_TestDtsServerMonitoringFeature_TestE10CreateTestEv
FN:489,_ZN7testing8internal12CodeLocationD1Ev
FNDA:0,_ZN7testing8internal12CodeLocationD1Ev
FN:489,_ZN7testing8internal12CodeLocationD2Ev
FNDA:0,_ZN7testing8internal12CodeLocationD2Ev
FN:490,_ZN7testing8internal12CodeLocationC1ERKNSt3__112basic_stringIcNS2_11char_traitsIcEENS2_9allocatorIcEEEEi
FNDA:0,_ZN7testing8internal12CodeLocationC1ERKNSt3__112basic_stringIcNS2_11char_traitsIcEENS2_9allocatorIcEEEEi
FN:490,_ZN7testing8internal12CodeLocationC2ERKNSt3__112basic_stringIcNS2_11char_traitsIcEENS2_9allocatorIcEEEEi
FNDA:0,_ZN7testing8internal12CodeLocationC2ERKNSt3__112basic_stringIcNS2_11char_traitsIcEENS2_9allocatorIcEEEEi
FN:503,_ZN7testing8internal19GetNotDefaultOrNullEPFvvES2_
FNDA:0,_ZN7testing8internal19GetNotDefaultOrNullEPFvvES2_
FN:518,_ZN7testing8internal16SuiteApiResolverI13TestDtsServerE19GetSetUpCaseOrSuiteEPKci
FNDA:180,_ZN7testing8internal16SuiteApiResolverI13TestDtsServerE19GetSetUpCaseOrSuiteEPKci
FN:539,_ZN7testing8internal16SuiteApiResolverI13TestDtsServerE22GetTearDownCaseOrSuiteEPKci
FNDA:180,_ZN7testing8internal16SuiteApiResolverI13TestDtsServerE22GetTearDownCaseOrSuiteEPKci
DA:431,180
DA:436,180
DA:450,0
DA:457,0
DA:469,6
DA:490,0
DA:491,0
DA:503,0
DA:505,0
DA:518,180
DA:521,180
DA:522,180
DA:523,180
DA:524,180
DA:526,180
DA:527,0
DA:529,0
DA:531,180
DA:537,0
DA:539,180
DA:542,180
DA:543,180
DA:544,180
DA:545,180
DA:547,180
DA:548,0
DA:550,0
DA:552,180
DA:558,0
FNF:24
FNH:9
LF:29
LH:17
end_of_record
SF:/Library/Developer/CommandLineTools/SDKs/MacOSX12.3.sdk/usr/include/c++/v1/__memory/unique_ptr.h
FN:52,_ZNKSt3__114default_deleteINS_18basic_stringstreamIcNS_11char_traitsIcEENS_9allocatorIcEEEEEclEPS6_
FNDA:0,_ZNKSt3__114default_deleteINS_18basic_stringstreamIcNS_11char_traitsIcEENS_9allocatorIcEEEEEclEPS6_
FN:52,_ZNKSt3__114default_deleteINS_12basic_stringIcNS_11char_traitsIcEENS_9allocatorIcEEEEEclEPS6_
FNDA:0,_ZNKSt3__114default_deleteINS_12basic_stringIcNS_11char_traitsIcEENS_9allocatorIcEEEEEclEPS6_
FN:272,_ZNSt3__110unique_ptrINS_18basic_stringstreamIcNS_11char_traitsIcEENS_9allocatorIcEEEENS_14default_deleteIS6_EEED1Ev
FNDA:0,_ZNSt3__110unique_ptrINS_18basic_stringstreamIcNS_11char_traitsIcEENS_9allocatorIcEEEENS_14default_deleteIS6_EEED1Ev
FN:272,_ZNSt3__110unique_ptrINS_18basic_stringstreamIcNS_11char_traitsIcEENS_9allocatorIcEEEENS_14default_deleteIS6_EEED2Ev
FNDA:0,_ZNSt3__110unique_ptrINS_18basic_stringstreamIcNS_11char_traitsIcEENS_9allocatorIcEEEENS_14default_deleteIS6_EEED2Ev
FN:272,_ZNSt3__110unique_ptrINS_12basic_stringIcNS_11char_traitsIcEENS_9allocatorIcEEEENS_14default_deleteIS6_EEED1Ev
FNDA:0,_ZNSt3__110unique_ptrINS_12basic_stringIcNS_11char_traitsIcEENS_9allocatorIcEEEENS_14default_deleteIS6_EEED1Ev
FN:272,_ZNSt3__110unique_ptrINS_12basic_stringIcNS_11char_traitsIcEENS_9allocatorIcEEEENS_14default_deleteIS6_EEED2Ev
FNDA:0,_ZNSt3__110unique_ptrINS_12basic_stringIcNS_11char_traitsIcEENS_9allocatorIcEEEENS_14default_deleteIS6_EEED2Ev
FN:286,_ZNKSt3__110unique_ptrINS_12basic_stringIcNS_11char_traitsIcEENS_9allocatorIcEEEENS_14default_deleteIS6_EEEptEv
FNDA:0,_ZNKSt3__110unique_ptrINS_12basic_stringIcNS_11char_traitsIcEENS_9allocatorIcEEEENS_14default_deleteIS6_EEEptEv
FN:290,_ZNKSt3__110unique_ptrINS_12basic_stringIcNS_11char_traitsIcEENS_9allocatorIcEEEENS_14default_deleteIS6_EEE3getEv
FNDA:0,_ZNKSt3__110unique_ptrINS_12basic_stringIcNS_11char_traitsIcEENS_9allocatorIcEEEENS_14default_deleteIS6_EEE3getEv
FN:314,_ZNSt3__110unique_ptrINS_18basic_stringstreamIcNS_11char_traitsIcEENS_9allocatorIcEEEENS_14default_deleteIS6_EEE5resetEPS6_
FNDA:0,_ZNSt3__110unique_ptrINS_18basic_stringstreamIcNS_11char_traitsIcEENS_9allocatorIcEEEENS_14default_deleteIS6_EEE5resetEPS6_
FN:314,_ZNSt3__110unique_ptrINS_12basic_stringIcNS_11char_traitsIcEENS_9allocatorIcEEEENS_14default_deleteIS6_EEE5resetEPS6_
FNDA:0,_ZNSt3__110unique_ptrINS_12basic_stringIcNS_11char_traitsIcEENS_9allocatorIcEEEENS_14default_deleteIS6_EEE5resetEPS6_
DA:52,0
DA:57,0
DA:58,0
DA:272,0
DA:286,0
DA:287,0
DA:290,0
DA:291,0
DA:314,0
DA:315,0
DA:316,0
DA:317,0
DA:318,0
DA:319,0
FNF:10
FNH:0
LF:14
LH:0
end_of_record
SF:/Library/Developer/CommandLineTools/SDKs/MacOSX12.3.sdk/usr/include/c++/v1/__locale
FN:252,_ZNSt3__1L9use_facetINS_5ctypeIcEEEERKT_RKNS_6localeE
FNDA:0,_ZNSt3__1L9use_facetINS_5ctypeIcEEEERKT_RKNS_6localeE
FN:697,_ZNKSt3__15ctypeIcE5widenEc
FNDA:0,_ZNKSt3__15ctypeIcE5widenEc
DA:252,0
DA:254,0
DA:697,0
DA:699,0
FNF:2
FNH:0
LF:4
LH:0
end_of_record
SF:/Library/Developer/CommandLineTools/SDKs/MacOSX12.3.sdk/usr/include/c++/v1/__memory/pointer_traits.h
FN:152,_ZNSt3__114pointer_traitsIPKcE10pointer_toERS1_
FNDA:0,_ZNSt3__114pointer_traitsIPKcE10pointer_toERS1_
FN:173,_ZNSt3__1L12__to_addressIKcEEPT_S3_
FNDA:0,_ZNSt3__1L12__to_addressIKcEEPT_S3_
DA:152,0
DA:154,0
DA:173,0
DA:175,0
FNF:2
FNH:0
LF:4
LH:0
end_of_record
SF:/Library/Developer/CommandLineTools/SDKs/MacOSX12.3.sdk/usr/include/c++/v1/__string
FN:342,_ZNSt3__111char_traitsIcE6lengthEPKc
FNDA:0,_ZNSt3__111char_traitsIcE6lengthEPKc
FN:374,_ZNSt3__111char_traitsIcE11eq_int_typeEii
FNDA:0,_ZNSt3__111char_traitsIcE11eq_int_typeEii
FN:376,_ZNSt3__111char_traitsIcE3eofEv
FNDA:0,_ZNSt3__111char_traitsIcE3eofEv
DA:342,0
DA:374,0
DA:375,0
DA:376,0
DA:377,0
FNF:3
FNH:0
LF:5
LH:0
end_of_record
TN:
SF:/Users/dogukanarat/Workspace/DevelopmentTestSystem/Binaries/Debug/Intermediate/_deps/googletest-src/googletest/include/gtest/gtest-assertion-result.h
FN:133,_ZN7testing15AssertionResultD1Ev
FNDA:4407,_ZN7testing15AssertionResultD1Ev
FN:133,_ZN7testing15AssertionResultD2Ev
FNDA:4407,_ZN7testing15AssertionResultD2Ev
FN:174,_ZNK7testing15AssertionResultcvbEv
FNDA:4407,_ZNK7testing15AssertionResultcvbEv
FN:183,_ZNK7testing15AssertionResult7messageEv
FNDA:0,_ZNK7testing15AssertionResult7messageEv
FN:187,_ZNK7testing15AssertionResult15failure_messageEv
FNDA:0,_ZNK7testing15AssertionResult15failure_messageEv
DA:174,4407
DA:183,0
DA:184,0
DA:187,0
FNF:5
FNH:3
LF:4
LH:1
end_of_record
SF:/Library/Developer/CommandLineTools/SDKs/MacOSX12.3.sdk/usr/include/c++/v1/sstream
FN:227,_ZNSt3__115basic_stringbufIcNS_11char_traitsIcEENS_9allocatorIcEEEC1Ej
FNDA:0,_ZNSt3__115basic_stringbufIcNS_11char_traitsIcEENS_9allocatorIcEEEC1Ej
FN:227,_ZNSt3__115basic_stringbufIcNS_11char_traitsIcEENS_9allocatorIcEEEC2Ej
FNDA:0,_ZNSt3__115basic_stringbufIcNS_11char_traitsIcEENS_9allocatorIcEEEC2Ej
FN:802,_ZNSt3__118basic_stringstreamIcNS_11char_traitsIcEENS_9allocatorIcEEEC1Ev
FNDA:0,_ZNSt3__118basic_stringstreamIcNS_11char_traitsIcEENS_9allocatorIcEEEC1Ev
FN:842,_ZNKSt3__118basic_stringstreamIcNS_11char_traitsIcEENS_9allocatorIcEEE3strEv
FNDA:0,_ZNKSt3__118basic_stringstreamIcNS_11char_traitsIcEENS_9allocatorIcEEE3strEv
FN:861,_ZNSt3__115basic_stringbufIcNS_11char_traitsIcEENS_9allocatorIcEEED1Ev
FNDA:0,_ZNSt3__115basic_stringbufIcNS_11char_traitsIcEENS_9allocatorIcEEED1Ev
FN:861,_ZNSt3__115basic_stringbufIcNS_11char_traitsIcEENS_9allocatorIcEEED2Ev
FNDA:0,_ZNSt3__115basic_stringbufIcNS_11char_traitsIcEENS_9allocatorIcEEED2Ev
FN:862,_ZNSt3__118basic_stringstreamIcNS_11char_traitsIcEENS_9allocatorIcEEED1Ev
FNDA:0,_ZNSt3__118basic_stringstreamIcNS_11char_traitsIcEENS_9allocatorIcEEED1Ev
FN:862,_ZNSt3__118basic_stringstreamIcNS_11char_traitsIcEENS_9allocatorIcEEED2Ev
FNDA:0,_ZNSt3__118basic_stringstreamIcNS_11char_traitsIcEENS_9allocatorIcEEED2Ev
DA:227,0
DA:228,0
DA:802,0
DA:803,0
DA:842,0
DA:843,0
FNF:8
FNH:0
LF:6
LH:0
end_of_record
SF:/Library/Developer/CommandLineTools/SDKs/MacOSX12.3.sdk/usr/include/c++/v1/ios
FN:344,_ZNSt3__18ios_baseC2Ev
FNDA:0,_ZNSt3__18ios_baseC2Ev
FN:348,_ZNKSt3__18ios_base5rdbufEv
FNDA:41480,_ZNKSt3__18ios_base5rdbufEv
FN:459,_ZNKSt3__18ios_base5flagsEv
FNDA:41480,_ZNKSt3__18ios_base5flagsEv
FN:521,_ZNKSt3__18ios_base5widthEv
FNDA:41480,_ZNKSt3__18ios_base5widthEv
FN:528,_ZNSt3__18ios_base5widthEl
FNDA:41480,_ZNSt3__18ios_base5widthEl
FN:546,_ZNSt3__18ios_base8setstateEj
FNDA:0,_ZNSt3__18ios_base8setstateEj
FN:623,_ZNSt3__19basic_iosIcNS_11char_traitsIcEEE8setstateEj
FNDA:0,_ZNSt3__19basic_iosIcNS_11char_traitsIcEEE8setstateEj
FN:665,_ZNSt3__19basic_iosIcNS_11char_traitsIcEEEC2Ev
FNDA:0,_ZNSt3__19basic_iosIcNS_11char_traitsIcEEEC2Ev
FN:698,_ZNSt3__19basic_iosIcNS_11char_traitsIcEEE4initEPNS_15basic_streambufIcS2_EE
FNDA:0,_ZNSt3__19basic_iosIcNS_11char_traitsIcEEE4initEPNS_15basic_streambufIcS2_EE
FN:726,_ZNKSt3__19basic_iosIcNS_11char_traitsIcEEE5rdbufEv
FNDA:41480,_ZNKSt3__19basic_iosIcNS_11char_traitsIcEEE5rdbufEv
FN:764,_ZNKSt3__19basic_iosIcNS_11char_traitsIcEEE5widenEc
FNDA:4220,_ZNKSt3__19basic_iosIcNS_11char_traitsIcEEE5widenEc
FN:772,_ZNKSt3__19basic_iosIcNS_11char_traitsIcEEE4fillEv
FNDA:41480,_ZNKSt3__19basic_iosIcNS_11char_traitsIcEEE4fillEv
DA:344,0
DA:345,0
DA:348,41480
DA:459,41480
DA:461,41480
DA:521,41480
DA:523,41480
DA:528,41480
DA:530,41480
DA:531,41480
DA:532,41480
DA:546,0
DA:548,0
DA:549,0
DA:623,0
DA:665,0
DA:666,0
DA:698,0
DA:700,0
DA:701,0
DA:702,0
DA:703,0
DA:726,41480
DA:728,41480
DA:764,4220
DA:766,4220
DA:767,0
DA:772,41480
DA:774,41480
DA:775,4220
DA:776,41480
FNF:12
FNH:7
LF:31
LH:17
end_of_record
SF:/Library/Developer/CommandLineTools/SDKs/MacOSX12.3.sdk/usr/include/c++/v1/__memory/addressof.h
FN:30,_ZNSt3__1L9addressofIKcEEPT_RS2_
FNDA:0,_ZNSt3__1L9addressofIKcEEPT_RS2_
DA:30,0
DA:32,0
FNF:1
FNH:0
LF:2
LH:0
end_of_record
SF:/Library/Developer/CommandLineTools/SDKs/MacOSX12.3.sdk/usr/include/c++/v1/locale
FN:1395,_ZNSt3__116__pad_and_outputIcNS_11char_traitsIcEEEENS_19ostreambuf_iteratorIT_T0_EES6_PKS4_S8_S8_RNS_8ios_baseES4_
FNDA:41480,_ZNSt3__116__pad_and_outputIcNS_11char_traitsIcEEEENS_19ostreambuf_iteratorIT_T0_EES6_PKS4_S8_S8_RNS_8ios_baseES4_
DA:1395,41480
DA:1399,41480
DA:1400,0
DA:1401,41480
DA:1402,41480
DA:1403,41480
DA:1404,0
DA:1406,41480
DA:1407,41480
DA:1408,41480
DA:1410,0
DA:1412,0
DA:1413,0
DA:1415,0
DA:1416,41480
DA:1418,0
DA:1419,0
DA:1421,0
DA:1422,0
DA:1424,0
DA:1425,41480
DA:1426,41480
DA:1428,41480
DA:1430,0
DA:1431,0
DA:1433,41480
DA:1434,41480
DA:1435,41480
DA:1436,41480
FNF:1
FNH:1
LF:29
LH:16
end_of_record
SF:/Library/Developer/CommandLineTools/SDKs/MacOSX12.3.sdk/usr/include/c++/v1/string
FN:840,_ZNSt3__112basic_stringIcNS_11char_traitsIcEENS_9allocatorIcEEEC1IDnEEPKc
FNDA:270,_ZNSt3__112basic_stringIcNS_11char_traitsIcEENS_9allocatorIcEEEC1IDnEEPKc
FN:840,_ZNSt3__112basic_stringIcNS_11char_traitsIcEENS_9allocatorIcEEEC2IDnEEPKc
FNDA:270,_ZNSt3__112basic_stringIcNS_11char_traitsIcEENS_9allocatorIcEEEC2IDnEEPKc
FN:1263,_ZNKSt3__112basic_stringIcNS_11char_traitsIcEENS_9allocatorIcEEE5c_strEv
FNDA:0,_ZNKSt3__112basic_stringIcNS_11char_traitsIcEENS_9allocatorIcEEE5c_strEv
FN:1265,_ZNKSt3__112basic_stringIcNS_11char_traitsIcEENS_9allocatorIcEEE4dataEv
FNDA:0,_ZNKSt3__112basic_stringIcNS_11char_traitsIcEENS_9allocatorIcEEE4dataEv
FN:1458,_ZNKSt3__112basic_stringIcNS_11char_traitsIcEENS_9allocatorIcEEE9__is_longEv
FNDA:0,_ZNKSt3__112basic_stringIcNS_11char_traitsIcEENS_9allocatorIcEEE9__is_longEv
FN:1540,_ZNKSt3__112basic_stringIcNS_11char_traitsIcEENS_9allocatorIcEEE18__get_long_pointerEv
FNDA:0,_ZNKSt3__112basic_stringIcNS_11char_traitsIcEENS_9allocatorIcEEE18__get_long_pointerEv
FN:1546,_ZNKSt3__112basic_stringIcNS_11char_traitsIcEENS_9allocatorIcEEE19__get_short_pointerEv
FNDA:0,_ZNKSt3__112basic_stringIcNS_11char_traitsIcEENS_9allocatorIcEEE19__get_short_pointerEv
FN:1552,_ZNKSt3__112basic_stringIcNS_11char_traitsIcEENS_9allocatorIcEEE13__get_pointerEv
FNDA:0,_ZNKSt3__112basic_stringIcNS_11char_traitsIcEENS_9allocatorIcEEE13__get_pointerEv
FN:1556,_ZNSt3__112basic_stringIcNS_11char_traitsIcEENS_9allocatorIcEEE6__zeroEv
FNDA:0,_ZNSt3__112basic_stringIcNS_11char_traitsIcEENS_9allocatorIcEEE6__zeroEv
FN:1829,_ZNSt3__112basic_stringIcNS_11char_traitsIcEENS_9allocatorIcEEEC1Ev
FNDA:0,_ZNSt3__112basic_stringIcNS_11char_traitsIcEENS_9allocatorIcEEEC1Ev
FN:1829,_ZNSt3__112basic_stringIcNS_11char_traitsIcEENS_9allocatorIcEEEC2Ev
FNDA:0,_ZNSt3__112basic_stringIcNS_11char_traitsIcEENS_9allocatorIcEEEC2Ev
FN:2056,_ZNSt3__112basic_stringIcNS_11char_traitsIcEENS_9allocatorIcEEEC1Emc
FNDA:0,_ZNSt3__112basic_stringIcNS_11char_traitsIcEENS_9allocatorIcEEEC1Emc
FN:2056,_ZNSt3__112basic_stringIcNS_11char_traitsIcEENS_9allocatorIcEEEC2Emc
FNDA:0,_ZNSt3__112basic_stringIcNS_11char_traitsIcEENS_9allocatorIcEEEC2Emc
DA:840,540
DA:842,270
DA:846,540
DA:1263,0
DA:1265,0
DA:1458,0
DA:1459,0
DA:1540,0
DA:1541,0
DA:1546,0
DA:1547,0
DA:1552,0
DA:1553,0
DA:1556,0
DA:1558,0
DA:1559,0
DA:1560,0
DA:1561,0
DA:1829,0
DA:1831,0
DA:1832,0
DA:1836,0
DA:1837,0
DA:2056,0
DA:2057,0
DA:2058,0
DA:2059,0
DA:2063,0
FNF:13
FNH:2
LF:28
LH:3
end_of_record
SF:/Library/Developer/CommandLineTools/SDKs/MacOSX12.3.sdk/usr/include/c++/v1/__memory/allocator.h
FN:74,_ZNSt3__116__non_trivial_ifILb1ENS_9allocatorIcEEEC2Ev
FNDA:270,_ZNSt3__116__non_trivial_ifILb1ENS_9allocatorIcEEEC2Ev
FN:94,_ZNSt3__19allocatorIcEC2Ev
FNDA:270,_ZNSt3__19allocatorIcEC2Ev
DA:74,270
DA:94,270
FNF:2
FNH:2
LF:2
LH:2
end_of_record
SF:/Library/Developer/CommandLineTools/SDKs/MacOSX12.3.sdk/usr/include/c++/v1/__memory/compressed_pair.h
FN:41,_ZNSt3__122__compressed_pair_elemINS_12basic_stringIcNS_11char_traitsIcEENS_9allocatorIcEEE5__repELi0ELb0EEC2ENS_18__default_init_tagE
FNDA:270,_ZNSt3__122__compressed_pair_elemINS_12basic_stringIcNS_11char_traitsIcEENS_9allocatorIcEEE5__repELi0ELb0EEC2ENS_18__default_init_tagE
FN:65,_ZNSt3__122__compressed_pair_elemIPNS_18basic_stringstreamIcNS_11char_traitsIcEENS_9allocatorIcEEEELi0ELb0EE5__getEv
FNDA:10306,_ZNSt3__122__compressed_pair_elemIPNS_18basic_stringstreamIcNS_11char_traitsIcEENS_9allocatorIcEEEELi0ELb0EE5__getEv
FN:65,_ZNSt3__122__compressed_pair_elemIPNS_12basic_stringIcNS_11char_traitsIcEENS_9allocatorIcEEEELi0ELb0EE5__getEv
FNDA:8814,_ZNSt3__122__compressed_pair_elemIPNS_12basic_stringIcNS_11char_traitsIcEENS_9allocatorIcEEEELi0ELb0EE5__getEv
FN:65,_ZNSt3__122__compressed_pair_elemINS_12basic_stringIcNS_11char_traitsIcEENS_9allocatorIcEEE5__repELi0ELb0EE5__getEv
FNDA:0,_ZNSt3__122__compressed_pair_elemINS_12basic_stringIcNS_11char_traitsIcEENS_9allocatorIcEEE5__repELi0ELb0EE5__getEv
FN:67,_ZNKSt3__122__compressed_pair_elemIPNS_12basic_stringIcNS_11char_traitsIcEENS_9allocatorIcEEEELi0ELb0EE5__getEv
FNDA:0,_ZNKSt3__122__compressed_pair_elemIPNS_12basic_stringIcNS_11char_traitsIcEENS_9allocatorIcEEEELi0ELb0EE5__getEv
FN:67,_ZNKSt3__122__compressed_pair_elemINS_12basic_stringIcNS_11char_traitsIcEENS_9allocatorIcEEE5__repELi0ELb0EE5__getEv
FNDA:0,_ZNKSt3__122__compressed_pair_elemINS_12basic_stringIcNS_11char_traitsIcEENS_9allocatorIcEEE5__repELi0ELb0EE5__getEv
FN:82,_ZNSt3__122__compressed_pair_elemINS_9allocatorIcEELi1ELb1EEC2ENS_18__default_init_tagE
FNDA:270,_ZNSt3__122__compressed_pair_elemINS_9allocatorIcEELi1ELb1EEC2ENS_18__default_init_tagE
FN:103,_ZNSt3__122__compressed_pair_elemINS_14default_deleteINS_18basic_stringstreamIcNS_11char_traitsIcEENS_9allocatorIcEEEEEELi1ELb1EE5__getEv
FNDA:5153,_ZNSt3__122__compressed_pair_elemINS_14default_deleteINS_18basic_stringstreamIcNS_11char_traitsIcEENS_9allocatorIcEEEEEELi1ELb1EE5__getEv
FN:103,_ZNSt3__122__compressed_pair_elemINS_14default_deleteINS_12basic_stringIcNS_11char_traitsIcEENS_9allocatorIcEEEEEELi1ELb1EE5__getEv
FNDA:0,_ZNSt3__122__compressed_pair_elemINS_14default_deleteINS_12basic_stringIcNS_11char_traitsIcEENS_9allocatorIcEEEEEELi1ELb1EE5__getEv
FN:135,_ZNSt3__117__compressed_pairINS_12basic_stringIcNS_11char_traitsIcEENS_9allocatorIcEEE5__repES5_EC1INS_18__default_init_tagESA_EEOT_OT0_
FNDA:270,_ZNSt3__117__compressed_pairINS_12basic_stringIcNS_11char_traitsIcEENS_9allocatorIcEEE5__repES5_EC1INS_18__default_init_tagESA_EEOT_OT0_
FN:135,_ZNSt3__117__compressed_pairINS_12basic_stringIcNS_11char_traitsIcEENS_9allocatorIcEEE5__repES5_EC2INS_18__default_init_tagESA_EEOT_OT0_
FNDA:270,_ZNSt3__117__compressed_pairINS_12basic_stringIcNS_11char_traitsIcEENS_9allocatorIcEEE5__repES5_EC2INS_18__default_init_tagESA_EEOT_OT0_
FN:150,_ZNSt3__117__compressed_pairIPNS_18basic_stringstreamIcNS_11char_traitsIcEENS_9allocatorIcEEEENS_14default_deleteIS6_EEE5firstEv
FNDA:10306,_ZNSt3__117__compressed_pairIPNS_18basic_stringstreamIcNS_11char_traitsIcEENS_9allocatorIcEEEENS_14default_deleteIS6_EEE5firstEv
FN:150,_ZNSt3__117__compressed_pairIPNS_12basic_stringIcNS_11char_traitsIcEENS_9allocatorIcEEEENS_14default_deleteIS6_EEE5firstEv
FNDA:8814,_ZNSt3__117__compressed_pairIPNS_12basic_stringIcNS_11char_traitsIcEENS_9allocatorIcEEEENS_14default_deleteIS6_EEE5firstEv
FN:150,_ZNSt3__117__compressed_pairINS_12basic_stringIcNS_11char_traitsIcEENS_9allocatorIcEEE5__repES5_E5firstEv
FNDA:0,_ZNSt3__117__compressed_pairINS_12basic_stringIcNS_11char_traitsIcEENS_9allocatorIcEEE5__repES5_E5firstEv
FN:155,_ZNKSt3__117__compressed_pairIPNS_12basic_stringIcNS_11char_traitsIcEENS_9allocatorIcEEEENS_14default_deleteIS6_EEE5firstEv
FNDA:0,_ZNKSt3__117__compressed_pairIPNS_12basic_stringIcNS_11char_traitsIcEENS_9allocatorIcEEEENS_14default_deleteIS6_EEE5firstEv
FN:155,_ZNKSt3__117__compressed_pairINS_12basic_stringIcNS_11char_traitsIcEENS_9allocatorIcEEE5__repES5_E5firstEv
FNDA:0,_ZNKSt3__117__compressed_pairINS_12basic_stringIcNS_11char_traitsIcEENS_9allocatorIcEEE5__repES5_E5firstEv
FN:160,_ZNSt3__117__compressed_pairIPNS_18basic_stringstreamIcNS_11char_traitsIcEENS_9allocatorIcEEEENS_14default_deleteIS6_EEE6secondEv
FNDA:5153,_ZNSt3__117__compressed_pairIPNS_18basic_stringstreamIcNS_11char_traitsIcEENS_9allocatorIcEEEENS_14default_deleteIS6_EEE6secondEv
FN:160,_ZNSt3__117__compressed_pairIPNS_12basic_stringIcNS_11char_traitsIcEENS_9allocatorIcEEEENS_14default_deleteIS6_EEE6secondEv
FNDA:0,_ZNSt3__117__compressed_pairIPNS_12basic_stringIcNS_11char_traitsIcEENS_9allocatorIcEEEENS_14default_deleteIS6_EEE6secondEv
DA:41,270
DA:65,19120
DA:67,0
DA:82,270
DA:103,5153
DA:135,540
DA:136,540
DA:150,19120
DA:151,19120
DA:155,0
DA:156,0
DA:160,5153
DA:161,5153
FNF:18
FNH:10
LF:13
LH:10
end_of_record
SF:/Users/dogukanarat/Workspace/DevelopmentTestSystem/Binaries/Debug/Intermediate/_deps/googletest-src/googletest/include/gtest/internal/gtest-port.h
FN:967,_ZN7testing8internal8GTestLog9GetStreamEv
FNDA:0,_ZN7testing8internal8GTestLog9GetStreamEv
DA:967,0
FNF:1
FNH:0
LF:1
LH:0
end_of_record
SF:/Library/Developer/CommandLineTools/SDKs/MacOSX12.3.sdk/usr/include/c++/v1/istream
FN:191,_ZNSt3__113basic_istreamIcNS_11char_traitsIcEEEC2EPNS_15basic_streambufIcS2_EE
FNDA:0,_ZNSt3__113basic_istreamIcNS_11char_traitsIcEEEC2EPNS_15basic_streambufIcS2_EE
FN:1405,_ZNSt3__114basic_iostreamIcNS_11char_traitsIcEEEC2EPNS_15basic_streambufIcS2_EE
FNDA:0,_ZNSt3__114basic_iostreamIcNS_11char_traitsIcEEEC2EPNS_15basic_streambufIcS2_EE
DA:191,0
DA:192,0
DA:1405,0
DA:1406,0
DA:1407,0
FNF:2
FNH:0
LF:5
LH:0
end_of_record
SF:/Users/dogukanarat/Workspace/DevelopmentTestSystem/Tests/UnitTest/TestDtsUtilities.cpp
FN:0,__cxx_global_var_init
FNDA:90,__cxx_global_var_init
FN:0,__cxx_global_var_init.5
FNDA:90,__cxx_global_var_init.5
FN:0,__cxx_global_var_init.8
FNDA:90,__cxx_global_var_init.8
FN:8,_ZN29DtsUtilitiesTest_memCopy_Test8TestBodyEv
FNDA:3,_ZN29DtsUtilitiesTest_memCopy_Test8TestBodyEv
FN:8,_ZN29DtsUtilitiesTest_memCopy_TestD1Ev
FNDA:3,_ZN29DtsUtilitiesTest_memCopy_TestD1Ev
FN:8,_ZN29DtsUtilitiesTest_memCopy_TestD0Ev
FNDA:3,_ZN29DtsUtilitiesTest_memCopy_TestD0Ev
FN:8,_ZN29DtsUtilitiesTest_memCopy_TestC1Ev
FNDA:3,_ZN29DtsUtilitiesTest_memCopy_TestC1Ev
FN:8,_ZN29DtsUtilitiesTest_memCopy_TestC2Ev
FNDA:3,_ZN29DtsUtilitiesTest_memCopy_TestC2Ev
FN:8,_ZN29DtsUtilitiesTest_memCopy_TestD2Ev
FNDA:3,_ZN29DtsUtilitiesTest_memCopy_TestD2Ev
FN:23,_ZN28DtsUtilitiesTest_memSet_Test8TestBodyEv
FNDA:3,_ZN28DtsUtilitiesTest_memSet_Test8TestBodyEv
FN:23,_ZN28DtsUtilitiesTest_memSet_TestD1Ev
FNDA:3,_ZN28DtsUtilitiesTest_memSet_TestD1Ev
FN:23,_ZN28DtsUtilitiesTest_memSet_TestD0Ev
FNDA:3,_ZN28DtsUtilitiesTest_memSet_TestD0Ev
FN:23,_ZN28DtsUtilitiesTest_memSet_TestC1Ev
FNDA:3,_ZN28DtsUtilitiesTest_memSet_TestC1Ev
FN:23,_ZN28DtsUtilitiesTest_memSet_TestC2Ev
FNDA:3,_ZN28DtsUtilitiesTest_memSet_TestC2Ev
FN:23,_ZN28DtsUtilitiesTest_memSet_TestD2Ev
FNDA:3,_ZN28DtsUtilitiesTest_memSet_TestD2Ev
FN:37,_ZN29DtsUtilitiesTest_dtsSwap_Test8TestBodyEv
FNDA:3,_ZN29DtsUtilitiesTest_dtsSwap_Test8TestBodyEv
FN:37,_ZN29DtsUtilitiesTest_dtsSwap_TestD1Ev
FNDA:3,_ZN29DtsUtilitiesTest_dtsSwap_TestD1Ev
FN:37,_ZN29DtsUtilitiesTest_dtsSwap_TestD0Ev
FNDA:3,_ZN29DtsUtilitiesTest_dtsSwap_TestD0Ev
FN:37,_ZN29DtsUtilitiesTest_dtsSwap_TestC1Ev
FNDA:3,_ZN29DtsUtilitiesTest_dtsSwap_TestC1Ev
FN:37,_ZN29DtsUtilitiesTest_dtsSwap_TestC2Ev
FNDA:3,_ZN29DtsUtilitiesTest_dtsSwap_TestC2Ev
FN:37,_ZN29DtsUtilitiesTest_dtsSwap_TestD2Ev
FNDA:3,_ZN29DtsUtilitiesTest_dtsSwap_TestD2Ev
DA:8,108
DA:12,3
DA:14,3
DA:17,387
DA:19,384
DA:20,384
DA:21,3
DA:23,108
DA:26,3
DA:27,3
DA:29,3
DA:31,387
DA:33,384
DA:34,384
DA:35,3
DA:37,108
DA:39,3
DA:40,3
DA:42,3
DA:44,3
DA:46,3
DA:47,3
FNF:21
FNH:21
LF:22
LH:22
end_of_record
SF:/Library/Developer/CommandLineTools/SDKs/MacOSX12.3.sdk/usr/include/c++/v1/ostream
FN:234,_ZNSt3__113basic_ostreamIcNS_11char_traitsIcEEEC2Ev
FNDA:0,_ZNSt3__113basic_ostreamIcNS_11char_traitsIcEEEC2Ev
FN:251,_ZNKSt3__113basic_ostreamIcNS_11char_traitsIcEEE6sentrycvbEv
FNDA:41480,_ZNKSt3__113basic_ostreamIcNS_11char_traitsIcEEE6sentrycvbEv
FN:707,_ZNSt3__124__put_character_sequenceIcNS_11char_traitsIcEEEERNS_13basic_ostreamIT_T0_EES7_PKS4_m
FNDA:41480,_ZNSt3__124__put_character_sequenceIcNS_11char_traitsIcEEEERNS_13basic_ostreamIT_T0_EES7_PKS4_m
FN:855,_ZNSt3__1lsINS_11char_traitsIcEEEERNS_13basic_ostreamIcT_EES6_PKc
FNDA:4220,_ZNSt3__1lsINS_11char_traitsIcEEEERNS_13basic_ostreamIcT_EES6_PKc
DA:234,0
DA:251,41480
DA:707,41480
DA:714,41480
DA:715,41480
DA:718,82960
DA:719,41480
DA:720,41480
DA:721,0
DA:722,41480
DA:723,41480
DA:724,41480
DA:725,82960
DA:726,0
DA:727,41480
DA:729,41480
DA:732,0
DA:733,0
DA:735,41480
DA:736,0
DA:855,4220
DA:857,4220
FNF:4
FNH:3
LF:22
LH:16
end_of_record
SF:/Library/Developer/CommandLineTools/SDKs/MacOSX12.3.sdk/usr/include/c++/v1/__utility/forward.h
FN:27,_ZNSt3__1L7forwardINS_18__default_init_tagEEEOT_RNS_16remove_referenceIS2_E4typeE
FNDA:540,_ZNSt3__1L7forwardINS_18__default_init_tagEEEOT_RNS_16remove_referenceIS2_E4typeE
DA:27,540
DA:28,540
FNF:1
FNH:1
LF:2
LH:2
end_of_record
SF:/Library/Developer/CommandLineTools/SDKs/MacOSX12.3.sdk/usr/include/c++/v1/__string
FN:342,_ZNSt3__111char_traitsIcE6lengthEPKc
FNDA:32663,_ZNSt3__111char_traitsIcE6lengthEPKc
FN:374,_ZNSt3__111char_traitsIcE11eq_int_typeEii
FNDA:41480,_ZNSt3__111char_traitsIcE11eq_int_typeEii
FN:376,_ZNSt3__111char_traitsIcE3eofEv
FNDA:46633,_ZNSt3__111char_traitsIcE3eofEv
DA:342,32663
DA:374,41480
DA:375,41480
DA:376,46633
DA:377,46633
FNF:3
FNH:3
LF:5
LH:5
end_of_record
SF:/Library/Developer/CommandLineTools/SDKs/MacOSX12.3.sdk/usr/include/c++/v1/__memory/pointer_traits.h
FN:152,_ZNSt3__114pointer_traitsIPKcE10pointer_toERS1_
FNDA:0,_ZNSt3__114pointer_traitsIPKcE10pointer_toERS1_
FN:173,_ZNSt3__1L12__to_addressIKcEEPT_S3_
FNDA:0,_ZNSt3__1L12__to_addressIKcEEPT_S3_
DA:152,0
DA:154,0
DA:173,0
DA:175,0
FNF:2
FNH:0
LF:4
LH:0
end_of_record
SF:/Library/Developer/CommandLineTools/SDKs/MacOSX12.3.sdk/usr/include/c++/v1/__locale
FN:252,_ZNSt3__1L9use_facetINS_5ctypeIcEEEERKT_RKNS_6localeE
FNDA:4220,_ZNSt3__1L9use_facetINS_5ctypeIcEEEERKT_RKNS_6localeE
FN:697,_ZNKSt3__15ctypeIcE5widenEc
FNDA:4220,_ZNKSt3__15ctypeIcE5widenEc
DA:252,4220
DA:254,4220
DA:697,4220
DA:699,4220
FNF:2
FNH:2
LF:4
LH:4
end_of_record
SF:/Library/Developer/CommandLineTools/SDKs/MacOSX12.3.sdk/usr/include/c++/v1/__memory/unique_ptr.h
FN:52,_ZNKSt3__114default_deleteINS_18basic_stringstreamIcNS_11char_traitsIcEENS_9allocatorIcEEEEEclEPS6_
FNDA:5153,_ZNKSt3__114default_deleteINS_18basic_stringstreamIcNS_11char_traitsIcEENS_9allocatorIcEEEEEclEPS6_
FN:52,_ZNKSt3__114default_deleteINS_12basic_stringIcNS_11char_traitsIcEENS_9allocatorIcEEEEEclEPS6_
FNDA:0,_ZNKSt3__114default_deleteINS_12basic_stringIcNS_11char_traitsIcEENS_9allocatorIcEEEEEclEPS6_
FN:272,_ZNSt3__110unique_ptrINS_18basic_stringstreamIcNS_11char_traitsIcEENS_9allocatorIcEEEENS_14default_deleteIS6_EEED1Ev
FNDA:5153,_ZNSt3__110unique_ptrINS_18basic_stringstreamIcNS_11char_traitsIcEENS_9allocatorIcEEEENS_14default_deleteIS6_EEED1Ev
FN:272,_ZNSt3__110unique_ptrINS_18basic_stringstreamIcNS_11char_traitsIcEENS_9allocatorIcEEEENS_14default_deleteIS6_EEED2Ev
FNDA:5153,_ZNSt3__110unique_ptrINS_18basic_stringstreamIcNS_11char_traitsIcEENS_9allocatorIcEEEENS_14default_deleteIS6_EEED2Ev
FN:272,_ZNSt3__110unique_ptrINS_12basic_stringIcNS_11char_traitsIcEENS_9allocatorIcEEEENS_14default_deleteIS6_EEED1Ev
FNDA:4407,_ZNSt3__110unique_ptrINS_12basic_stringIcNS_11char_traitsIcEENS_9allocatorIcEEEENS_14default_deleteIS6_EEED1Ev
FN:272,_ZNSt3__110unique_ptrINS_12basic_stringIcNS_11char_traitsIcEENS_9allocatorIcEEEENS_14default_deleteIS6_EEED2Ev
FNDA:4407,_ZNSt3__110unique_ptrINS_12basic_stringIcNS_11char_traitsIcEENS_9allocatorIcEEEENS_14default_deleteIS6_EEED2Ev
FN:286,_ZNKSt3__110unique_ptrINS_12basic_stringIcNS_11char_traitsIcEENS_9allocatorIcEEEENS_14default_deleteIS6_EEEptEv
FNDA:0,_ZNKSt3__110unique_ptrINS_12basic_stringIcNS_11char_traitsIcEENS_9allocatorIcEEEENS_14default_deleteIS6_EEEptEv
FN:290,_ZNKSt3__110unique_ptrINS_12basic_stringIcNS_11char_traitsIcEENS_9allocatorIcEEEENS_14default_deleteIS6_EEE3getEv
FNDA:0,_ZNKSt3__110unique_ptrINS_12basic_stringIcNS_11char_traitsIcEENS_9allocatorIcEEEENS_14default_deleteIS6_EEE3getEv
FN:314,_ZNSt3__110unique_ptrINS_18basic_stringstreamIcNS_11char_traitsIcEENS_9allocatorIcEEEENS_14default_deleteIS6_EEE5resetEPS6_
FNDA:5153,_ZNSt3__110unique_ptrINS_18basic_stringstreamIcNS_11char_traitsIcEENS_9allocatorIcEEEENS_14default_deleteIS6_EEE5resetEPS6_
FN:314,_ZNSt3__110unique_ptrINS_12basic_stringIcNS_11char_traitsIcEENS_9allocatorIcEEEENS_14default_deleteIS6_EEE5resetEPS6_
FNDA:4407,_ZNSt3__110unique_ptrINS_12basic_stringIcNS_11char_traitsIcEENS_9allocatorIcEEEENS_14default_deleteIS6_EEE5resetEPS6_
DA:52,5153
DA:57,5153
DA:58,5153
DA:272,19120
DA:286,0
DA:287,0
DA:290,0
DA:291,0
DA:314,9560
DA:315,9560
DA:316,9560
DA:317,9560
DA:318,5153
DA:319,9560
FNF:10
FNH:7
LF:14
LH:10
end_of_record
SF:/Users/dogukanarat/Workspace/DevelopmentTestSystem/Binaries/Debug/Intermediate/_deps/googletest-src/googletest/include/gtest/internal/gtest-internal.h
FN:450,_ZN7testing8internal15TestFactoryBaseD1Ev
FNDA:0,_ZN7testing8internal15TestFactoryBaseD1Ev
FN:450,_ZN7testing8internal15TestFactoryBaseD0Ev
FNDA:0,_ZN7testing8internal15TestFactoryBaseD0Ev
FN:450,_ZN7testing8internal15TestFactoryBaseD2Ev
FNDA:0,_ZN7testing8internal15TestFactoryBaseD2Ev
FN:457,_ZN7testing8internal15TestFactoryBaseC2Ev
FNDA:3870,_ZN7testing8internal15TestFactoryBaseC2Ev
FN:467,_ZN7testing8internal15TestFactoryImplI29DtsUtilitiesTest_memCopy_TestEC1Ev
FNDA:90,_ZN7testing8internal15TestFactoryImplI29DtsUtilitiesTest_memCopy_TestEC1Ev
FN:467,_ZN7testing8internal15TestFactoryImplI28DtsUtilitiesTest_memSet_TestEC1Ev
FNDA:90,_ZN7testing8internal15TestFactoryImplI28DtsUtilitiesTest_memSet_TestEC1Ev
FN:467,_ZN7testing8internal15TestFactoryImplI29DtsUtilitiesTest_dtsSwap_TestEC1Ev
FNDA:90,_ZN7testing8internal15TestFactoryImplI29DtsUtilitiesTest_dtsSwap_TestEC1Ev
FN:467,_ZN7testing8internal15TestFactoryImplI29DtsUtilitiesTest_memCopy_TestEC2Ev
FNDA:90,_ZN7testing8internal15TestFactoryImplI29DtsUtilitiesTest_memCopy_TestEC2Ev
FN:467,_ZN7testing8internal15TestFactoryImplI29DtsUtilitiesTest_memCopy_TestED1Ev
FNDA:0,_ZN7testing8internal15TestFactoryImplI29DtsUtilitiesTest_memCopy_TestED1Ev
FN:467,_ZN7testing8internal15TestFactoryImplI29DtsUtilitiesTest_memCopy_TestED0Ev
FNDA:0,_ZN7testing8internal15TestFactoryImplI29DtsUtilitiesTest_memCopy_TestED0Ev
FN:467,_ZN7testing8internal15TestFactoryImplI29DtsUtilitiesTest_memCopy_TestED2Ev
FNDA:0,_ZN7testing8internal15TestFactoryImplI29DtsUtilitiesTest_memCopy_TestED2Ev
FN:467,_ZN7testing8internal15TestFactoryImplI28DtsUtilitiesTest_memSet_TestEC2Ev
FNDA:90,_ZN7testing8internal15TestFactoryImplI28DtsUtilitiesTest_memSet_TestEC2Ev
FN:467,_ZN7testing8internal15TestFactoryImplI28DtsUtilitiesTest_memSet_TestED1Ev
FNDA:0,_ZN7testing8internal15TestFactoryImplI28DtsUtilitiesTest_memSet_TestED1Ev
FN:467,_ZN7testing8internal15TestFactoryImplI28DtsUtilitiesTest_memSet_TestED0Ev
FNDA:0,_ZN7testing8internal15TestFactoryImplI28DtsUtilitiesTest_memSet_TestED0Ev
FN:467,_ZN7testing8internal15TestFactoryImplI28DtsUtilitiesTest_memSet_TestED2Ev
FNDA:0,_ZN7testing8internal15TestFactoryImplI28DtsUtilitiesTest_memSet_TestED2Ev
FN:467,_ZN7testing8internal15TestFactoryImplI29DtsUtilitiesTest_dtsSwap_TestEC2Ev
FNDA:90,_ZN7testing8internal15TestFactoryImplI29DtsUtilitiesTest_dtsSwap_TestEC2Ev
FN:467,_ZN7testing8internal15TestFactoryImplI29DtsUtilitiesTest_dtsSwap_TestED1Ev
FNDA:0,_ZN7testing8internal15TestFactoryImplI29DtsUtilitiesTest_dtsSwap_TestED1Ev
FN:467,_ZN7testing8internal15TestFactoryImplI29DtsUtilitiesTest_dtsSwap_TestED0Ev
FNDA:0,_ZN7testing8internal15TestFactoryImplI29DtsUtilitiesTest_dtsSwap_TestED0Ev
FN:467,_ZN7testing8internal15TestFactoryImplI29DtsUtilitiesTest_dtsSwap_TestED2Ev
FNDA:0,_ZN7testing8internal15TestFactoryImplI29DtsUtilitiesTest_dtsSwap_TestED2Ev
FN:469,_ZN7testing8internal15TestFactoryImplI29DtsUtilitiesTest_memCopy_TestE10CreateTestEv
FNDA:3,_ZN7testing8internal15TestFactoryImplI29DtsUtilitiesTest_memCopy_TestE10CreateTestEv
FN:469,_ZN7testing8internal15TestFactoryImplI28DtsUtilitiesTest_memSet_TestE10CreateTestEv
FNDA:3,_ZN7testing8internal15TestFactoryImplI28DtsUtilitiesTest_memSet_TestE10CreateTestEv
FN:469,_ZN7testing8internal15TestFactoryImplI29DtsUtilitiesTest_dtsSwap_TestE10CreateTestEv
FNDA:3,_ZN7testing8internal15TestFactoryImplI29DtsUtilitiesTest_dtsSwap_TestE10CreateTestEv
FN:489,_ZN7testing8internal12CodeLocationD1Ev
FNDA:7740,_ZN7testing8internal12CodeLocationD1Ev
FN:489,_ZN7testing8internal12CodeLocationD2Ev
FNDA:7740,_ZN7testing8internal12CodeLocationD2Ev
FN:490,_ZN7testing8internal12CodeLocationC1ERKNSt3__112basic_stringIcNS2_11char_traitsIcEENS2_9allocatorIcEEEEi
FNDA:3870,_ZN7testing8internal12CodeLocationC1ERKNSt3__112basic_stringIcNS2_11char_traitsIcEENS2_9allocatorIcEEEEi
FN:490,_ZN7testing8internal12CodeLocationC2ERKNSt3__112basic_stringIcNS2_11char_traitsIcEENS2_9allocatorIcEEEEi
FNDA:3870,_ZN7testing8internal12CodeLocationC2ERKNSt3__112basic_stringIcNS2_11char_traitsIcEENS2_9allocatorIcEEEEi
FN:503,_ZN7testing8internal19GetNotDefaultOrNullEPFvvES2_
FNDA:15480,_ZN7testing8internal19GetNotDefaultOrNullEPFvvES2_
FN:518,_ZN7testing8internal16SuiteApiResolverINS_4TestEE19GetSetUpCaseOrSuiteEPKci
FNDA:2070,_ZN7testing8internal16SuiteApiResolverINS_4TestEE19GetSetUpCaseOrSuiteEPKci
FN:539,_ZN7testing8internal16SuiteApiResolverINS_4TestEE22GetTearDownCaseOrSuiteEPKci
FNDA:2070,_ZN7testing8internal16SuiteApiResolverINS_4TestEE22GetTearDownCaseOrSuiteEPKci
DA:450,0
DA:457,3870
DA:469,9
DA:490,7740
DA:491,7740
DA:503,15480
DA:505,15480
DA:518,2070
DA:521,2070
DA:522,2070
DA:523,2070
DA:524,2070
DA:526,2070
DA:527,0
DA:529,0
DA:531,2070
DA:537,0
DA:539,2070
DA:542,2070
DA:543,2070
DA:544,2070
DA:545,2070
DA:547,2070
DA:548,0
DA:550,0
DA:552,2070
DA:558,0
FNF:29
FNH:17
LF:27
LH:20
end_of_record
SF:/Library/Developer/CommandLineTools/SDKs/MacOSX12.3.sdk/usr/include/c++/v1/streambuf
FN:228,_ZNSt3__115basic_streambufIcNS_11char_traitsIcEEE5sputnEPKcl
FNDA:41480,_ZNSt3__115basic_streambufIcNS_11char_traitsIcEEE5sputnEPKcl
DA:228,41480
DA:229,41480
FNF:1
FNH:1
LF:2
LH:2
end_of_record
SF:/Users/dogukanarat/Workspace/DevelopmentTestSystem/Binaries/Debug/Intermediate/_deps/googletest-src/googletest/include/gtest/gtest.h
FN:244,_ZN7testing4Test14SetUpTestSuiteEv
FNDA:0,_ZN7testing4Test14SetUpTestSuiteEv
FN:252,_ZN7testing4Test17TearDownTestSuiteEv
FNDA:0,_ZN7testing4Test17TearDownTestSuiteEv
FN:257,_ZN7testing4Test16TearDownTestCaseEv
FNDA:0,_ZN7testing4Test16TearDownTestCaseEv
FN:258,_ZN7testing4Test13SetUpTestCaseEv
FNDA:0,_ZN7testing4Test13SetUpTestCaseEv
FN:339,_ZN7testing4Test5SetupEv
FNDA:0,_ZN7testing4Test5SetupEv
FN:1338,_ZN7testing8internal18CmpHelperEQFailureIhhEENS_15AssertionResultEPKcS4_RKT_RKT0_
FNDA:0,_ZN7testing8internal18CmpHelperEQFailureIhhEENS_15AssertionResultEPKcS4_RKT_RKT0_
FN:1338,_ZN7testing8internal18CmpHelperEQFailureIihEENS_15AssertionResultEPKcS4_RKT_RKT0_
FNDA:0,_ZN7testing8internal18CmpHelperEQFailureIihEENS_15AssertionResultEPKcS4_RKT_RKT0_
FN:1338,_ZN7testing8internal18CmpHelperEQFailureIttEENS_15AssertionResultEPKcS4_RKT_RKT0_
FNDA:0,_ZN7testing8internal18CmpHelperEQFailureIttEENS_15AssertionResultEPKcS4_RKT_RKT0_
FN:1355,_ZN7testing8internal11CmpHelperEQIhhEENS_15AssertionResultEPKcS4_RKT_RKT0_
FNDA:2331,_ZN7testing8internal11CmpHelperEQIhhEENS_15AssertionResultEPKcS4_RKT_RKT0_
FN:1355,_ZN7testing8internal11CmpHelperEQIihEENS_15AssertionResultEPKcS4_RKT_RKT0_
FNDA:1092,_ZN7testing8internal11CmpHelperEQIihEENS_15AssertionResultEPKcS4_RKT_RKT0_
FN:1355,_ZN7testing8internal11CmpHelperEQIttEENS_15AssertionResultEPKcS4_RKT_RKT0_
FNDA:3,_ZN7testing8internal11CmpHelperEQIttEENS_15AssertionResultEPKcS4_RKT_RKT0_
FN:1374,_ZN7testing8internal8EqHelper7CompareIhhLPv0EEENS_15AssertionResultEPKcS6_RKT_RKT0_
FNDA:2331,_ZN7testing8internal8EqHelper7CompareIhhLPv0EEENS_15AssertionResultEPKcS6_RKT_RKT0_
FN:1374,_ZN7testing8internal8EqHelper7CompareIihLPv0EEENS_15AssertionResultEPKcS6_RKT_RKT0_
FNDA:1092,_ZN7testing8internal8EqHelper7CompareIihLPv0EEENS_15AssertionResultEPKcS6_RKT_RKT0_
FN:1374,_ZN7testing8internal8EqHelper7CompareIttLPv0EEENS_15AssertionResultEPKcS6_RKT_RKT0_
FNDA:3,_ZN7testing8internal8EqHelper7CompareIttLPv0EEENS_15AssertionResultEPKcS6_RKT_RKT0_
DA:244,0
DA:252,0
DA:257,0
DA:258,0
DA:339,0
DA:1338,0
DA:1341,0
DA:1342,0
DA:1343,0
DA:1344,0
DA:1355,3426
DA:1358,3426
DA:1359,3426
DA:1362,0
DA:1363,3426
DA:1374,3426
DA:1377,3426
FNF:14
FNH:6
LF:17
LH:6
end_of_record
SF:/Users/dogukanarat/Workspace/DevelopmentTestSystem/Binaries/Debug/Intermediate/_deps/googletest-src/googletest/include/gtest/gtest-printers.h
FN:213,_ZN7testing8internal52internal_stream_operator_without_lexical_name_lookup13StreamPrinter10PrintValueIivRNSt3__113basic_ostreamIcNS4_11char_traitsIcEEEEEEvRKT_PS8_
FNDA:0,_ZN7testing8internal52internal_stream_operator_without_lexical_name_lookup13StreamPrinter10PrintValueIivRNSt3__113basic_ostreamIcNS4_11char_traitsIcEEEEEEvRKT_PS8_
FN:213,_ZN7testing8internal52internal_stream_operator_without_lexical_name_lookup13StreamPrinter10PrintValueItvRNSt3__113basic_ostreamIcNS4_11char_traitsIcEEEEEEvRKT_PS8_
FNDA:0,_ZN7testing8internal52internal_stream_operator_without_lexical_name_lookup13StreamPrinter10PrintValueItvRNSt3__113basic_ostreamIcNS4_11char_traitsIcEEEEEEvRKT_PS8_
FN:305,_ZN7testing8internal17PrintWithFallbackIiEEvRKT_PNSt3__113basic_ostreamIcNS5_11char_traitsIcEEEE
FNDA:0,_ZN7testing8internal17PrintWithFallbackIiEEvRKT_PNSt3__113basic_ostreamIcNS5_11char_traitsIcEEEE
FN:305,_ZN7testing8internal17PrintWithFallbackItEEvRKT_PNSt3__113basic_ostreamIcNS5_11char_traitsIcEEEE
FNDA:0,_ZN7testing8internal17PrintWithFallbackItEEvRKT_PNSt3__113basic_ostreamIcNS5_11char_traitsIcEEEE
FN:332,_ZN7testing8internal19FormatForComparisonIhhE6FormatERKh
FNDA:0,_ZN7testing8internal19FormatForComparisonIhhE6FormatERKh
FN:332,_ZN7testing8internal19FormatForComparisonIihE6FormatERKi
FNDA:0,_ZN7testing8internal19FormatForComparisonIihE6FormatERKi
FN:332,_ZN7testing8internal19FormatForComparisonIhiE6FormatERKh
FNDA:0,_ZN7testing8internal19FormatForComparisonIhiE6FormatERKh
FN:332,_ZN7testing8internal19FormatForComparisonIttE6FormatERKt
FNDA:0,_ZN7testing8internal19FormatForComparisonIttE6FormatERKt
FN:412,_ZN7testing8internal33FormatForComparisonFailureMessageIhhEENSt3__112basic_stringIcNS2_11char_traitsIcEENS2_9allocatorIcEEEERKT_RKT0_
FNDA:0,_ZN7testing8internal33FormatForComparisonFailureMessageIhhEENSt3__112basic_stringIcNS2_11char_traitsIcEENS2_9allocatorIcEEEERKT_RKT0_
FN:412,_ZN7testing8internal33FormatForComparisonFailureMessageIihEENSt3__112basic_stringIcNS2_11char_traitsIcEENS2_9allocatorIcEEEERKT_RKT0_
FNDA:0,_ZN7testing8internal33FormatForComparisonFailureMessageIihEENSt3__112basic_stringIcNS2_11char_traitsIcEENS2_9allocatorIcEEEERKT_RKT0_
FN:412,_ZN7testing8internal33FormatForComparisonFailureMessageIhiEENSt3__112basic_stringIcNS2_11char_traitsIcEENS2_9allocatorIcEEEERKT_RKT0_
FNDA:0,_ZN7testing8internal33FormatForComparisonFailureMessageIhiEENSt3__112basic_stringIcNS2_11char_traitsIcEENS2_9allocatorIcEEEERKT_RKT0_
FN:412,_ZN7testing8internal33FormatForComparisonFailureMessageIttEENSt3__112basic_stringIcNS2_11char_traitsIcEENS2_9allocatorIcEEEERKT_RKT0_
FNDA:0,_ZN7testing8internal33FormatForComparisonFailureMessageIttEENSt3__112basic_stringIcNS2_11char_traitsIcEENS2_9allocatorIcEEEERKT_RKT0_
FN:439,_ZN7testing8internal7PrintToIiEEvRKT_PNSt3__113basic_ostreamIcNS5_11char_traitsIcEEEE
FNDA:0,_ZN7testing8internal7PrintToIiEEvRKT_PNSt3__113basic_ostreamIcNS5_11char_traitsIcEEEE
FN:439,_ZN7testing8internal7PrintToItEEvRKT_PNSt3__113basic_ostreamIcNS5_11char_traitsIcEEEE
FNDA:0,_ZN7testing8internal7PrintToItEEvRKT_PNSt3__113basic_ostreamIcNS5_11char_traitsIcEEEE
FN:693,_ZN7testing8internal16UniversalPrinterIhE5PrintERKhPNSt3__113basic_ostreamIcNS5_11char_traitsIcEEEE
FNDA:0,_ZN7testing8internal16UniversalPrinterIhE5PrintERKhPNSt3__113basic_ostreamIcNS5_11char_traitsIcEEEE
FN:693,_ZN7testing8internal16UniversalPrinterIiE5PrintERKiPNSt3__113basic_ostreamIcNS5_11char_traitsIcEEEE
FNDA:0,_ZN7testing8internal16UniversalPrinterIiE5PrintERKiPNSt3__113basic_ostreamIcNS5_11char_traitsIcEEEE
FN:693,_ZN7testing8internal16UniversalPrinterItE5PrintERKtPNSt3__113basic_ostreamIcNS5_11char_traitsIcEEEE
FNDA:0,_ZN7testing8internal16UniversalPrinterItE5PrintERKtPNSt3__113basic_ostreamIcNS5_11char_traitsIcEEEE
FN:883,_ZN7testing8internal21UniversalTersePrinterIhE5PrintERKhPNSt3__113basic_ostreamIcNS5_11char_traitsIcEEEE
FNDA:0,_ZN7testing8internal21UniversalTersePrinterIhE5PrintERKhPNSt3__113basic_ostreamIcNS5_11char_traitsIcEEEE
FN:883,_ZN7testing8internal21UniversalTersePrinterIiE5PrintERKiPNSt3__113basic_ostreamIcNS5_11char_traitsIcEEEE
FNDA:0,_ZN7testing8internal21UniversalTersePrinterIiE5PrintERKiPNSt3__113basic_ostreamIcNS5_11char_traitsIcEEEE
FN:883,_ZN7testing8internal21UniversalTersePrinterItE5PrintERKtPNSt3__113basic_ostreamIcNS5_11char_traitsIcEEEE
FNDA:0,_ZN7testing8internal21UniversalTersePrinterItE5PrintERKtPNSt3__113basic_ostreamIcNS5_11char_traitsIcEEEE
FN:995,_ZN7testing8internal14UniversalPrintIhEEvRKT_PNSt3__113basic_ostreamIcNS5_11char_traitsIcEEEE
FNDA:0,_ZN7testing8internal14UniversalPrintIhEEvRKT_PNSt3__113basic_ostreamIcNS5_11char_traitsIcEEEE
FN:995,_ZN7testing8internal14UniversalPrintIiEEvRKT_PNSt3__113basic_ostreamIcNS5_11char_traitsIcEEEE
FNDA:0,_ZN7testing8internal14UniversalPrintIiEEvRKT_PNSt3__113basic_ostreamIcNS5_11char_traitsIcEEEE
FN:995,_ZN7testing8internal14UniversalPrintItEEvRKT_PNSt3__113basic_ostreamIcNS5_11char_traitsIcEEEE
FNDA:0,_ZN7testing8internal14UniversalPrintItEEvRKT_PNSt3__113basic_ostreamIcNS5_11char_traitsIcEEEE
FN:1035,_ZN7testing13PrintToStringIhEENSt3__112basic_stringIcNS1_11char_traitsIcEENS1_9allocatorIcEEEERKT_
FNDA:0,_ZN7testing13PrintToStringIhEENSt3__112basic_stringIcNS1_11char_traitsIcEENS1_9allocatorIcEEEERKT_
FN:1035,_ZN7testing13PrintToStringIiEENSt3__112basic_stringIcNS1_11char_traitsIcEENS1_9allocatorIcEEEERKT_
FNDA:0,_ZN7testing13PrintToStringIiEENSt3__112basic_stringIcNS1_11char_traitsIcEENS1_9allocatorIcEEEERKT_
FN:1035,_ZN7testing13PrintToStringItEENSt3__112basic_stringIcNS1_11char_traitsIcEENS1_9allocatorIcEEEERKT_
FNDA:0,_ZN7testing13PrintToStringItEENSt3__112basic_stringIcNS1_11char_traitsIcEENS1_9allocatorIcEEEERKT_
DA:213,0
DA:216,0
DA:217,0
DA:305,0
DA:311,0
DA:312,0
DA:332,0
DA:333,0
DA:412,0
DA:414,0
DA:439,0
DA:440,0
DA:441,0
DA:693,0
DA:702,0
DA:703,0
DA:883,0
DA:884,0
DA:885,0
DA:995,0
DA:999,0
DA:1000,0
DA:1035,0
DA:1036,0
DA:1037,0
DA:1038,0
DA:1039,0
FNF:26
FNH:0
LF:27
LH:0
end_of_record
SF:/Library/Developer/CommandLineTools/SDKs/MacOSX12.3.sdk/usr/include/c++/v1/__iterator/ostreambuf_iterator.h
FN:53,_ZNSt3__119ostreambuf_iteratorIcNS_11char_traitsIcEEEC1ERNS_13basic_ostreamIcS2_EE
FNDA:41480,_ZNSt3__119ostreambuf_iteratorIcNS_11char_traitsIcEEEC1ERNS_13basic_ostreamIcS2_EE
FN:53,_ZNSt3__119ostreambuf_iteratorIcNS_11char_traitsIcEEEC2ERNS_13basic_ostreamIcS2_EE
FNDA:41480,_ZNSt3__119ostreambuf_iteratorIcNS_11char_traitsIcEEEC2ERNS_13basic_ostreamIcS2_EE
FN:66,_ZNKSt3__119ostreambuf_iteratorIcNS_11char_traitsIcEEE6failedEv
FNDA:41480,_ZNKSt3__119ostreambuf_iteratorIcNS_11char_traitsIcEEE6failedEv
DA:53,82960
DA:54,82960
DA:66,41480
FNF:3
FNH:3
LF:3
LH:3
end_of_record
SF:/Users/dogukanarat/Workspace/DevelopmentTestSystem/Binaries/Debug/Intermediate/_deps/googletest-src/googletest/include/gtest/gtest-message.h
FN:92,_ZN7testing7MessageD1Ev
FNDA:5153,_ZN7testing7MessageD1Ev
FN:92,_ZN7testing7MessageD2Ev
FNDA:5153,_ZN7testing7MessageD2Ev
FNF:2
FNH:2
LF:0
LH:0
end_of_record
TN:
SF:/Users/dogukanarat/Workspace/DevelopmentTestSystem/Binaries/Debug/Intermediate/_deps/googletest-src/googletest/include/gtest/gtest-printers.h
FN:182,_ZN7testing8internal14PointerPrinter10PrintValueIKvEEvPT_PNSt3__113basic_ostreamIcNS6_11char_traitsIcEEEE
FNDA:0,_ZN7testing8internal14PointerPrinter10PrintValueIKvEEvPT_PNSt3__113basic_ostreamIcNS6_11char_traitsIcEEEE
FN:182,_ZN7testing8internal14PointerPrinter10PrintValueIPvEEvPT_PNSt3__113basic_ostreamIcNS6_11char_traitsIcEEEE
FNDA:0,_ZN7testing8internal14PointerPrinter10PrintValueIPvEEvPT_PNSt3__113basic_ostreamIcNS6_11char_traitsIcEEEE
FN:182,_ZN7testing8internal14PointerPrinter10PrintValueIZN47DtsIteratorTest_dtsIteratorForwardIterator_Test8TestBodyEvE13DtsTestStructEEvPT_PNSt3__113basic_ostreamIcNS7_11char_traitsIcEEEE
FNDA:0,_ZN7testing8internal14PointerPrinter10PrintValueIZN47DtsIteratorTest_dtsIteratorForwardIterator_Test8TestBodyEvE13DtsTestStructEEvPT_PNSt3__113basic_ostreamIcNS7_11char_traitsIcEEEE
FN:213,_ZN7testing8internal52internal_stream_operator_without_lexical_name_lookup13StreamPrinter10PrintValueIivRNSt3__113basic_ostreamIcNS4_11char_traitsIcEEEEEEvRKT_PS8_
FNDA:0,_ZN7testing8internal52internal_stream_operator_without_lexical_name_lookup13StreamPrinter10PrintValueIivRNSt3__113basic_ostreamIcNS4_11char_traitsIcEEEEEEvRKT_PS8_
FN:213,_ZN7testing8internal52internal_stream_operator_without_lexical_name_lookup13StreamPrinter10PrintValueIjvRNSt3__113basic_ostreamIcNS4_11char_traitsIcEEEEEEvRKT_PS8_
FNDA:0,_ZN7testing8internal52internal_stream_operator_without_lexical_name_lookup13StreamPrinter10PrintValueIjvRNSt3__113basic_ostreamIcNS4_11char_traitsIcEEEEEEvRKT_PS8_
FN:213,_ZN7testing8internal52internal_stream_operator_without_lexical_name_lookup13StreamPrinter10PrintValueImvRNSt3__113basic_ostreamIcNS4_11char_traitsIcEEEEEEvRKT_PS8_
FNDA:0,_ZN7testing8internal52internal_stream_operator_without_lexical_name_lookup13StreamPrinter10PrintValueImvRNSt3__113basic_ostreamIcNS4_11char_traitsIcEEEEEEvRKT_PS8_
FN:305,_ZN7testing8internal17PrintWithFallbackIiEEvRKT_PNSt3__113basic_ostreamIcNS5_11char_traitsIcEEEE
FNDA:0,_ZN7testing8internal17PrintWithFallbackIiEEvRKT_PNSt3__113basic_ostreamIcNS5_11char_traitsIcEEEE
FN:305,_ZN7testing8internal17PrintWithFallbackIjEEvRKT_PNSt3__113basic_ostreamIcNS5_11char_traitsIcEEEE
FNDA:0,_ZN7testing8internal17PrintWithFallbackIjEEvRKT_PNSt3__113basic_ostreamIcNS5_11char_traitsIcEEEE
FN:305,_ZN7testing8internal17PrintWithFallbackIPKvEEvRKT_PNSt3__113basic_ostreamIcNS7_11char_traitsIcEEEE
FNDA:0,_ZN7testing8internal17PrintWithFallbackIPKvEEvRKT_PNSt3__113basic_ostreamIcNS7_11char_traitsIcEEEE
FN:305,_ZN7testing8internal17PrintWithFallbackIPPvEEvRKT_PNSt3__113basic_ostreamIcNS7_11char_traitsIcEEEE
FNDA:0,_ZN7testing8internal17PrintWithFallbackIPPvEEvRKT_PNSt3__113basic_ostreamIcNS7_11char_traitsIcEEEE
FN:305,_ZN7testing8internal17PrintWithFallbackImEEvRKT_PNSt3__113basic_ostreamIcNS5_11char_traitsIcEEEE
FNDA:0,_ZN7testing8internal17PrintWithFallbackImEEvRKT_PNSt3__113basic_ostreamIcNS5_11char_traitsIcEEEE
FN:305,_ZN7testing8internal17PrintWithFallbackIPZN47DtsIteratorTest_dtsIteratorForwardIterator_Test8TestBodyEvE13DtsTestStructEEvRKT_PNSt3__113basic_ostreamIcNS8_11char_traitsIcEEEE
FNDA:0,_ZN7testing8internal17PrintWithFallbackIPZN47DtsIteratorTest_dtsIteratorForwardIterator_Test8TestBodyEvE13DtsTestStructEEvRKT_PNSt3__113basic_ostreamIcNS8_11char_traitsIcEEEE
FN:332,_ZN7testing8internal19FormatForComparisonIihE6FormatERKi
FNDA:0,_ZN7testing8internal19FormatForComparisonIihE6FormatERKi
FN:332,_ZN7testing8internal19FormatForComparisonIhiE6FormatERKh
FNDA:0,_ZN7testing8internal19FormatForComparisonIhiE6FormatERKh
FN:332,_ZN7testing8internal19FormatForComparisonIijE6FormatERKi
FNDA:0,_ZN7testing8internal19FormatForComparisonIijE6FormatERKi
FN:332,_ZN7testing8internal19FormatForComparisonIjiE6FormatERKj
FNDA:0,_ZN7testing8internal19FormatForComparisonIjiE6FormatERKj
FN:332,_ZN7testing8internal19FormatForComparisonIPKhPhE6FormatERKS3_
FNDA:0,_ZN7testing8internal19FormatForComparisonIPKhPhE6FormatERKS3_
FN:332,_ZN7testing8internal19FormatForComparisonIPhA128_hE6FormatERKS2_
FNDA:0,_ZN7testing8internal19FormatForComparisonIPhA128_hE6FormatERKS2_
FN:332,_ZN7testing8internal19FormatForComparisonIPPvS3_E6FormatERKS3_
FNDA:0,_ZN7testing8internal19FormatForComparisonIPPvS3_E6FormatERKS3_
FN:332,_ZN7testing8internal19FormatForComparisonImjE6FormatERKm
FNDA:0,_ZN7testing8internal19FormatForComparisonImjE6FormatERKm
FN:332,_ZN7testing8internal19FormatForComparisonIjmE6FormatERKj
FNDA:0,_ZN7testing8internal19FormatForComparisonIjmE6FormatERKj
FN:332,_ZN7testing8internal19FormatForComparisonIjjE6FormatERKj
FNDA:0,_ZN7testing8internal19FormatForComparisonIjjE6FormatERKj
FN:332,_ZN7testing8internal19FormatForComparisonIhhE6FormatERKh
FNDA:0,_ZN7testing8internal19FormatForComparisonIhhE6FormatERKh
FN:332,_ZN7testing8internal19FormatForComparisonIPZN47DtsIteratorTest_dtsIteratorForwardIterator_Test8TestBodyEvE13DtsTestStructS4_E6FormatERKS4_
FNDA:0,_ZN7testing8internal19FormatForComparisonIPZN47DtsIteratorTest_dtsIteratorForwardIterator_Test8TestBodyEvE13DtsTestStructS4_E6FormatERKS4_
FN:341,_ZN7testing8internal19FormatForComparisonIA128_hPhE6FormatEPKh
FNDA:0,_ZN7testing8internal19FormatForComparisonIA128_hPhE6FormatEPKh
FN:412,_ZN7testing8internal33FormatForComparisonFailureMessageIihEENSt3__112basic_stringIcNS2_11char_traitsIcEENS2_9allocatorIcEEEERKT_RKT0_
FNDA:0,_ZN7testing8internal33FormatForComparisonFailureMessageIihEENSt3__112basic_stringIcNS2_11char_traitsIcEENS2_9allocatorIcEEEERKT_RKT0_
FN:412,_ZN7testing8internal33FormatForComparisonFailureMessageIhiEENSt3__112basic_stringIcNS2_11char_traitsIcEENS2_9allocatorIcEEEERKT_RKT0_
FNDA:0,_ZN7testing8internal33FormatForComparisonFailureMessageIhiEENSt3__112basic_stringIcNS2_11char_traitsIcEENS2_9allocatorIcEEEERKT_RKT0_
FN:412,_ZN7testing8internal33FormatForComparisonFailureMessageIijEENSt3__112basic_stringIcNS2_11char_traitsIcEENS2_9allocatorIcEEEERKT_RKT0_
FNDA:0,_ZN7testing8internal33FormatForComparisonFailureMessageIijEENSt3__112basic_stringIcNS2_11char_traitsIcEENS2_9allocatorIcEEEERKT_RKT0_
FN:412,_ZN7testing8internal33FormatForComparisonFailureMessageIjiEENSt3__112basic_stringIcNS2_11char_traitsIcEENS2_9allocatorIcEEEERKT_RKT0_
FNDA:0,_ZN7testing8internal33FormatForComparisonFailureMessageIjiEENSt3__112basic_stringIcNS2_11char_traitsIcEENS2_9allocatorIcEEEERKT_RKT0_
FN:412,_ZN7testing8internal33FormatForComparisonFailureMessageIA128_hPhEENSt3__112basic_stringIcNS4_11char_traitsIcEENS4_9allocatorIcEEEERKT_RKT0_
FNDA:0,_ZN7testing8internal33FormatForComparisonFailureMessageIA128_hPhEENSt3__112basic_stringIcNS4_11char_traitsIcEENS4_9allocatorIcEEEERKT_RKT0_
FN:412,_ZN7testing8internal33FormatForComparisonFailureMessageIPhA128_hEENSt3__112basic_stringIcNS4_11char_traitsIcEENS4_9allocatorIcEEEERKT_RKT0_
FNDA:0,_ZN7testing8internal33FormatForComparisonFailureMessageIPhA128_hEENSt3__112basic_stringIcNS4_11char_traitsIcEENS4_9allocatorIcEEEERKT_RKT0_
FN:412,_ZN7testing8internal33FormatForComparisonFailureMessageIPPvS3_EENSt3__112basic_stringIcNS4_11char_traitsIcEENS4_9allocatorIcEEEERKT_RKT0_
FNDA:0,_ZN7testing8internal33FormatForComparisonFailureMessageIPPvS3_EENSt3__112basic_stringIcNS4_11char_traitsIcEENS4_9allocatorIcEEEERKT_RKT0_
FN:412,_ZN7testing8internal33FormatForComparisonFailureMessageImjEENSt3__112basic_stringIcNS2_11char_traitsIcEENS2_9allocatorIcEEEERKT_RKT0_
FNDA:0,_ZN7testing8internal33FormatForComparisonFailureMessageImjEENSt3__112basic_stringIcNS2_11char_traitsIcEENS2_9allocatorIcEEEERKT_RKT0_
FN:412,_ZN7testing8internal33FormatForComparisonFailureMessageIjmEENSt3__112basic_stringIcNS2_11char_traitsIcEENS2_9allocatorIcEEEERKT_RKT0_
FNDA:0,_ZN7testing8internal33FormatForComparisonFailureMessageIjmEENSt3__112basic_stringIcNS2_11char_traitsIcEENS2_9allocatorIcEEEERKT_RKT0_
FN:412,_ZN7testing8internal33FormatForComparisonFailureMessageIjjEENSt3__112basic_stringIcNS2_11char_traitsIcEENS2_9allocatorIcEEEERKT_RKT0_
FNDA:0,_ZN7testing8internal33FormatForComparisonFailureMessageIjjEENSt3__112basic_stringIcNS2_11char_traitsIcEENS2_9allocatorIcEEEERKT_RKT0_
FN:412,_ZN7testing8internal33FormatForComparisonFailureMessageIhhEENSt3__112basic_stringIcNS2_11char_traitsIcEENS2_9allocatorIcEEEERKT_RKT0_
FNDA:0,_ZN7testing8internal33FormatForComparisonFailureMessageIhhEENSt3__112basic_stringIcNS2_11char_traitsIcEENS2_9allocatorIcEEEERKT_RKT0_
FN:412,_ZN7testing8internal33FormatForComparisonFailureMessageIPZN47DtsIteratorTest_dtsIteratorForwardIterator_Test8TestBodyEvE13DtsTestStructS4_EENSt3__112basic_stringIcNS5_11char_traitsIcEENS5_9allocatorIcEEEERKT_RKT0_
FNDA:0,_ZN7testing8internal33FormatForComparisonFailureMessageIPZN47DtsIteratorTest_dtsIteratorForwardIterator_Test8TestBodyEvE13DtsTestStructS4_EENSt3__112basic_stringIcNS5_11char_traitsIcEENS5_9allocatorIcEEEERKT_RKT0_
FN:439,_ZN7testing8internal7PrintToIiEEvRKT_PNSt3__113basic_ostreamIcNS5_11char_traitsIcEEEE
FNDA:0,_ZN7testing8internal7PrintToIiEEvRKT_PNSt3__113basic_ostreamIcNS5_11char_traitsIcEEEE
FN:439,_ZN7testing8internal7PrintToIjEEvRKT_PNSt3__113basic_ostreamIcNS5_11char_traitsIcEEEE
FNDA:0,_ZN7testing8internal7PrintToIjEEvRKT_PNSt3__113basic_ostreamIcNS5_11char_traitsIcEEEE
FN:439,_ZN7testing8internal7PrintToIPKvEEvRKT_PNSt3__113basic_ostreamIcNS7_11char_traitsIcEEEE
FNDA:0,_ZN7testing8internal7PrintToIPKvEEvRKT_PNSt3__113basic_ostreamIcNS7_11char_traitsIcEEEE
FN:439,_ZN7testing8internal7PrintToIPPvEEvRKT_PNSt3__113basic_ostreamIcNS7_11char_traitsIcEEEE
FNDA:0,_ZN7testing8internal7PrintToIPPvEEvRKT_PNSt3__113basic_ostreamIcNS7_11char_traitsIcEEEE
FN:439,_ZN7testing8internal7PrintToImEEvRKT_PNSt3__113basic_ostreamIcNS5_11char_traitsIcEEEE
FNDA:0,_ZN7testing8internal7PrintToImEEvRKT_PNSt3__113basic_ostreamIcNS5_11char_traitsIcEEEE
FN:439,_ZN7testing8internal7PrintToIPZN47DtsIteratorTest_dtsIteratorForwardIterator_Test8TestBodyEvE13DtsTestStructEEvRKT_PNSt3__113basic_ostreamIcNS8_11char_traitsIcEEEE
FNDA:0,_ZN7testing8internal7PrintToIPZN47DtsIteratorTest_dtsIteratorForwardIterator_Test8TestBodyEvE13DtsTestStructEEvRKT_PNSt3__113basic_ostreamIcNS8_11char_traitsIcEEEE
FN:501,_ZN7testing8internal7PrintToEPKhPNSt3__113basic_ostreamIcNS3_11char_traitsIcEEEE
FNDA:0,_ZN7testing8internal7PrintToEPKhPNSt3__113basic_ostreamIcNS3_11char_traitsIcEEEE
FN:504,_ZN7testing8internal7PrintToEPhPNSt3__113basic_ostreamIcNS2_11char_traitsIcEEEE
FNDA:0,_ZN7testing8internal7PrintToEPhPNSt3__113basic_ostreamIcNS2_11char_traitsIcEEEE
FN:693,_ZN7testing8internal16UniversalPrinterIiE5PrintERKiPNSt3__113basic_ostreamIcNS5_11char_traitsIcEEEE
FNDA:0,_ZN7testing8internal16UniversalPrinterIiE5PrintERKiPNSt3__113basic_ostreamIcNS5_11char_traitsIcEEEE
FN:693,_ZN7testing8internal16UniversalPrinterIhE5PrintERKhPNSt3__113basic_ostreamIcNS5_11char_traitsIcEEEE
FNDA:0,_ZN7testing8internal16UniversalPrinterIhE5PrintERKhPNSt3__113basic_ostreamIcNS5_11char_traitsIcEEEE
FN:693,_ZN7testing8internal16UniversalPrinterIjE5PrintERKjPNSt3__113basic_ostreamIcNS5_11char_traitsIcEEEE
FNDA:0,_ZN7testing8internal16UniversalPrinterIjE5PrintERKjPNSt3__113basic_ostreamIcNS5_11char_traitsIcEEEE
FN:693,_ZN7testing8internal16UniversalPrinterIPKhE5PrintERKS3_PNSt3__113basic_ostreamIcNS7_11char_traitsIcEEEE
FNDA:0,_ZN7testing8internal16UniversalPrinterIPKhE5PrintERKS3_PNSt3__113basic_ostreamIcNS7_11char_traitsIcEEEE
FN:693,_ZN7testing8internal16UniversalPrinterIPhE5PrintERKS2_PNSt3__113basic_ostreamIcNS6_11char_traitsIcEEEE
FNDA:0,_ZN7testing8internal16UniversalPrinterIPhE5PrintERKS2_PNSt3__113basic_ostreamIcNS6_11char_traitsIcEEEE
FN:693,_ZN7testing8internal16UniversalPrinterIPPvE5PrintERKS3_PNSt3__113basic_ostreamIcNS7_11char_traitsIcEEEE
FNDA:0,_ZN7testing8internal16UniversalPrinterIPPvE5PrintERKS3_PNSt3__113basic_ostreamIcNS7_11char_traitsIcEEEE
FN:693,_ZN7testing8internal16UniversalPrinterImE5PrintERKmPNSt3__113basic_ostreamIcNS5_11char_traitsIcEEEE
FNDA:0,_ZN7testing8internal16UniversalPrinterImE5PrintERKmPNSt3__113basic_ostreamIcNS5_11char_traitsIcEEEE
FN:693,_ZN7testing8internal16UniversalPrinterIPZN47DtsIteratorTest_dtsIteratorForwardIterator_Test8TestBodyEvE13DtsTestStructE5PrintERKS4_PNSt3__113basic_ostreamIcNS8_11char_traitsIcEEEE
FNDA:0,_ZN7testing8internal16UniversalPrinterIPZN47DtsIteratorTest_dtsIteratorForwardIterator_Test8TestBodyEvE13DtsTestStructE5PrintERKS4_PNSt3__113basic_ostreamIcNS8_11char_traitsIcEEEE
FN:883,_ZN7testing8internal21UniversalTersePrinterIiE5PrintERKiPNSt3__113basic_ostreamIcNS5_11char_traitsIcEEEE
FNDA:0,_ZN7testing8internal21UniversalTersePrinterIiE5PrintERKiPNSt3__113basic_ostreamIcNS5_11char_traitsIcEEEE
FN:883,_ZN7testing8internal21UniversalTersePrinterIhE5PrintERKhPNSt3__113basic_ostreamIcNS5_11char_traitsIcEEEE
FNDA:0,_ZN7testing8internal21UniversalTersePrinterIhE5PrintERKhPNSt3__113basic_ostreamIcNS5_11char_traitsIcEEEE
FN:883,_ZN7testing8internal21UniversalTersePrinterIjE5PrintERKjPNSt3__113basic_ostreamIcNS5_11char_traitsIcEEEE
FNDA:0,_ZN7testing8internal21UniversalTersePrinterIjE5PrintERKjPNSt3__113basic_ostreamIcNS5_11char_traitsIcEEEE
FN:883,_ZN7testing8internal21UniversalTersePrinterIPKhE5PrintERKS3_PNSt3__113basic_ostreamIcNS7_11char_traitsIcEEEE
FNDA:0,_ZN7testing8internal21UniversalTersePrinterIPKhE5PrintERKS3_PNSt3__113basic_ostreamIcNS7_11char_traitsIcEEEE
FN:883,_ZN7testing8internal21UniversalTersePrinterIPhE5PrintERKS2_PNSt3__113basic_ostreamIcNS6_11char_traitsIcEEEE
FNDA:0,_ZN7testing8internal21UniversalTersePrinterIPhE5PrintERKS2_PNSt3__113basic_ostreamIcNS6_11char_traitsIcEEEE
FN:883,_ZN7testing8internal21UniversalTersePrinterIPPvE5PrintERKS3_PNSt3__113basic_ostreamIcNS7_11char_traitsIcEEEE
FNDA:0,_ZN7testing8internal21UniversalTersePrinterIPPvE5PrintERKS3_PNSt3__113basic_ostreamIcNS7_11char_traitsIcEEEE
FN:883,_ZN7testing8internal21UniversalTersePrinterImE5PrintERKmPNSt3__113basic_ostreamIcNS5_11char_traitsIcEEEE
FNDA:0,_ZN7testing8internal21UniversalTersePrinterImE5PrintERKmPNSt3__113basic_ostreamIcNS5_11char_traitsIcEEEE
FN:883,_ZN7testing8internal21UniversalTersePrinterIPZN47DtsIteratorTest_dtsIteratorForwardIterator_Test8TestBodyEvE13DtsTestStructE5PrintERKS4_PNSt3__113basic_ostreamIcNS8_11char_traitsIcEEEE
FNDA:0,_ZN7testing8internal21UniversalTersePrinterIPZN47DtsIteratorTest_dtsIteratorForwardIterator_Test8TestBodyEvE13DtsTestStructE5PrintERKS4_PNSt3__113basic_ostreamIcNS8_11char_traitsIcEEEE
FN:995,_ZN7testing8internal14UniversalPrintIiEEvRKT_PNSt3__113basic_ostreamIcNS5_11char_traitsIcEEEE
FNDA:0,_ZN7testing8internal14UniversalPrintIiEEvRKT_PNSt3__113basic_ostreamIcNS5_11char_traitsIcEEEE
FN:995,_ZN7testing8internal14UniversalPrintIhEEvRKT_PNSt3__113basic_ostreamIcNS5_11char_traitsIcEEEE
FNDA:0,_ZN7testing8internal14UniversalPrintIhEEvRKT_PNSt3__113basic_ostreamIcNS5_11char_traitsIcEEEE
FN:995,_ZN7testing8internal14UniversalPrintIjEEvRKT_PNSt3__113basic_ostreamIcNS5_11char_traitsIcEEEE
FNDA:0,_ZN7testing8internal14UniversalPrintIjEEvRKT_PNSt3__113basic_ostreamIcNS5_11char_traitsIcEEEE
FN:995,_ZN7testing8internal14UniversalPrintIPKhEEvRKT_PNSt3__113basic_ostreamIcNS7_11char_traitsIcEEEE
FNDA:0,_ZN7testing8internal14UniversalPrintIPKhEEvRKT_PNSt3__113basic_ostreamIcNS7_11char_traitsIcEEEE
FN:995,_ZN7testing8internal14UniversalPrintIPhEEvRKT_PNSt3__113basic_ostreamIcNS6_11char_traitsIcEEEE
FNDA:0,_ZN7testing8internal14UniversalPrintIPhEEvRKT_PNSt3__113basic_ostreamIcNS6_11char_traitsIcEEEE
FN:995,_ZN7testing8internal14UniversalPrintIPPvEEvRKT_PNSt3__113basic_ostreamIcNS7_11char_traitsIcEEEE
FNDA:0,_ZN7testing8internal14UniversalPrintIPPvEEvRKT_PNSt3__113basic_ostreamIcNS7_11char_traitsIcEEEE
FN:995,_ZN7testing8internal14UniversalPrintImEEvRKT_PNSt3__113basic_ostreamIcNS5_11char_traitsIcEEEE
FNDA:0,_ZN7testing8internal14UniversalPrintImEEvRKT_PNSt3__113basic_ostreamIcNS5_11char_traitsIcEEEE
FN:995,_ZN7testing8internal14UniversalPrintIPZN47DtsIteratorTest_dtsIteratorForwardIterator_Test8TestBodyEvE13DtsTestStructEEvRKT_PNSt3__113basic_ostreamIcNS8_11char_traitsIcEEEE
FNDA:0,_ZN7testing8internal14UniversalPrintIPZN47DtsIteratorTest_dtsIteratorForwardIterator_Test8TestBodyEvE13DtsTestStructEEvRKT_PNSt3__113basic_ostreamIcNS8_11char_traitsIcEEEE
FN:1035,_ZN7testing13PrintToStringIiEENSt3__112basic_stringIcNS1_11char_traitsIcEENS1_9allocatorIcEEEERKT_
FNDA:0,_ZN7testing13PrintToStringIiEENSt3__112basic_stringIcNS1_11char_traitsIcEENS1_9allocatorIcEEEERKT_
FN:1035,_ZN7testing13PrintToStringIhEENSt3__112basic_stringIcNS1_11char_traitsIcEENS1_9allocatorIcEEEERKT_
FNDA:0,_ZN7testing13PrintToStringIhEENSt3__112basic_stringIcNS1_11char_traitsIcEENS1_9allocatorIcEEEERKT_
FN:1035,_ZN7testing13PrintToStringIjEENSt3__112basic_stringIcNS1_11char_traitsIcEENS1_9allocatorIcEEEERKT_
FNDA:0,_ZN7testing13PrintToStringIjEENSt3__112basic_stringIcNS1_11char_traitsIcEENS1_9allocatorIcEEEERKT_
FN:1035,_ZN7testing13PrintToStringIPKhEENSt3__112basic_stringIcNS3_11char_traitsIcEENS3_9allocatorIcEEEERKT_
FNDA:0,_ZN7testing13PrintToStringIPKhEENSt3__112basic_stringIcNS3_11char_traitsIcEENS3_9allocatorIcEEEERKT_
FN:1035,_ZN7testing13PrintToStringIPhEENSt3__112basic_stringIcNS2_11char_traitsIcEENS2_9allocatorIcEEEERKT_
FNDA:0,_ZN7testing13PrintToStringIPhEENSt3__112basic_stringIcNS2_11char_traitsIcEENS2_9allocatorIcEEEERKT_
FN:1035,_ZN7testing13PrintToStringIPPvEENSt3__112basic_stringIcNS3_11char_traitsIcEENS3_9allocatorIcEEEERKT_
FNDA:0,_ZN7testing13PrintToStringIPPvEENSt3__112basic_stringIcNS3_11char_traitsIcEENS3_9allocatorIcEEEERKT_
FN:1035,_ZN7testing13PrintToStringImEENSt3__112basic_stringIcNS1_11char_traitsIcEENS1_9allocatorIcEEEERKT_
FNDA:0,_ZN7testing13PrintToStringImEENSt3__112basic_stringIcNS1_11char_traitsIcEENS1_9allocatorIcEEEERKT_
FN:1035,_ZN7testing13PrintToStringIPZN47DtsIteratorTest_dtsIteratorForwardIterator_Test8TestBodyEvE13DtsTestStructEENSt3__112basic_stringIcNS4_11char_traitsIcEENS4_9allocatorIcEEEERKT_
FNDA:0,_ZN7testing13PrintToStringIPZN47DtsIteratorTest_dtsIteratorForwardIterator_Test8TestBodyEvE13DtsTestStructEENSt3__112basic_stringIcNS4_11char_traitsIcEENS4_9allocatorIcEEEERKT_
DA:182,0
DA:183,0
DA:184,0
DA:185,0
DA:189,0
DA:191,0
DA:213,0
DA:216,0
DA:217,0
DA:305,0
DA:311,0
DA:312,0
DA:332,0
DA:333,0
DA:341,0
DA:342,0
DA:412,0
DA:414,0
DA:439,0
DA:440,0
DA:441,0
DA:501,0
DA:502,0
DA:503,0
DA:504,0
DA:505,0
DA:506,0
DA:693,0
DA:702,0
DA:703,0
DA:883,0
DA:884,0
DA:885,0
DA:995,0
DA:999,0
DA:1000,0
DA:1035,0
DA:1036,0
DA:1037,0
DA:1038,0
DA:1039,0
FNF:77
FNH:0
LF:41
LH:0
end_of_record
SF:/Users/dogukanarat/Workspace/DevelopmentTestSystem/Tests/UnitTest/TestDtsIterator.cpp
FN:0,__cxx_global_var_init
FNDA:90,__cxx_global_var_init
FN:0,__cxx_global_var_init.11
FNDA:90,__cxx_global_var_init.11
FN:0,__cxx_global_var_init.13
FNDA:90,__cxx_global_var_init.13
FN:0,__cxx_global_var_init.15
FNDA:90,__cxx_global_var_init.15
FN:0,__cxx_global_var_init.17
FNDA:90,__cxx_global_var_init.17
FN:0,__cxx_global_var_init.20
FNDA:90,__cxx_global_var_init.20
FN:0,__cxx_global_var_init.25
FNDA:90,__cxx_global_var_init.25
FN:0,__cxx_global_var_init.29
FNDA:90,__cxx_global_var_init.29
FN:0,__cxx_global_var_init.31
FNDA:90,__cxx_global_var_init.31
FN:0,__cxx_global_var_init.33
FNDA:90,__cxx_global_var_init.33
FN:0,__cxx_global_var_init.36
FNDA:90,__cxx_global_var_init.36
FN:0,__cxx_global_var_init.39
FNDA:90,__cxx_global_var_init.39
FN:0,__cxx_global_var_init.41
FNDA:90,__cxx_global_var_init.41
FN:0,__cxx_global_var_init.43
FNDA:90,__cxx_global_var_init.43
FN:0,__cxx_global_var_init.45
FNDA:90,__cxx_global_var_init.45
FN:8,_ZN42DtsIteratorTest_dtsIteratorInitialize_Test8TestBodyEv
FNDA:3,_ZN42DtsIteratorTest_dtsIteratorInitialize_Test8TestBodyEv
FN:8,_ZN42DtsIteratorTest_dtsIteratorInitialize_TestD1Ev
FNDA:3,_ZN42DtsIteratorTest_dtsIteratorInitialize_TestD1Ev
FN:8,_ZN42DtsIteratorTest_dtsIteratorInitialize_TestD0Ev
FNDA:3,_ZN42DtsIteratorTest_dtsIteratorInitialize_TestD0Ev
FN:8,_ZN42DtsIteratorTest_dtsIteratorInitialize_TestC1Ev
FNDA:3,_ZN42DtsIteratorTest_dtsIteratorInitialize_TestC1Ev
FN:8,_ZN42DtsIteratorTest_dtsIteratorInitialize_TestC2Ev
FNDA:3,_ZN42DtsIteratorTest_dtsIteratorInitialize_TestC2Ev
FN:8,_ZN42DtsIteratorTest_dtsIteratorInitialize_TestD2Ev
FNDA:3,_ZN42DtsIteratorTest_dtsIteratorInitialize_TestD2Ev
FN:22,_ZN50DtsIteratorTest_dtsIteratorInitializeWithNull_Test8TestBodyEv
FNDA:3,_ZN50DtsIteratorTest_dtsIteratorInitializeWithNull_Test8TestBodyEv
FN:22,_ZN50DtsIteratorTest_dtsIteratorInitializeWithNull_TestD1Ev
FNDA:3,_ZN50DtsIteratorTest_dtsIteratorInitializeWithNull_TestD1Ev
FN:22,_ZN50DtsIteratorTest_dtsIteratorInitializeWithNull_TestD0Ev
FNDA:3,_ZN50DtsIteratorTest_dtsIteratorInitializeWithNull_TestD0Ev
FN:22,_ZN50DtsIteratorTest_dtsIteratorInitializeWithNull_TestC1Ev
FNDA:3,_ZN50DtsIteratorTest_dtsIteratorInitializeWithNull_TestC1Ev
FN:22,_ZN50DtsIteratorTest_dtsIteratorInitializeWithNull_TestC2Ev
FNDA:3,_ZN50DtsIteratorTest_dtsIteratorInitializeWithNull_TestC2Ev
FN:22,_ZN50DtsIteratorTest_dtsIteratorInitializeWithNull_TestD2Ev
FNDA:3,_ZN50DtsIteratorTest_dtsIteratorInitializeWithNull_TestD2Ev
FN:31,_ZN54DtsIteratorTest_dtsIteratorInitializeWithZeroSize_Test8TestBodyEv
FNDA:3,_ZN54DtsIteratorTest_dtsIteratorInitializeWithZeroSize_Test8TestBodyEv
FN:31,_ZN54DtsIteratorTest_dtsIteratorInitializeWithZeroSize_TestD1Ev
FNDA:3,_ZN54DtsIteratorTest_dtsIteratorInitializeWithZeroSize_TestD1Ev
FN:31,_ZN54DtsIteratorTest_dtsIteratorInitializeWithZeroSize_TestD0Ev
FNDA:3,_ZN54DtsIteratorTest_dtsIteratorInitializeWithZeroSize_TestD0Ev
FN:31,_ZN54DtsIteratorTest_dtsIteratorInitializeWithZeroSize_TestC1Ev
FNDA:3,_ZN54DtsIteratorTest_dtsIteratorInitializeWithZeroSize_TestC1Ev
FN:31,_ZN54DtsIteratorTest_dtsIteratorInitializeWithZeroSize_TestC2Ev
FNDA:3,_ZN54DtsIteratorTest_dtsIteratorInitializeWithZeroSize_TestC2Ev
FN:31,_ZN54DtsIteratorTest_dtsIteratorInitializeWithZeroSize_TestD2Ev
FNDA:3,_ZN54DtsIteratorTest_dtsIteratorInitializeWithZeroSize_TestD2Ev
FN:41,_ZN58DtsIteratorTest_dtsIteratorInitializeWithNullIterator_Test8TestBodyEv
FNDA:3,_ZN58DtsIteratorTest_dtsIteratorInitializeWithNullIterator_Test8TestBodyEv
FN:41,_ZN58DtsIteratorTest_dtsIteratorInitializeWithNullIterator_TestD1Ev
FNDA:3,_ZN58DtsIteratorTest_dtsIteratorInitializeWithNullIterator_TestD1Ev
FN:41,_ZN58DtsIteratorTest_dtsIteratorInitializeWithNullIterator_TestD0Ev
FNDA:3,_ZN58DtsIteratorTest_dtsIteratorInitializeWithNullIterator_TestD0Ev
FN:41,_ZN58DtsIteratorTest_dtsIteratorInitializeWithNullIterator_TestC1Ev
FNDA:3,_ZN58DtsIteratorTest_dtsIteratorInitializeWithNullIterator_TestC1Ev
FN:41,_ZN58DtsIteratorTest_dtsIteratorInitializeWithNullIterator_TestC2Ev
FNDA:3,_ZN58DtsIteratorTest_dtsIteratorInitializeWithNullIterator_TestC2Ev
FN:41,_ZN58DtsIteratorTest_dtsIteratorInitializeWithNullIterator_TestD2Ev
FNDA:3,_ZN58DtsIteratorTest_dtsIteratorInitializeWithNullIterator_TestD2Ev
FN:50,_ZN39DtsIteratorTest_dtsIteratorGetSize_Test8TestBodyEv
FNDA:3,_ZN39DtsIteratorTest_dtsIteratorGetSize_Test8TestBodyEv
FN:50,_ZN39DtsIteratorTest_dtsIteratorGetSize_TestD1Ev
FNDA:3,_ZN39DtsIteratorTest_dtsIteratorGetSize_TestD1Ev
FN:50,_ZN39DtsIteratorTest_dtsIteratorGetSize_TestD0Ev
FNDA:3,_ZN39DtsIteratorTest_dtsIteratorGetSize_TestD0Ev
FN:50,_ZN39DtsIteratorTest_dtsIteratorGetSize_TestC1Ev
FNDA:3,_ZN39DtsIteratorTest_dtsIteratorGetSize_TestC1Ev
FN:50,_ZN39DtsIteratorTest_dtsIteratorGetSize_TestC2Ev
FNDA:3,_ZN39DtsIteratorTest_dtsIteratorGetSize_TestC2Ev
FN:50,_ZN39DtsIteratorTest_dtsIteratorGetSize_TestD2Ev
FNDA:3,_ZN39DtsIteratorTest_dtsIteratorGetSize_TestD2Ev
FN:67,_ZN39DtsIteratorTest_dtsIteratorReserve_Test8TestBodyEv
FNDA:3,_ZN39DtsIteratorTest_dtsIteratorReserve_Test8TestBodyEv
FN:67,_ZN39DtsIteratorTest_dtsIteratorReserve_TestD1Ev
FNDA:3,_ZN39DtsIteratorTest_dtsIteratorReserve_TestD1Ev
FN:67,_ZN39DtsIteratorTest_dtsIteratorReserve_TestD0Ev
FNDA:3,_ZN39DtsIteratorTest_dtsIteratorReserve_TestD0Ev
FN:67,_ZN39DtsIteratorTest_dtsIteratorReserve_TestC1Ev
FNDA:3,_ZN39DtsIteratorTest_dtsIteratorReserve_TestC1Ev
FN:67,_ZN39DtsIteratorTest_dtsIteratorReserve_TestC2Ev
FNDA:3,_ZN39DtsIteratorTest_dtsIteratorReserve_TestC2Ev
FN:67,_ZN39DtsIteratorTest_dtsIteratorReserve_TestD2Ev
FNDA:3,_ZN39DtsIteratorTest_dtsIteratorReserve_TestD2Ev
FN:84,_ZN37DtsIteratorTest_dtsIteratorWrite_Test8TestBodyEv
FNDA:3,_ZN37DtsIteratorTest_dtsIteratorWrite_Test8TestBodyEv
FN:84,_ZN37DtsIteratorTest_dtsIteratorWrite_TestD1Ev
FNDA:3,_ZN37DtsIteratorTest_dtsIteratorWrite_TestD1Ev
FN:84,_ZN37DtsIteratorTest_dtsIteratorWrite_TestD0Ev
FNDA:3,_ZN37DtsIteratorTest_dtsIteratorWrite_TestD0Ev
FN:84,_ZN37DtsIteratorTest_dtsIteratorWrite_TestC1Ev
FNDA:3,_ZN37DtsIteratorTest_dtsIteratorWrite_TestC1Ev
FN:84,_ZN37DtsIteratorTest_dtsIteratorWrite_TestC2Ev
FNDA:3,_ZN37DtsIteratorTest_dtsIteratorWrite_TestC2Ev
FN:84,_ZN37DtsIteratorTest_dtsIteratorWrite_TestD2Ev
FNDA:3,_ZN37DtsIteratorTest_dtsIteratorWrite_TestD2Ev
FN:106,_ZN45DtsIteratorTest_dtsIteratorWriteWithNull_Test8TestBodyEv
FNDA:3,_ZN45DtsIteratorTest_dtsIteratorWriteWithNull_Test8TestBodyEv
FN:106,_ZN45DtsIteratorTest_dtsIteratorWriteWithNull_TestD1Ev
FNDA:3,_ZN45DtsIteratorTest_dtsIteratorWriteWithNull_TestD1Ev
FN:106,_ZN45DtsIteratorTest_dtsIteratorWriteWithNull_TestD0Ev
FNDA:3,_ZN45DtsIteratorTest_dtsIteratorWriteWithNull_TestD0Ev
FN:106,_ZN45DtsIteratorTest_dtsIteratorWriteWithNull_TestC1Ev
FNDA:3,_ZN45DtsIteratorTest_dtsIteratorWriteWithNull_TestC1Ev
FN:106,_ZN45DtsIteratorTest_dtsIteratorWriteWithNull_TestC2Ev
FNDA:3,_ZN45DtsIteratorTest_dtsIteratorWriteWithNull_TestC2Ev
FN:106,_ZN45DtsIteratorTest_dtsIteratorWriteWithNull_TestD2Ev
FNDA:3,_ZN45DtsIteratorTest_dtsIteratorWriteWithNull_TestD2Ev
FN:120,_ZN49DtsIteratorTest_dtsIteratorWriteWithZeroSize_Test8TestBodyEv
FNDA:3,_ZN49DtsIteratorTest_dtsIteratorWriteWithZeroSize_Test8TestBodyEv
FN:120,_ZN49DtsIteratorTest_dtsIteratorWriteWithZeroSize_TestD1Ev
FNDA:3,_ZN49DtsIteratorTest_dtsIteratorWriteWithZeroSize_TestD1Ev
FN:120,_ZN49DtsIteratorTest_dtsIteratorWriteWithZeroSize_TestD0Ev
FNDA:3,_ZN49DtsIteratorTest_dtsIteratorWriteWithZeroSize_TestD0Ev
FN:120,_ZN49DtsIteratorTest_dtsIteratorWriteWithZeroSize_TestC1Ev
FNDA:3,_ZN49DtsIteratorTest_dtsIteratorWriteWithZeroSize_TestC1Ev
FN:120,_ZN49DtsIteratorTest_dtsIteratorWriteWithZeroSize_TestC2Ev
FNDA:3,_ZN49DtsIteratorTest_dtsIteratorWriteWithZeroSize_TestC2Ev
FN:120,_ZN49DtsIteratorTest_dtsIteratorWriteWithZeroSize_TestD2Ev
FNDA:3,_ZN49DtsIteratorTest_dtsIteratorWriteWithZeroSize_TestD2Ev
FN:134,_ZN52DtsIteratorTest_dtsIteratorWriteWithSmallChunks_Test8TestBodyEv
FNDA:3,_ZN52DtsIteratorTest_dtsIteratorWriteWithSmallChunks_Test8TestBodyEv
FN:134,_ZN52DtsIteratorTest_dtsIteratorWriteWithSmallChunks_TestD1Ev
FNDA:3,_ZN52DtsIteratorTest_dtsIteratorWriteWithSmallChunks_TestD1Ev
FN:134,_ZN52DtsIteratorTest_dtsIteratorWriteWithSmallChunks_TestD0Ev
FNDA:3,_ZN52DtsIteratorTest_dtsIteratorWriteWithSmallChunks_TestD0Ev
FN:134,_ZN52DtsIteratorTest_dtsIteratorWriteWithSmallChunks_TestC1Ev
FNDA:3,_ZN52DtsIteratorTest_dtsIteratorWriteWithSmallChunks_TestC1Ev
FN:134,_ZN52DtsIteratorTest_dtsIteratorWriteWithSmallChunks_TestC2Ev
FNDA:3,_ZN52DtsIteratorTest_dtsIteratorWriteWithSmallChunks_TestC2Ev
FN:134,_ZN52DtsIteratorTest_dtsIteratorWriteWithSmallChunks_TestD2Ev
FNDA:3,_ZN52DtsIteratorTest_dtsIteratorWriteWithSmallChunks_TestD2Ev
FN:167,_ZN36DtsIteratorTest_dtsIteratorRead_Test8TestBodyEv
FNDA:3,_ZN36DtsIteratorTest_dtsIteratorRead_Test8TestBodyEv
FN:167,_ZN36DtsIteratorTest_dtsIteratorRead_TestD1Ev
FNDA:3,_ZN36DtsIteratorTest_dtsIteratorRead_TestD1Ev
FN:167,_ZN36DtsIteratorTest_dtsIteratorRead_TestD0Ev
FNDA:3,_ZN36DtsIteratorTest_dtsIteratorRead_TestD0Ev
FN:167,_ZN36DtsIteratorTest_dtsIteratorRead_TestC1Ev
FNDA:3,_ZN36DtsIteratorTest_dtsIteratorRead_TestC1Ev
FN:167,_ZN36DtsIteratorTest_dtsIteratorRead_TestC2Ev
FNDA:3,_ZN36DtsIteratorTest_dtsIteratorRead_TestC2Ev
FN:167,_ZN36DtsIteratorTest_dtsIteratorRead_TestD2Ev
FNDA:3,_ZN36DtsIteratorTest_dtsIteratorRead_TestD2Ev
FN:194,_ZN44DtsIteratorTest_dtsIteratorReadWithNull_Test8TestBodyEv
FNDA:3,_ZN44DtsIteratorTest_dtsIteratorReadWithNull_Test8TestBodyEv
FN:194,_ZN44DtsIteratorTest_dtsIteratorReadWithNull_TestD1Ev
FNDA:3,_ZN44DtsIteratorTest_dtsIteratorReadWithNull_TestD1Ev
FN:194,_ZN44DtsIteratorTest_dtsIteratorReadWithNull_TestD0Ev
FNDA:3,_ZN44DtsIteratorTest_dtsIteratorReadWithNull_TestD0Ev
FN:194,_ZN44DtsIteratorTest_dtsIteratorReadWithNull_TestC1Ev
FNDA:3,_ZN44DtsIteratorTest_dtsIteratorReadWithNull_TestC1Ev
FN:194,_ZN44DtsIteratorTest_dtsIteratorReadWithNull_TestC2Ev
FNDA:3,_ZN44DtsIteratorTest_dtsIteratorReadWithNull_TestC2Ev
FN:194,_ZN44DtsIteratorTest_dtsIteratorReadWithNull_TestD2Ev
FNDA:3,_ZN44DtsIteratorTest_dtsIteratorReadWithNull_TestD2Ev
FN:207,_ZN48DtsIteratorTest_dtsIteratorReadWithZeroSize_Test8TestBodyEv
FNDA:3,_ZN48DtsIteratorTest_dtsIteratorReadWithZeroSize_Test8TestBodyEv
FN:207,_ZN48DtsIteratorTest_dtsIteratorReadWithZeroSize_TestD1Ev
FNDA:3,_ZN48DtsIteratorTest_dtsIteratorReadWithZeroSize_TestD1Ev
FN:207,_ZN48DtsIteratorTest_dtsIteratorReadWithZeroSize_TestD0Ev
FNDA:3,_ZN48DtsIteratorTest_dtsIteratorReadWithZeroSize_TestD0Ev
FN:207,_ZN48DtsIteratorTest_dtsIteratorReadWithZeroSize_TestC1Ev
FNDA:3,_ZN48DtsIteratorTest_dtsIteratorReadWithZeroSize_TestC1Ev
FN:207,_ZN48DtsIteratorTest_dtsIteratorReadWithZeroSize_TestC2Ev
FNDA:3,_ZN48DtsIteratorTest_dtsIteratorReadWithZeroSize_TestC2Ev
FN:207,_ZN48DtsIteratorTest_dtsIteratorReadWithZeroSize_TestD2Ev
FNDA:3,_ZN48DtsIteratorTest_dtsIteratorReadWithZeroSize_TestD2Ev
FN:221,_ZN51DtsIteratorTest_dtsIteratorReadWithSmallChunks_Test8TestBodyEv
FNDA:3,_ZN51DtsIteratorTest_dtsIteratorReadWithSmallChunks_Test8TestBodyEv
FN:221,_ZN51DtsIteratorTest_dtsIteratorReadWithSmallChunks_TestD1Ev
FNDA:3,_ZN51DtsIteratorTest_dtsIteratorReadWithSmallChunks_TestD1Ev
FN:221,_ZN51DtsIteratorTest_dtsIteratorReadWithSmallChunks_TestD0Ev
FNDA:3,_ZN51DtsIteratorTest_dtsIteratorReadWithSmallChunks_TestD0Ev
FN:221,_ZN51DtsIteratorTest_dtsIteratorReadWithSmallChunks_TestC1Ev
FNDA:3,_ZN51DtsIteratorTest_dtsIteratorReadWithSmallChunks_TestC1Ev
FN:221,_ZN51DtsIteratorTest_dtsIteratorReadWithSmallChunks_TestC2Ev
FNDA:3,_ZN51DtsIteratorTest_dtsIteratorReadWithSmallChunks_TestC2Ev
FN:221,_ZN51DtsIteratorTest_dtsIteratorReadWithSmallChunks_TestD2Ev
FNDA:3,_ZN51DtsIteratorTest_dtsIteratorReadWithSmallChunks_TestD2Ev
FN:254,_ZN47DtsIteratorTest_dtsIteratorForwardIterator_Test8TestBodyEv
FNDA:3,_ZN47DtsIteratorTest_dtsIteratorForwardIterator_Test8TestBodyEv
FN:254,_ZN47DtsIteratorTest_dtsIteratorForwardIterator_TestD1Ev
FNDA:3,_ZN47DtsIteratorTest_dtsIteratorForwardIterator_TestD1Ev
FN:254,_ZN47DtsIteratorTest_dtsIteratorForwardIterator_TestD0Ev
FNDA:3,_ZN47DtsIteratorTest_dtsIteratorForwardIterator_TestD0Ev
FN:254,_ZN47DtsIteratorTest_dtsIteratorForwardIterator_TestC1Ev
FNDA:3,_ZN47DtsIteratorTest_dtsIteratorForwardIterator_TestC1Ev
FN:254,_ZN47DtsIteratorTest_dtsIteratorForwardIterator_TestC2Ev
FNDA:3,_ZN47DtsIteratorTest_dtsIteratorForwardIterator_TestC2Ev
FN:254,_ZN47DtsIteratorTest_dtsIteratorForwardIterator_TestD2Ev
FNDA:3,_ZN47DtsIteratorTest_dtsIteratorForwardIterator_TestD2Ev
DA:8,108
DA:13,3
DA:15,3
DA:17,3
DA:18,3
DA:19,3
DA:20,3
DA:22,108
DA:26,3
DA:28,3
DA:29,3
DA:31,108
DA:36,3
DA:38,3
DA:39,3
DA:41,108
DA:45,3
DA:47,3
DA:48,3
DA:50,108
DA:55,3
DA:57,387
DA:59,384
DA:60,384
DA:62,3
DA:64,3
DA:65,3
DA:67,108
DA:72,3
DA:74,3
DA:76,3
DA:78,3
DA:80,3
DA:81,3
DA:82,3
DA:84,108
DA:89,3
DA:92,3
DA:94,3
DA:96,3
DA:98,3
DA:100,387
DA:102,384
DA:103,384
DA:104,3
DA:106,108
DA:111,3
DA:113,3
DA:115,3
DA:117,3
DA:118,3
DA:120,108
DA:125,3
DA:129,3
DA:131,3
DA:132,3
DA:134,108
DA:139,3
DA:141,3
DA:142,3
DA:144,387
DA:146,384
DA:147,384
DA:149,3
DA:151,387
DA:153,384
DA:155,384
DA:157,384
DA:159,384
DA:160,384
DA:162,3
DA:164,3
DA:165,3
DA:167,108
DA:170,3
DA:173,387
DA:175,384
DA:176,384
DA:178,3
DA:182,3
DA:184,3
DA:186,3
DA:188,387
DA:190,384
DA:191,384
DA:192,3
DA:194,108
DA:197,3
DA:200,3
DA:202,3
DA:204,3
DA:205,3
DA:207,108
DA:212,3
DA:216,3
DA:218,3
DA:219,3
DA:221,108
DA:225,3
DA:228,3
DA:229,3
DA:231,387
DA:233,384
DA:234,384
DA:236,3
DA:238,387
DA:240,384
DA:242,384
DA:244,384
DA:246,384
DA:247,384
DA:249,3
DA:251,3
DA:252,3
DA:254,108
DA:264,39
DA:266,36
DA:267,36
DA:268,36
DA:272,3
DA:274,3
DA:282,39
DA:284,36
DA:286,36
DA:288,36
DA:289,36
DA:291,3
DA:293,3
DA:294,3
FNF:105
FNH:105
LF:129
LH:129
end_of_record
SF:/Library/Developer/CommandLineTools/SDKs/MacOSX12.3.sdk/usr/include/c++/v1/__iterator/ostreambuf_iterator.h
FN:53,_ZNSt3__119ostreambuf_iteratorIcNS_11char_traitsIcEEEC1ERNS_13basic_ostreamIcS2_EE
FNDA:0,_ZNSt3__119ostreambuf_iteratorIcNS_11char_traitsIcEEEC1ERNS_13basic_ostreamIcS2_EE
FN:53,_ZNSt3__119ostreambuf_iteratorIcNS_11char_traitsIcEEEC2ERNS_13basic_ostreamIcS2_EE
FNDA:0,_ZNSt3__119ostreambuf_iteratorIcNS_11char_traitsIcEEEC2ERNS_13basic_ostreamIcS2_EE
FN:66,_ZNKSt3__119ostreambuf_iteratorIcNS_11char_traitsIcEEE6failedEv
FNDA:0,_ZNKSt3__119ostreambuf_iteratorIcNS_11char_traitsIcEEE6failedEv
DA:53,0
DA:54,0
DA:66,0
FNF:3
FNH:0
LF:3
LH:0
end_of_record
SF:/Users/dogukanarat/Workspace/DevelopmentTestSystem/Binaries/Debug/Intermediate/_deps/googletest-src/googletest/include/gtest/gtest-message.h
FN:92,_ZN7testing7MessageD1Ev
FNDA:0,_ZN7testing7MessageD1Ev
FN:92,_ZN7testing7MessageD2Ev
FNDA:0,_ZN7testing7MessageD2Ev
FNF:2
FNH:0
LF:0
LH:0
end_of_record
SF:/Library/Developer/CommandLineTools/SDKs/MacOSX12.3.sdk/usr/include/c++/v1/ostream
FN:234,_ZNSt3__113basic_ostreamIcNS_11char_traitsIcEEEC2Ev
FNDA:0,_ZNSt3__113basic_ostreamIcNS_11char_traitsIcEEEC2Ev
FN:251,_ZNKSt3__113basic_ostreamIcNS_11char_traitsIcEEE6sentrycvbEv
FNDA:0,_ZNKSt3__113basic_ostreamIcNS_11char_traitsIcEEE6sentrycvbEv
FN:707,_ZNSt3__124__put_character_sequenceIcNS_11char_traitsIcEEEERNS_13basic_ostreamIT_T0_EES7_PKS4_m
FNDA:0,_ZNSt3__124__put_character_sequenceIcNS_11char_traitsIcEEEERNS_13basic_ostreamIT_T0_EES7_PKS4_m
FN:855,_ZNSt3__1lsINS_11char_traitsIcEEEERNS_13basic_ostreamIcT_EES6_PKc
FNDA:0,_ZNSt3__1lsINS_11char_traitsIcEEEERNS_13basic_ostreamIcT_EES6_PKc
DA:234,0
DA:251,0
DA:707,0
DA:714,0
DA:715,0
DA:718,0
DA:719,0
DA:720,0
DA:721,0
DA:722,0
DA:723,0
DA:724,0
DA:725,0
DA:726,0
DA:727,0
DA:729,0
DA:732,0
DA:733,0
DA:735,0
DA:736,0
DA:855,0
DA:857,0
FNF:4
FNH:0
LF:22
LH:0
end_of_record
SF:/Library/Developer/CommandLineTools/SDKs/MacOSX12.3.sdk/usr/include/c++/v1/__utility/forward.h
FN:27,_ZNSt3__1L7forwardINS_18__default_init_tagEEEOT_RNS_16remove_referenceIS2_E4typeE
FNDA:2700,_ZNSt3__1L7forwardINS_18__default_init_tagEEEOT_RNS_16remove_referenceIS2_E4typeE
DA:27,2700
DA:28,2700
FNF:1
FNH:1
LF:2
LH:2
end_of_record
SF:/Library/Developer/CommandLineTools/SDKs/MacOSX12.3.sdk/usr/include/c++/v1/__memory/pointer_traits.h
FN:152,_ZNSt3__114pointer_traitsIPKcE10pointer_toERS1_
FNDA:0,_ZNSt3__114pointer_traitsIPKcE10pointer_toERS1_
FN:173,_ZNSt3__1L12__to_addressIKcEEPT_S3_
FNDA:0,_ZNSt3__1L12__to_addressIKcEEPT_S3_
DA:152,0
DA:154,0
DA:173,0
DA:175,0
FNF:2
FNH:0
LF:4
LH:0
end_of_record
SF:/Library/Developer/CommandLineTools/SDKs/MacOSX12.3.sdk/usr/include/c++/v1/__string
FN:342,_ZNSt3__111char_traitsIcE6lengthEPKc
FNDA:0,_ZNSt3__111char_traitsIcE6lengthEPKc
FN:374,_ZNSt3__111char_traitsIcE11eq_int_typeEii
FNDA:0,_ZNSt3__111char_traitsIcE11eq_int_typeEii
FN:376,_ZNSt3__111char_traitsIcE3eofEv
FNDA:0,_ZNSt3__111char_traitsIcE3eofEv
DA:342,0
DA:374,0
DA:375,0
DA:376,0
DA:377,0
FNF:3
FNH:0
LF:5
LH:0
end_of_record
SF:/Users/dogukanarat/Workspace/DevelopmentTestSystem/Binaries/Debug/Intermediate/_deps/googletest-src/googletest/include/gtest/gtest.h
FN:244,_ZN7testing4Test14SetUpTestSuiteEv
FNDA:0,_ZN7testing4Test14SetUpTestSuiteEv
FN:252,_ZN7testing4Test17TearDownTestSuiteEv
FNDA:0,_ZN7testing4Test17TearDownTestSuiteEv
FN:257,_ZN7testing4Test16TearDownTestCaseEv
FNDA:0,_ZN7testing4Test16TearDownTestCaseEv
FN:258,_ZN7testing4Test13SetUpTestCaseEv
FNDA:0,_ZN7testing4Test13SetUpTestCaseEv
FN:339,_ZN7testing4Test5SetupEv
FNDA:0,_ZN7testing4Test5SetupEv
FN:1338,_ZN7testing8internal18CmpHelperEQFailureIihEENS_15AssertionResultEPKcS4_RKT_RKT0_
FNDA:0,_ZN7testing8internal18CmpHelperEQFailureIihEENS_15AssertionResultEPKcS4_RKT_RKT0_
FN:1338,_ZN7testing8internal18CmpHelperEQFailureIijEENS_15AssertionResultEPKcS4_RKT_RKT0_
FNDA:0,_ZN7testing8internal18CmpHelperEQFailureIijEENS_15AssertionResultEPKcS4_RKT_RKT0_
FN:1338,_ZN7testing8internal18CmpHelperEQFailureIA128_hPhEENS_15AssertionResultEPKcS6_RKT_RKT0_
FNDA:0,_ZN7testing8internal18CmpHelperEQFailureIA128_hPhEENS_15AssertionResultEPKcS6_RKT_RKT0_
FN:1338,_ZN7testing8internal18CmpHelperEQFailureIPPvS3_EENS_15AssertionResultEPKcS6_RKT_RKT0_
FNDA:0,_ZN7testing8internal18CmpHelperEQFailureIPPvS3_EENS_15AssertionResultEPKcS6_RKT_RKT0_
FN:1338,_ZN7testing8internal18CmpHelperEQFailureImjEENS_15AssertionResultEPKcS4_RKT_RKT0_
FNDA:0,_ZN7testing8internal18CmpHelperEQFailureImjEENS_15AssertionResultEPKcS4_RKT_RKT0_
FN:1338,_ZN7testing8internal18CmpHelperEQFailureIjjEENS_15AssertionResultEPKcS4_RKT_RKT0_
FNDA:0,_ZN7testing8internal18CmpHelperEQFailureIjjEENS_15AssertionResultEPKcS4_RKT_RKT0_
FN:1338,_ZN7testing8internal18CmpHelperEQFailureIhhEENS_15AssertionResultEPKcS4_RKT_RKT0_
FNDA:0,_ZN7testing8internal18CmpHelperEQFailureIhhEENS_15AssertionResultEPKcS4_RKT_RKT0_
FN:1338,_ZN7testing8internal18CmpHelperEQFailureIPZN47DtsIteratorTest_dtsIteratorForwardIterator_Test8TestBodyEvE13DtsTestStructS4_EENS_15AssertionResultEPKcS7_RKT_RKT0_
FNDA:0,_ZN7testing8internal18CmpHelperEQFailureIPZN47DtsIteratorTest_dtsIteratorForwardIterator_Test8TestBodyEvE13DtsTestStructS4_EENS_15AssertionResultEPKcS7_RKT_RKT0_
FN:1355,_ZN7testing8internal11CmpHelperEQIihEENS_15AssertionResultEPKcS4_RKT_RKT0_
FNDA:0,_ZN7testing8internal11CmpHelperEQIihEENS_15AssertionResultEPKcS4_RKT_RKT0_
FN:1355,_ZN7testing8internal11CmpHelperEQIijEENS_15AssertionResultEPKcS4_RKT_RKT0_
FNDA:0,_ZN7testing8internal11CmpHelperEQIijEENS_15AssertionResultEPKcS4_RKT_RKT0_
FN:1355,_ZN7testing8internal11CmpHelperEQIA128_hPhEENS_15AssertionResultEPKcS6_RKT_RKT0_
FNDA:3,_ZN7testing8internal11CmpHelperEQIA128_hPhEENS_15AssertionResultEPKcS6_RKT_RKT0_
FN:1355,_ZN7testing8internal11CmpHelperEQIPPvS3_EENS_15AssertionResultEPKcS6_RKT_RKT0_
FNDA:3,_ZN7testing8internal11CmpHelperEQIPPvS3_EENS_15AssertionResultEPKcS6_RKT_RKT0_
FN:1355,_ZN7testing8internal11CmpHelperEQImjEENS_15AssertionResultEPKcS4_RKT_RKT0_
FNDA:9,_ZN7testing8internal11CmpHelperEQImjEENS_15AssertionResultEPKcS4_RKT_RKT0_
FN:1355,_ZN7testing8internal11CmpHelperEQIjjEENS_15AssertionResultEPKcS4_RKT_RKT0_
FNDA:774,_ZN7testing8internal11CmpHelperEQIjjEENS_15AssertionResultEPKcS4_RKT_RKT0_
FN:1355,_ZN7testing8internal11CmpHelperEQIhhEENS_15AssertionResultEPKcS4_RKT_RKT0_
FNDA:0,_ZN7testing8internal11CmpHelperEQIhhEENS_15AssertionResultEPKcS4_RKT_RKT0_
FN:1355,_ZN7testing8internal11CmpHelperEQIPZN47DtsIteratorTest_dtsIteratorForwardIterator_Test8TestBodyEvE13DtsTestStructS4_EENS_15AssertionResultEPKcS7_RKT_RKT0_
FNDA:36,_ZN7testing8internal11CmpHelperEQIPZN47DtsIteratorTest_dtsIteratorForwardIterator_Test8TestBodyEvE13DtsTestStructS4_EENS_15AssertionResultEPKcS7_RKT_RKT0_
FN:1374,_ZN7testing8internal8EqHelper7CompareIihLPv0EEENS_15AssertionResultEPKcS6_RKT_RKT0_
FNDA:0,_ZN7testing8internal8EqHelper7CompareIihLPv0EEENS_15AssertionResultEPKcS6_RKT_RKT0_
FN:1374,_ZN7testing8internal8EqHelper7CompareIijLPv0EEENS_15AssertionResultEPKcS6_RKT_RKT0_
FNDA:0,_ZN7testing8internal8EqHelper7CompareIijLPv0EEENS_15AssertionResultEPKcS6_RKT_RKT0_
FN:1374,_ZN7testing8internal8EqHelper7CompareIA128_hPhLPv0EEENS_15AssertionResultEPKcS8_RKT_RKT0_
FNDA:3,_ZN7testing8internal8EqHelper7CompareIA128_hPhLPv0EEENS_15AssertionResultEPKcS8_RKT_RKT0_
FN:1374,_ZN7testing8internal8EqHelper7CompareIPPvS4_LS3_0EEENS_15AssertionResultEPKcS7_RKT_RKT0_
FNDA:3,_ZN7testing8internal8EqHelper7CompareIPPvS4_LS3_0EEENS_15AssertionResultEPKcS7_RKT_RKT0_
FN:1374,_ZN7testing8internal8EqHelper7CompareImjLPv0EEENS_15AssertionResultEPKcS6_RKT_RKT0_
FNDA:9,_ZN7testing8internal8EqHelper7CompareImjLPv0EEENS_15AssertionResultEPKcS6_RKT_RKT0_
FN:1374,_ZN7testing8internal8EqHelper7CompareIjjLPv0EEENS_15AssertionResultEPKcS6_RKT_RKT0_
FNDA:774,_ZN7testing8internal8EqHelper7CompareIjjLPv0EEENS_15AssertionResultEPKcS6_RKT_RKT0_
FN:1374,_ZN7testing8internal8EqHelper7CompareIhhLPv0EEENS_15AssertionResultEPKcS6_RKT_RKT0_
FNDA:0,_ZN7testing8internal8EqHelper7CompareIhhLPv0EEENS_15AssertionResultEPKcS6_RKT_RKT0_
FN:1374,_ZN7testing8internal8EqHelper7CompareIPZN47DtsIteratorTest_dtsIteratorForwardIterator_Test8TestBodyEvE13DtsTestStructS5_LPv0EEENS_15AssertionResultEPKcS9_RKT_RKT0_
FNDA:36,_ZN7testing8internal8EqHelper7CompareIPZN47DtsIteratorTest_dtsIteratorForwardIterator_Test8TestBodyEvE13DtsTestStructS5_LPv0EEENS_15AssertionResultEPKcS9_RKT_RKT0_
DA:244,0
DA:252,0
DA:257,0
DA:258,0
DA:339,0
DA:1338,0
DA:1341,0
DA:1342,0
DA:1343,0
DA:1344,0
DA:1355,825
DA:1358,825
DA:1359,825
DA:1362,0
DA:1363,825
DA:1374,825
DA:1377,825
FNF:29
FNH:10
LF:17
LH:6
end_of_record
SF:/Library/Developer/CommandLineTools/SDKs/MacOSX12.3.sdk/usr/include/c++/v1/streambuf
FN:228,_ZNSt3__115basic_streambufIcNS_11char_traitsIcEEE5sputnEPKcl
FNDA:0,_ZNSt3__115basic_streambufIcNS_11char_traitsIcEEE5sputnEPKcl
DA:228,0
DA:229,0
FNF:1
FNH:0
LF:2
LH:0
end_of_record
SF:/Users/dogukanarat/Workspace/DevelopmentTestSystem/Binaries/Debug/Intermediate/_deps/googletest-src/googletest/include/gtest/internal/gtest-internal.h
FN:450,_ZN7testing8internal15TestFactoryBaseD1Ev
FNDA:0,_ZN7testing8internal15TestFactoryBaseD1Ev
FN:450,_ZN7testing8internal15TestFactoryBaseD0Ev
FNDA:0,_ZN7testing8internal15TestFactoryBaseD0Ev
FN:450,_ZN7testing8internal15TestFactoryBaseD2Ev
FNDA:0,_ZN7testing8internal15TestFactoryBaseD2Ev
FN:457,_ZN7testing8internal15TestFactoryBaseC2Ev
FNDA:0,_ZN7testing8internal15TestFactoryBaseC2Ev
FN:467,_ZN7testing8internal15TestFactoryImplI42DtsIteratorTest_dtsIteratorInitialize_TestEC1Ev
FNDA:90,_ZN7testing8internal15TestFactoryImplI42DtsIteratorTest_dtsIteratorInitialize_TestEC1Ev
FN:467,_ZN7testing8internal15TestFactoryImplI50DtsIteratorTest_dtsIteratorInitializeWithNull_TestEC1Ev
FNDA:90,_ZN7testing8internal15TestFactoryImplI50DtsIteratorTest_dtsIteratorInitializeWithNull_TestEC1Ev
FN:467,_ZN7testing8internal15TestFactoryImplI54DtsIteratorTest_dtsIteratorInitializeWithZeroSize_TestEC1Ev
FNDA:90,_ZN7testing8internal15TestFactoryImplI54DtsIteratorTest_dtsIteratorInitializeWithZeroSize_TestEC1Ev
FN:467,_ZN7testing8internal15TestFactoryImplI58DtsIteratorTest_dtsIteratorInitializeWithNullIterator_TestEC1Ev
FNDA:90,_ZN7testing8internal15TestFactoryImplI58DtsIteratorTest_dtsIteratorInitializeWithNullIterator_TestEC1Ev
FN:467,_ZN7testing8internal15TestFactoryImplI39DtsIteratorTest_dtsIteratorGetSize_TestEC1Ev
FNDA:90,_ZN7testing8internal15TestFactoryImplI39DtsIteratorTest_dtsIteratorGetSize_TestEC1Ev
FN:467,_ZN7testing8internal15TestFactoryImplI39DtsIteratorTest_dtsIteratorReserve_TestEC1Ev
FNDA:90,_ZN7testing8internal15TestFactoryImplI39DtsIteratorTest_dtsIteratorReserve_TestEC1Ev
FN:467,_ZN7testing8internal15TestFactoryImplI37DtsIteratorTest_dtsIteratorWrite_TestEC1Ev
FNDA:90,_ZN7testing8internal15TestFactoryImplI37DtsIteratorTest_dtsIteratorWrite_TestEC1Ev
FN:467,_ZN7testing8internal15TestFactoryImplI45DtsIteratorTest_dtsIteratorWriteWithNull_TestEC1Ev
FNDA:90,_ZN7testing8internal15TestFactoryImplI45DtsIteratorTest_dtsIteratorWriteWithNull_TestEC1Ev
FN:467,_ZN7testing8internal15TestFactoryImplI49DtsIteratorTest_dtsIteratorWriteWithZeroSize_TestEC1Ev
FNDA:90,_ZN7testing8internal15TestFactoryImplI49DtsIteratorTest_dtsIteratorWriteWithZeroSize_TestEC1Ev
FN:467,_ZN7testing8internal15TestFactoryImplI52DtsIteratorTest_dtsIteratorWriteWithSmallChunks_TestEC1Ev
FNDA:90,_ZN7testing8internal15TestFactoryImplI52DtsIteratorTest_dtsIteratorWriteWithSmallChunks_TestEC1Ev
FN:467,_ZN7testing8internal15TestFactoryImplI36DtsIteratorTest_dtsIteratorRead_TestEC1Ev
FNDA:90,_ZN7testing8internal15TestFactoryImplI36DtsIteratorTest_dtsIteratorRead_TestEC1Ev
FN:467,_ZN7testing8internal15TestFactoryImplI44DtsIteratorTest_dtsIteratorReadWithNull_TestEC1Ev
FNDA:90,_ZN7testing8internal15TestFactoryImplI44DtsIteratorTest_dtsIteratorReadWithNull_TestEC1Ev
FN:467,_ZN7testing8internal15TestFactoryImplI48DtsIteratorTest_dtsIteratorReadWithZeroSize_TestEC1Ev
FNDA:90,_ZN7testing8internal15TestFactoryImplI48DtsIteratorTest_dtsIteratorReadWithZeroSize_TestEC1Ev
FN:467,_ZN7testing8internal15TestFactoryImplI51DtsIteratorTest_dtsIteratorReadWithSmallChunks_TestEC1Ev
FNDA:90,_ZN7testing8internal15TestFactoryImplI51DtsIteratorTest_dtsIteratorReadWithSmallChunks_TestEC1Ev
FN:467,_ZN7testing8internal15TestFactoryImplI47DtsIteratorTest_dtsIteratorForwardIterator_TestEC1Ev
FNDA:90,_ZN7testing8internal15TestFactoryImplI47DtsIteratorTest_dtsIteratorForwardIterator_TestEC1Ev
FN:467,_ZN7testing8internal15TestFactoryImplI42DtsIteratorTest_dtsIteratorInitialize_TestEC2Ev
FNDA:90,_ZN7testing8internal15TestFactoryImplI42DtsIteratorTest_dtsIteratorInitialize_TestEC2Ev
FN:467,_ZN7testing8internal15TestFactoryImplI42DtsIteratorTest_dtsIteratorInitialize_TestED1Ev
FNDA:0,_ZN7testing8internal15TestFactoryImplI42DtsIteratorTest_dtsIteratorInitialize_TestED1Ev
FN:467,_ZN7testing8internal15TestFactoryImplI42DtsIteratorTest_dtsIteratorInitialize_TestED0Ev
FNDA:0,_ZN7testing8internal15TestFactoryImplI42DtsIteratorTest_dtsIteratorInitialize_TestED0Ev
FN:467,_ZN7testing8internal15TestFactoryImplI42DtsIteratorTest_dtsIteratorInitialize_TestED2Ev
FNDA:0,_ZN7testing8internal15TestFactoryImplI42DtsIteratorTest_dtsIteratorInitialize_TestED2Ev
FN:467,_ZN7testing8internal15TestFactoryImplI50DtsIteratorTest_dtsIteratorInitializeWithNull_TestEC2Ev
FNDA:90,_ZN7testing8internal15TestFactoryImplI50DtsIteratorTest_dtsIteratorInitializeWithNull_TestEC2Ev
FN:467,_ZN7testing8internal15TestFactoryImplI50DtsIteratorTest_dtsIteratorInitializeWithNull_TestED1Ev
FNDA:0,_ZN7testing8internal15TestFactoryImplI50DtsIteratorTest_dtsIteratorInitializeWithNull_TestED1Ev
FN:467,_ZN7testing8internal15TestFactoryImplI50DtsIteratorTest_dtsIteratorInitializeWithNull_TestED0Ev
FNDA:0,_ZN7testing8internal15TestFactoryImplI50DtsIteratorTest_dtsIteratorInitializeWithNull_TestED0Ev
FN:467,_ZN7testing8internal15TestFactoryImplI50DtsIteratorTest_dtsIteratorInitializeWithNull_TestED2Ev
FNDA:0,_ZN7testing8internal15TestFactoryImplI50DtsIteratorTest_dtsIteratorInitializeWithNull_TestED2Ev
FN:467,_ZN7testing8internal15TestFactoryImplI54DtsIteratorTest_dtsIteratorInitializeWithZeroSize_TestEC2Ev
FNDA:90,_ZN7testing8internal15TestFactoryImplI54DtsIteratorTest_dtsIteratorInitializeWithZeroSize_TestEC2Ev
FN:467,_ZN7testing8internal15TestFactoryImplI54DtsIteratorTest_dtsIteratorInitializeWithZeroSize_TestED1Ev
FNDA:0,_ZN7testing8internal15TestFactoryImplI54DtsIteratorTest_dtsIteratorInitializeWithZeroSize_TestED1Ev
FN:467,_ZN7testing8internal15TestFactoryImplI54DtsIteratorTest_dtsIteratorInitializeWithZeroSize_TestED0Ev
FNDA:0,_ZN7testing8internal15TestFactoryImplI54DtsIteratorTest_dtsIteratorInitializeWithZeroSize_TestED0Ev
FN:467,_ZN7testing8internal15TestFactoryImplI54DtsIteratorTest_dtsIteratorInitializeWithZeroSize_TestED2Ev
FNDA:0,_ZN7testing8internal15TestFactoryImplI54DtsIteratorTest_dtsIteratorInitializeWithZeroSize_TestED2Ev
FN:467,_ZN7testing8internal15TestFactoryImplI58DtsIteratorTest_dtsIteratorInitializeWithNullIterator_TestEC2Ev
FNDA:90,_ZN7testing8internal15TestFactoryImplI58DtsIteratorTest_dtsIteratorInitializeWithNullIterator_TestEC2Ev
FN:467,_ZN7testing8internal15TestFactoryImplI58DtsIteratorTest_dtsIteratorInitializeWithNullIterator_TestED1Ev
FNDA:0,_ZN7testing8internal15TestFactoryImplI58DtsIteratorTest_dtsIteratorInitializeWithNullIterator_TestED1Ev
FN:467,_ZN7testing8internal15TestFactoryImplI58DtsIteratorTest_dtsIteratorInitializeWithNullIterator_TestED0Ev
FNDA:0,_ZN7testing8internal15TestFactoryImplI58DtsIteratorTest_dtsIteratorInitializeWithNullIterator_TestED0Ev
FN:467,_ZN7testing8internal15TestFactoryImplI58DtsIteratorTest_dtsIteratorInitializeWithNullIterator_TestED2Ev
FNDA:0,_ZN7testing8internal15TestFactoryImplI58DtsIteratorTest_dtsIteratorInitializeWithNullIterator_TestED2Ev
FN:467,_ZN7testing8internal15TestFactoryImplI39DtsIteratorTest_dtsIteratorGetSize_TestEC2Ev
FNDA:90,_ZN7testing8internal15TestFactoryImplI39DtsIteratorTest_dtsIteratorGetSize_TestEC2Ev
FN:467,_ZN7testing8internal15TestFactoryImplI39DtsIteratorTest_dtsIteratorGetSize_TestED1Ev
FNDA:0,_ZN7testing8internal15TestFactoryImplI39DtsIteratorTest_dtsIteratorGetSize_TestED1Ev
FN:467,_ZN7testing8internal15TestFactoryImplI39DtsIteratorTest_dtsIteratorGetSize_TestED0Ev
FNDA:0,_ZN7testing8internal15TestFactoryImplI39DtsIteratorTest_dtsIteratorGetSize_TestED0Ev
FN:467,_ZN7testing8internal15TestFactoryImplI39DtsIteratorTest_dtsIteratorGetSize_TestED2Ev
FNDA:0,_ZN7testing8internal15TestFactoryImplI39DtsIteratorTest_dtsIteratorGetSize_TestED2Ev
FN:467,_ZN7testing8internal15TestFactoryImplI39DtsIteratorTest_dtsIteratorReserve_TestEC2Ev
FNDA:90,_ZN7testing8internal15TestFactoryImplI39DtsIteratorTest_dtsIteratorReserve_TestEC2Ev
FN:467,_ZN7testing8internal15TestFactoryImplI39DtsIteratorTest_dtsIteratorReserve_TestED1Ev
FNDA:0,_ZN7testing8internal15TestFactoryImplI39DtsIteratorTest_dtsIteratorReserve_TestED1Ev
FN:467,_ZN7testing8internal15TestFactoryImplI39DtsIteratorTest_dtsIteratorReserve_TestED0Ev
FNDA:0,_ZN7testing8internal15TestFactoryImplI39DtsIteratorTest_dtsIteratorReserve_TestED0Ev
FN:467,_ZN7testing8internal15TestFactoryImplI39DtsIteratorTest_dtsIteratorReserve_TestED2Ev
FNDA:0,_ZN7testing8internal15TestFactoryImplI39DtsIteratorTest_dtsIteratorReserve_TestED2Ev
FN:467,_ZN7testing8internal15TestFactoryImplI37DtsIteratorTest_dtsIteratorWrite_TestEC2Ev
FNDA:90,_ZN7testing8internal15TestFactoryImplI37DtsIteratorTest_dtsIteratorWrite_TestEC2Ev
FN:467,_ZN7testing8internal15TestFactoryImplI37DtsIteratorTest_dtsIteratorWrite_TestED1Ev
FNDA:0,_ZN7testing8internal15TestFactoryImplI37DtsIteratorTest_dtsIteratorWrite_TestED1Ev
FN:467,_ZN7testing8internal15TestFactoryImplI37DtsIteratorTest_dtsIteratorWrite_TestED0Ev
FNDA:0,_ZN7testing8internal15TestFactoryImplI37DtsIteratorTest_dtsIteratorWrite_TestED0Ev
FN:467,_ZN7testing8internal15TestFactoryImplI37DtsIteratorTest_dtsIteratorWrite_TestED2Ev
FNDA:0,_ZN7testing8internal15TestFactoryImplI37DtsIteratorTest_dtsIteratorWrite_TestED2Ev
FN:467,_ZN7testing8internal15TestFactoryImplI45DtsIteratorTest_dtsIteratorWriteWithNull_TestEC2Ev
FNDA:90,_ZN7testing8internal15TestFactoryImplI45DtsIteratorTest_dtsIteratorWriteWithNull_TestEC2Ev
FN:467,_ZN7testing8internal15TestFactoryImplI45DtsIteratorTest_dtsIteratorWriteWithNull_TestED1Ev
FNDA:0,_ZN7testing8internal15TestFactoryImplI45DtsIteratorTest_dtsIteratorWriteWithNull_TestED1Ev
FN:467,_ZN7testing8internal15TestFactoryImplI45DtsIteratorTest_dtsIteratorWriteWithNull_TestED0Ev
FNDA:0,_ZN7testing8internal15TestFactoryImplI45DtsIteratorTest_dtsIteratorWriteWithNull_TestED0Ev
FN:467,_ZN7testing8internal15TestFactoryImplI45DtsIteratorTest_dtsIteratorWriteWithNull_TestED2Ev
FNDA:0,_ZN7testing8internal15TestFactoryImplI45DtsIteratorTest_dtsIteratorWriteWithNull_TestED2Ev
FN:467,_ZN7testing8internal15TestFactoryImplI49DtsIteratorTest_dtsIteratorWriteWithZeroSize_TestEC2Ev
FNDA:90,_ZN7testing8internal15TestFactoryImplI49DtsIteratorTest_dtsIteratorWriteWithZeroSize_TestEC2Ev
FN:467,_ZN7testing8internal15TestFactoryImplI49DtsIteratorTest_dtsIteratorWriteWithZeroSize_TestED1Ev
FNDA:0,_ZN7testing8internal15TestFactoryImplI49DtsIteratorTest_dtsIteratorWriteWithZeroSize_TestED1Ev
FN:467,_ZN7testing8internal15TestFactoryImplI49DtsIteratorTest_dtsIteratorWriteWithZeroSize_TestED0Ev
FNDA:0,_ZN7testing8internal15TestFactoryImplI49DtsIteratorTest_dtsIteratorWriteWithZeroSize_TestED0Ev
FN:467,_ZN7testing8internal15TestFactoryImplI49DtsIteratorTest_dtsIteratorWriteWithZeroSize_TestED2Ev
FNDA:0,_ZN7testing8internal15TestFactoryImplI49DtsIteratorTest_dtsIteratorWriteWithZeroSize_TestED2Ev
FN:467,_ZN7testing8internal15TestFactoryImplI52DtsIteratorTest_dtsIteratorWriteWithSmallChunks_TestEC2Ev
FNDA:90,_ZN7testing8internal15TestFactoryImplI52DtsIteratorTest_dtsIteratorWriteWithSmallChunks_TestEC2Ev
FN:467,_ZN7testing8internal15TestFactoryImplI52DtsIteratorTest_dtsIteratorWriteWithSmallChunks_TestED1Ev
FNDA:0,_ZN7testing8internal15TestFactoryImplI52DtsIteratorTest_dtsIteratorWriteWithSmallChunks_TestED1Ev
FN:467,_ZN7testing8internal15TestFactoryImplI52DtsIteratorTest_dtsIteratorWriteWithSmallChunks_TestED0Ev
FNDA:0,_ZN7testing8internal15TestFactoryImplI52DtsIteratorTest_dtsIteratorWriteWithSmallChunks_TestED0Ev
FN:467,_ZN7testing8internal15TestFactoryImplI52DtsIteratorTest_dtsIteratorWriteWithSmallChunks_TestED2Ev
FNDA:0,_ZN7testing8internal15TestFactoryImplI52DtsIteratorTest_dtsIteratorWriteWithSmallChunks_TestED2Ev
FN:467,_ZN7testing8internal15TestFactoryImplI36DtsIteratorTest_dtsIteratorRead_TestEC2Ev
FNDA:90,_ZN7testing8internal15TestFactoryImplI36DtsIteratorTest_dtsIteratorRead_TestEC2Ev
FN:467,_ZN7testing8internal15TestFactoryImplI36DtsIteratorTest_dtsIteratorRead_TestED1Ev
FNDA:0,_ZN7testing8internal15TestFactoryImplI36DtsIteratorTest_dtsIteratorRead_TestED1Ev
FN:467,_ZN7testing8internal15TestFactoryImplI36DtsIteratorTest_dtsIteratorRead_TestED0Ev
FNDA:0,_ZN7testing8internal15TestFactoryImplI36DtsIteratorTest_dtsIteratorRead_TestED0Ev
FN:467,_ZN7testing8internal15TestFactoryImplI36DtsIteratorTest_dtsIteratorRead_TestED2Ev
FNDA:0,_ZN7testing8internal15TestFactoryImplI36DtsIteratorTest_dtsIteratorRead_TestED2Ev
FN:467,_ZN7testing8internal15TestFactoryImplI44DtsIteratorTest_dtsIteratorReadWithNull_TestEC2Ev
FNDA:90,_ZN7testing8internal15TestFactoryImplI44DtsIteratorTest_dtsIteratorReadWithNull_TestEC2Ev
FN:467,_ZN7testing8internal15TestFactoryImplI44DtsIteratorTest_dtsIteratorReadWithNull_TestED1Ev
FNDA:0,_ZN7testing8internal15TestFactoryImplI44DtsIteratorTest_dtsIteratorReadWithNull_TestED1Ev
FN:467,_ZN7testing8internal15TestFactoryImplI44DtsIteratorTest_dtsIteratorReadWithNull_TestED0Ev
FNDA:0,_ZN7testing8internal15TestFactoryImplI44DtsIteratorTest_dtsIteratorReadWithNull_TestED0Ev
FN:467,_ZN7testing8internal15TestFactoryImplI44DtsIteratorTest_dtsIteratorReadWithNull_TestED2Ev
FNDA:0,_ZN7testing8internal15TestFactoryImplI44DtsIteratorTest_dtsIteratorReadWithNull_TestED2Ev
FN:467,_ZN7testing8internal15TestFactoryImplI48DtsIteratorTest_dtsIteratorReadWithZeroSize_TestEC2Ev
FNDA:90,_ZN7testing8internal15TestFactoryImplI48DtsIteratorTest_dtsIteratorReadWithZeroSize_TestEC2Ev
FN:467,_ZN7testing8internal15TestFactoryImplI48DtsIteratorTest_dtsIteratorReadWithZeroSize_TestED1Ev
FNDA:0,_ZN7testing8internal15TestFactoryImplI48DtsIteratorTest_dtsIteratorReadWithZeroSize_TestED1Ev
FN:467,_ZN7testing8internal15TestFactoryImplI48DtsIteratorTest_dtsIteratorReadWithZeroSize_TestED0Ev
FNDA:0,_ZN7testing8internal15TestFactoryImplI48DtsIteratorTest_dtsIteratorReadWithZeroSize_TestED0Ev
FN:467,_ZN7testing8internal15TestFactoryImplI48DtsIteratorTest_dtsIteratorReadWithZeroSize_TestED2Ev
FNDA:0,_ZN7testing8internal15TestFactoryImplI48DtsIteratorTest_dtsIteratorReadWithZeroSize_TestED2Ev
FN:467,_ZN7testing8internal15TestFactoryImplI51DtsIteratorTest_dtsIteratorReadWithSmallChunks_TestEC2Ev
FNDA:90,_ZN7testing8internal15TestFactoryImplI51DtsIteratorTest_dtsIteratorReadWithSmallChunks_TestEC2Ev
FN:467,_ZN7testing8internal15TestFactoryImplI51DtsIteratorTest_dtsIteratorReadWithSmallChunks_TestED1Ev
FNDA:0,_ZN7testing8internal15TestFactoryImplI51DtsIteratorTest_dtsIteratorReadWithSmallChunks_TestED1Ev
FN:467,_ZN7testing8internal15TestFactoryImplI51DtsIteratorTest_dtsIteratorReadWithSmallChunks_TestED0Ev
FNDA:0,_ZN7testing8internal15TestFactoryImplI51DtsIteratorTest_dtsIteratorReadWithSmallChunks_TestED0Ev
FN:467,_ZN7testing8internal15TestFactoryImplI51DtsIteratorTest_dtsIteratorReadWithSmallChunks_TestED2Ev
FNDA:0,_ZN7testing8internal15TestFactoryImplI51DtsIteratorTest_dtsIteratorReadWithSmallChunks_TestED2Ev
FN:467,_ZN7testing8internal15TestFactoryImplI47DtsIteratorTest_dtsIteratorForwardIterator_TestEC2Ev
FNDA:90,_ZN7testing8internal15TestFactoryImplI47DtsIteratorTest_dtsIteratorForwardIterator_TestEC2Ev
FN:467,_ZN7testing8internal15TestFactoryImplI47DtsIteratorTest_dtsIteratorForwardIterator_TestED1Ev
FNDA:0,_ZN7testing8internal15TestFactoryImplI47DtsIteratorTest_dtsIteratorForwardIterator_TestED1Ev
FN:467,_ZN7testing8internal15TestFactoryImplI47DtsIteratorTest_dtsIteratorForwardIterator_TestED0Ev
FNDA:0,_ZN7testing8internal15TestFactoryImplI47DtsIteratorTest_dtsIteratorForwardIterator_TestED0Ev
FN:467,_ZN7testing8internal15TestFactoryImplI47DtsIteratorTest_dtsIteratorForwardIterator_TestED2Ev
FNDA:0,_ZN7testing8internal15TestFactoryImplI47DtsIteratorTest_dtsIteratorForwardIterator_TestED2Ev
FN:469,_ZN7testing8internal15TestFactoryImplI42DtsIteratorTest_dtsIteratorInitialize_TestE10CreateTestEv
FNDA:3,_ZN7testing8internal15TestFactoryImplI42DtsIteratorTest_dtsIteratorInitialize_TestE10CreateTestEv
FN:469,_ZN7testing8internal15TestFactoryImplI50DtsIteratorTest_dtsIteratorInitializeWithNull_TestE10CreateTestEv
FNDA:3,_ZN7testing8internal15TestFactoryImplI50DtsIteratorTest_dtsIteratorInitializeWithNull_TestE10CreateTestEv
FN:469,_ZN7testing8internal15TestFactoryImplI54DtsIteratorTest_dtsIteratorInitializeWithZeroSize_TestE10CreateTestEv
FNDA:3,_ZN7testing8internal15TestFactoryImplI54DtsIteratorTest_dtsIteratorInitializeWithZeroSize_TestE10CreateTestEv
FN:469,_ZN7testing8internal15TestFactoryImplI58DtsIteratorTest_dtsIteratorInitializeWithNullIterator_TestE10CreateTestEv
FNDA:3,_ZN7testing8internal15TestFactoryImplI58DtsIteratorTest_dtsIteratorInitializeWithNullIterator_TestE10CreateTestEv
FN:469,_ZN7testing8internal15TestFactoryImplI39DtsIteratorTest_dtsIteratorGetSize_TestE10CreateTestEv
FNDA:3,_ZN7testing8internal15TestFactoryImplI39DtsIteratorTest_dtsIteratorGetSize_TestE10CreateTestEv
FN:469,_ZN7testing8internal15TestFactoryImplI39DtsIteratorTest_dtsIteratorReserve_TestE10CreateTestEv
FNDA:3,_ZN7testing8internal15TestFactoryImplI39DtsIteratorTest_dtsIteratorReserve_TestE10CreateTestEv
FN:469,_ZN7testing8internal15TestFactoryImplI37DtsIteratorTest_dtsIteratorWrite_TestE10CreateTestEv
FNDA:3,_ZN7testing8internal15TestFactoryImplI37DtsIteratorTest_dtsIteratorWrite_TestE10CreateTestEv
FN:469,_ZN7testing8internal15TestFactoryImplI45DtsIteratorTest_dtsIteratorWriteWithNull_TestE10CreateTestEv
FNDA:3,_ZN7testing8internal15TestFactoryImplI45DtsIteratorTest_dtsIteratorWriteWithNull_TestE10CreateTestEv
FN:469,_ZN7testing8internal15TestFactoryImplI49DtsIteratorTest_dtsIteratorWriteWithZeroSize_TestE10CreateTestEv
FNDA:3,_ZN7testing8internal15TestFactoryImplI49DtsIteratorTest_dtsIteratorWriteWithZeroSize_TestE10CreateTestEv
FN:469,_ZN7testing8internal15TestFactoryImplI52DtsIteratorTest_dtsIteratorWriteWithSmallChunks_TestE10CreateTestEv
FNDA:3,_ZN7testing8internal15TestFactoryImplI52DtsIteratorTest_dtsIteratorWriteWithSmallChunks_TestE10CreateTestEv
FN:469,_ZN7testing8internal15TestFactoryImplI36DtsIteratorTest_dtsIteratorRead_TestE10CreateTestEv
FNDA:3,_ZN7testing8internal15TestFactoryImplI36DtsIteratorTest_dtsIteratorRead_TestE10CreateTestEv
FN:469,_ZN7testing8internal15TestFactoryImplI44DtsIteratorTest_dtsIteratorReadWithNull_TestE10CreateTestEv
FNDA:3,_ZN7testing8internal15TestFactoryImplI44DtsIteratorTest_dtsIteratorReadWithNull_TestE10CreateTestEv
FN:469,_ZN7testing8internal15TestFactoryImplI48DtsIteratorTest_dtsIteratorReadWithZeroSize_TestE10CreateTestEv
FNDA:3,_ZN7testing8internal15TestFactoryImplI48DtsIteratorTest_dtsIteratorReadWithZeroSize_TestE10CreateTestEv
FN:469,_ZN7testing8internal15TestFactoryImplI51DtsIteratorTest_dtsIteratorReadWithSmallChunks_TestE10CreateTestEv
FNDA:3,_ZN7testing8internal15TestFactoryImplI51DtsIteratorTest_dtsIteratorReadWithSmallChunks_TestE10CreateTestEv
FN:469,_ZN7testing8internal15TestFactoryImplI47DtsIteratorTest_dtsIteratorForwardIterator_TestE10CreateTestEv
FNDA:3,_ZN7testing8internal15TestFactoryImplI47DtsIteratorTest_dtsIteratorForwardIterator_TestE10CreateTestEv
FN:489,_ZN7testing8internal12CodeLocationD1Ev
FNDA:0,_ZN7testing8internal12CodeLocationD1Ev
FN:489,_ZN7testing8internal12CodeLocationD2Ev
FNDA:0,_ZN7testing8internal12CodeLocationD2Ev
FN:490,_ZN7testing8internal12CodeLocationC1ERKNSt3__112basic_stringIcNS2_11char_traitsIcEENS2_9allocatorIcEEEEi
FNDA:0,_ZN7testing8internal12CodeLocationC1ERKNSt3__112basic_stringIcNS2_11char_traitsIcEENS2_9allocatorIcEEEEi
FN:490,_ZN7testing8internal12CodeLocationC2ERKNSt3__112basic_stringIcNS2_11char_traitsIcEENS2_9allocatorIcEEEEi
FNDA:0,_ZN7testing8internal12CodeLocationC2ERKNSt3__112basic_stringIcNS2_11char_traitsIcEENS2_9allocatorIcEEEEi
FN:503,_ZN7testing8internal19GetNotDefaultOrNullEPFvvES2_
FNDA:0,_ZN7testing8internal19GetNotDefaultOrNullEPFvvES2_
FN:518,_ZN7testing8internal16SuiteApiResolverINS_4TestEE19GetSetUpCaseOrSuiteEPKci
FNDA:0,_ZN7testing8internal16SuiteApiResolverINS_4TestEE19GetSetUpCaseOrSuiteEPKci
FN:539,_ZN7testing8internal16SuiteApiResolverINS_4TestEE22GetTearDownCaseOrSuiteEPKci
FNDA:0,_ZN7testing8internal16SuiteApiResolverINS_4TestEE22GetTearDownCaseOrSuiteEPKci
DA:450,0
DA:457,0
DA:469,45
DA:490,0
DA:491,0
DA:503,0
DA:505,0
DA:518,0
DA:521,0
DA:522,0
DA:523,0
DA:524,0
DA:526,0
DA:527,0
DA:529,0
DA:531,0
DA:537,0
DA:539,0
DA:542,0
DA:543,0
DA:544,0
DA:545,0
DA:547,0
DA:548,0
DA:550,0
DA:552,0
DA:558,0
FNF:101
FNH:45
LF:27
LH:1
end_of_record
SF:/Library/Developer/CommandLineTools/SDKs/MacOSX12.3.sdk/usr/include/c++/v1/__memory/unique_ptr.h
FN:52,_ZNKSt3__114default_deleteINS_18basic_stringstreamIcNS_11char_traitsIcEENS_9allocatorIcEEEEEclEPS6_
FNDA:0,_ZNKSt3__114default_deleteINS_18basic_stringstreamIcNS_11char_traitsIcEENS_9allocatorIcEEEEEclEPS6_
FN:52,_ZNKSt3__114default_deleteINS_12basic_stringIcNS_11char_traitsIcEENS_9allocatorIcEEEEEclEPS6_
FNDA:0,_ZNKSt3__114default_deleteINS_12basic_stringIcNS_11char_traitsIcEENS_9allocatorIcEEEEEclEPS6_
FN:272,_ZNSt3__110unique_ptrINS_18basic_stringstreamIcNS_11char_traitsIcEENS_9allocatorIcEEEENS_14default_deleteIS6_EEED1Ev
FNDA:0,_ZNSt3__110unique_ptrINS_18basic_stringstreamIcNS_11char_traitsIcEENS_9allocatorIcEEEENS_14default_deleteIS6_EEED1Ev
FN:272,_ZNSt3__110unique_ptrINS_18basic_stringstreamIcNS_11char_traitsIcEENS_9allocatorIcEEEENS_14default_deleteIS6_EEED2Ev
FNDA:0,_ZNSt3__110unique_ptrINS_18basic_stringstreamIcNS_11char_traitsIcEENS_9allocatorIcEEEENS_14default_deleteIS6_EEED2Ev
FN:272,_ZNSt3__110unique_ptrINS_12basic_stringIcNS_11char_traitsIcEENS_9allocatorIcEEEENS_14default_deleteIS6_EEED1Ev
FNDA:0,_ZNSt3__110unique_ptrINS_12basic_stringIcNS_11char_traitsIcEENS_9allocatorIcEEEENS_14default_deleteIS6_EEED1Ev
FN:272,_ZNSt3__110unique_ptrINS_12basic_stringIcNS_11char_traitsIcEENS_9allocatorIcEEEENS_14default_deleteIS6_EEED2Ev
FNDA:0,_ZNSt3__110unique_ptrINS_12basic_stringIcNS_11char_traitsIcEENS_9allocatorIcEEEENS_14default_deleteIS6_EEED2Ev
FN:286,_ZNKSt3__110unique_ptrINS_12basic_stringIcNS_11char_traitsIcEENS_9allocatorIcEEEENS_14default_deleteIS6_EEEptEv
FNDA:0,_ZNKSt3__110unique_ptrINS_12basic_stringIcNS_11char_traitsIcEENS_9allocatorIcEEEENS_14default_deleteIS6_EEEptEv
FN:290,_ZNKSt3__110unique_ptrINS_12basic_stringIcNS_11char_traitsIcEENS_9allocatorIcEEEENS_14default_deleteIS6_EEE3getEv
FNDA:0,_ZNKSt3__110unique_ptrINS_12basic_stringIcNS_11char_traitsIcEENS_9allocatorIcEEEENS_14default_deleteIS6_EEE3getEv
FN:314,_ZNSt3__110unique_ptrINS_18basic_stringstreamIcNS_11char_traitsIcEENS_9allocatorIcEEEENS_14default_deleteIS6_EEE5resetEPS6_
FNDA:0,_ZNSt3__110unique_ptrINS_18basic_stringstreamIcNS_11char_traitsIcEENS_9allocatorIcEEEENS_14default_deleteIS6_EEE5resetEPS6_
FN:314,_ZNSt3__110unique_ptrINS_12basic_stringIcNS_11char_traitsIcEENS_9allocatorIcEEEENS_14default_deleteIS6_EEE5resetEPS6_
FNDA:0,_ZNSt3__110unique_ptrINS_12basic_stringIcNS_11char_traitsIcEENS_9allocatorIcEEEENS_14default_deleteIS6_EEE5resetEPS6_
DA:52,0
DA:57,0
DA:58,0
DA:272,0
DA:286,0
DA:287,0
DA:290,0
DA:291,0
DA:314,0
DA:315,0
DA:316,0
DA:317,0
DA:318,0
DA:319,0
FNF:10
FNH:0
LF:14
LH:0
end_of_record
SF:/Library/Developer/CommandLineTools/SDKs/MacOSX12.3.sdk/usr/include/c++/v1/__locale
FN:252,_ZNSt3__1L9use_facetINS_5ctypeIcEEEERKT_RKNS_6localeE
FNDA:0,_ZNSt3__1L9use_facetINS_5ctypeIcEEEERKT_RKNS_6localeE
FN:697,_ZNKSt3__15ctypeIcE5widenEc
FNDA:0,_ZNKSt3__15ctypeIcE5widenEc
DA:252,0
DA:254,0
DA:697,0
DA:699,0
FNF:2
FNH:0
LF:4
LH:0
end_of_record
SF:/Library/Developer/CommandLineTools/SDKs/MacOSX12.3.sdk/usr/include/c++/v1/__memory/compressed_pair.h
FN:41,_ZNSt3__122__compressed_pair_elemINS_12basic_stringIcNS_11char_traitsIcEENS_9allocatorIcEEE5__repELi0ELb0EEC2ENS_18__default_init_tagE
FNDA:1350,_ZNSt3__122__compressed_pair_elemINS_12basic_stringIcNS_11char_traitsIcEENS_9allocatorIcEEE5__repELi0ELb0EEC2ENS_18__default_init_tagE
FN:65,_ZNSt3__122__compressed_pair_elemIPNS_18basic_stringstreamIcNS_11char_traitsIcEENS_9allocatorIcEEEELi0ELb0EE5__getEv
FNDA:0,_ZNSt3__122__compressed_pair_elemIPNS_18basic_stringstreamIcNS_11char_traitsIcEENS_9allocatorIcEEEELi0ELb0EE5__getEv
FN:65,_ZNSt3__122__compressed_pair_elemIPNS_12basic_stringIcNS_11char_traitsIcEENS_9allocatorIcEEEELi0ELb0EE5__getEv
FNDA:0,_ZNSt3__122__compressed_pair_elemIPNS_12basic_stringIcNS_11char_traitsIcEENS_9allocatorIcEEEELi0ELb0EE5__getEv
FN:65,_ZNSt3__122__compressed_pair_elemINS_12basic_stringIcNS_11char_traitsIcEENS_9allocatorIcEEE5__repELi0ELb0EE5__getEv
FNDA:0,_ZNSt3__122__compressed_pair_elemINS_12basic_stringIcNS_11char_traitsIcEENS_9allocatorIcEEE5__repELi0ELb0EE5__getEv
FN:67,_ZNKSt3__122__compressed_pair_elemIPNS_12basic_stringIcNS_11char_traitsIcEENS_9allocatorIcEEEELi0ELb0EE5__getEv
FNDA:0,_ZNKSt3__122__compressed_pair_elemIPNS_12basic_stringIcNS_11char_traitsIcEENS_9allocatorIcEEEELi0ELb0EE5__getEv
FN:67,_ZNKSt3__122__compressed_pair_elemINS_12basic_stringIcNS_11char_traitsIcEENS_9allocatorIcEEE5__repELi0ELb0EE5__getEv
FNDA:0,_ZNKSt3__122__compressed_pair_elemINS_12basic_stringIcNS_11char_traitsIcEENS_9allocatorIcEEE5__repELi0ELb0EE5__getEv
FN:82,_ZNSt3__122__compressed_pair_elemINS_9allocatorIcEELi1ELb1EEC2ENS_18__default_init_tagE
FNDA:1350,_ZNSt3__122__compressed_pair_elemINS_9allocatorIcEELi1ELb1EEC2ENS_18__default_init_tagE
FN:103,_ZNSt3__122__compressed_pair_elemINS_14default_deleteINS_18basic_stringstreamIcNS_11char_traitsIcEENS_9allocatorIcEEEEEELi1ELb1EE5__getEv
FNDA:0,_ZNSt3__122__compressed_pair_elemINS_14default_deleteINS_18basic_stringstreamIcNS_11char_traitsIcEENS_9allocatorIcEEEEEELi1ELb1EE5__getEv
FN:103,_ZNSt3__122__compressed_pair_elemINS_14default_deleteINS_12basic_stringIcNS_11char_traitsIcEENS_9allocatorIcEEEEEELi1ELb1EE5__getEv
FNDA:0,_ZNSt3__122__compressed_pair_elemINS_14default_deleteINS_12basic_stringIcNS_11char_traitsIcEENS_9allocatorIcEEEEEELi1ELb1EE5__getEv
FN:135,_ZNSt3__117__compressed_pairINS_12basic_stringIcNS_11char_traitsIcEENS_9allocatorIcEEE5__repES5_EC1INS_18__default_init_tagESA_EEOT_OT0_
FNDA:1350,_ZNSt3__117__compressed_pairINS_12basic_stringIcNS_11char_traitsIcEENS_9allocatorIcEEE5__repES5_EC1INS_18__default_init_tagESA_EEOT_OT0_
FN:135,_ZNSt3__117__compressed_pairINS_12basic_stringIcNS_11char_traitsIcEENS_9allocatorIcEEE5__repES5_EC2INS_18__default_init_tagESA_EEOT_OT0_
FNDA:1350,_ZNSt3__117__compressed_pairINS_12basic_stringIcNS_11char_traitsIcEENS_9allocatorIcEEE5__repES5_EC2INS_18__default_init_tagESA_EEOT_OT0_
FN:150,_ZNSt3__117__compressed_pairIPNS_18basic_stringstreamIcNS_11char_traitsIcEENS_9allocatorIcEEEENS_14default_deleteIS6_EEE5firstEv
FNDA:0,_ZNSt3__117__compressed_pairIPNS_18basic_stringstreamIcNS_11char_traitsIcEENS_9allocatorIcEEEENS_14default_deleteIS6_EEE5firstEv
FN:150,_ZNSt3__117__compressed_pairIPNS_12basic_stringIcNS_11char_traitsIcEENS_9allocatorIcEEEENS_14default_deleteIS6_EEE5firstEv
FNDA:0,_ZNSt3__117__compressed_pairIPNS_12basic_stringIcNS_11char_traitsIcEENS_9allocatorIcEEEENS_14default_deleteIS6_EEE5firstEv
FN:150,_ZNSt3__117__compressed_pairINS_12basic_stringIcNS_11char_traitsIcEENS_9allocatorIcEEE5__repES5_E5firstEv
FNDA:0,_ZNSt3__117__compressed_pairINS_12basic_stringIcNS_11char_traitsIcEENS_9allocatorIcEEE5__repES5_E5firstEv
FN:155,_ZNKSt3__117__compressed_pairIPNS_12basic_stringIcNS_11char_traitsIcEENS_9allocatorIcEEEENS_14default_deleteIS6_EEE5firstEv
FNDA:0,_ZNKSt3__117__compressed_pairIPNS_12basic_stringIcNS_11char_traitsIcEENS_9allocatorIcEEEENS_14default_deleteIS6_EEE5firstEv
FN:155,_ZNKSt3__117__compressed_pairINS_12basic_stringIcNS_11char_traitsIcEENS_9allocatorIcEEE5__repES5_E5firstEv
FNDA:0,_ZNKSt3__117__compressed_pairINS_12basic_stringIcNS_11char_traitsIcEENS_9allocatorIcEEE5__repES5_E5firstEv
FN:160,_ZNSt3__117__compressed_pairIPNS_18basic_stringstreamIcNS_11char_traitsIcEENS_9allocatorIcEEEENS_14default_deleteIS6_EEE6secondEv
FNDA:0,_ZNSt3__117__compressed_pairIPNS_18basic_stringstreamIcNS_11char_traitsIcEENS_9allocatorIcEEEENS_14default_deleteIS6_EEE6secondEv
FN:160,_ZNSt3__117__compressed_pairIPNS_12basic_stringIcNS_11char_traitsIcEENS_9allocatorIcEEEENS_14default_deleteIS6_EEE6secondEv
FNDA:0,_ZNSt3__117__compressed_pairIPNS_12basic_stringIcNS_11char_traitsIcEENS_9allocatorIcEEEENS_14default_deleteIS6_EEE6secondEv
DA:41,1350
DA:65,0
DA:67,0
DA:82,1350
DA:103,0
DA:135,2700
DA:136,2700
DA:150,0
DA:151,0
DA:155,0
DA:156,0
DA:160,0
DA:161,0
FNF:18
FNH:4
LF:13
LH:4
end_of_record
SF:/Library/Developer/CommandLineTools/SDKs/MacOSX12.3.sdk/usr/include/c++/v1/locale
FN:1395,_ZNSt3__116__pad_and_outputIcNS_11char_traitsIcEEEENS_19ostreambuf_iteratorIT_T0_EES6_PKS4_S8_S8_RNS_8ios_baseES4_
FNDA:0,_ZNSt3__116__pad_and_outputIcNS_11char_traitsIcEEEENS_19ostreambuf_iteratorIT_T0_EES6_PKS4_S8_S8_RNS_8ios_baseES4_
DA:1395,0
DA:1399,0
DA:1400,0
DA:1401,0
DA:1402,0
DA:1403,0
DA:1404,0
DA:1406,0
DA:1407,0
DA:1408,0
DA:1410,0
DA:1412,0
DA:1413,0
DA:1415,0
DA:1416,0
DA:1418,0
DA:1419,0
DA:1421,0
DA:1422,0
DA:1424,0
DA:1425,0
DA:1426,0
DA:1428,0
DA:1430,0
DA:1431,0
DA:1433,0
DA:1434,0
DA:1435,0
DA:1436,0
FNF:1
FNH:0
LF:29
LH:0
end_of_record
SF:/Library/Developer/CommandLineTools/SDKs/MacOSX12.3.sdk/usr/include/c++/v1/__memory/allocator.h
FN:74,_ZNSt3__116__non_trivial_ifILb1ENS_9allocatorIcEEEC2Ev
FNDA:1350,_ZNSt3__116__non_trivial_ifILb1ENS_9allocatorIcEEEC2Ev
FN:94,_ZNSt3__19allocatorIcEC2Ev
FNDA:1350,_ZNSt3__19allocatorIcEC2Ev
DA:74,1350
DA:94,1350
FNF:2
FNH:2
LF:2
LH:2
end_of_record
SF:/Library/Developer/CommandLineTools/SDKs/MacOSX12.3.sdk/usr/include/c++/v1/string
FN:840,_ZNSt3__112basic_stringIcNS_11char_traitsIcEENS_9allocatorIcEEEC1IDnEEPKc
FNDA:1350,_ZNSt3__112basic_stringIcNS_11char_traitsIcEENS_9allocatorIcEEEC1IDnEEPKc
FN:840,_ZNSt3__112basic_stringIcNS_11char_traitsIcEENS_9allocatorIcEEEC2IDnEEPKc
FNDA:1350,_ZNSt3__112basic_stringIcNS_11char_traitsIcEENS_9allocatorIcEEEC2IDnEEPKc
FN:1263,_ZNKSt3__112basic_stringIcNS_11char_traitsIcEENS_9allocatorIcEEE5c_strEv
FNDA:0,_ZNKSt3__112basic_stringIcNS_11char_traitsIcEENS_9allocatorIcEEE5c_strEv
FN:1265,_ZNKSt3__112basic_stringIcNS_11char_traitsIcEENS_9allocatorIcEEE4dataEv
FNDA:0,_ZNKSt3__112basic_stringIcNS_11char_traitsIcEENS_9allocatorIcEEE4dataEv
FN:1458,_ZNKSt3__112basic_stringIcNS_11char_traitsIcEENS_9allocatorIcEEE9__is_longEv
FNDA:0,_ZNKSt3__112basic_stringIcNS_11char_traitsIcEENS_9allocatorIcEEE9__is_longEv
FN:1540,_ZNKSt3__112basic_stringIcNS_11char_traitsIcEENS_9allocatorIcEEE18__get_long_pointerEv
FNDA:0,_ZNKSt3__112basic_stringIcNS_11char_traitsIcEENS_9allocatorIcEEE18__get_long_pointerEv
FN:1546,_ZNKSt3__112basic_stringIcNS_11char_traitsIcEENS_9allocatorIcEEE19__get_short_pointerEv
FNDA:0,_ZNKSt3__112basic_stringIcNS_11char_traitsIcEENS_9allocatorIcEEE19__get_short_pointerEv
FN:1552,_ZNKSt3__112basic_stringIcNS_11char_traitsIcEENS_9allocatorIcEEE13__get_pointerEv
FNDA:0,_ZNKSt3__112basic_stringIcNS_11char_traitsIcEENS_9allocatorIcEEE13__get_pointerEv
FN:1556,_ZNSt3__112basic_stringIcNS_11char_traitsIcEENS_9allocatorIcEEE6__zeroEv
FNDA:0,_ZNSt3__112basic_stringIcNS_11char_traitsIcEENS_9allocatorIcEEE6__zeroEv
FN:1829,_ZNSt3__112basic_stringIcNS_11char_traitsIcEENS_9allocatorIcEEEC1Ev
FNDA:0,_ZNSt3__112basic_stringIcNS_11char_traitsIcEENS_9allocatorIcEEEC1Ev
FN:1829,_ZNSt3__112basic_stringIcNS_11char_traitsIcEENS_9allocatorIcEEEC2Ev
FNDA:0,_ZNSt3__112basic_stringIcNS_11char_traitsIcEENS_9allocatorIcEEEC2Ev
FN:2056,_ZNSt3__112basic_stringIcNS_11char_traitsIcEENS_9allocatorIcEEEC1Emc
FNDA:0,_ZNSt3__112basic_stringIcNS_11char_traitsIcEENS_9allocatorIcEEEC1Emc
FN:2056,_ZNSt3__112basic_stringIcNS_11char_traitsIcEENS_9allocatorIcEEEC2Emc
FNDA:0,_ZNSt3__112basic_stringIcNS_11char_traitsIcEENS_9allocatorIcEEEC2Emc
DA:840,2700
DA:842,1350
DA:846,2700
DA:1263,0
DA:1265,0
DA:1458,0
DA:1459,0
DA:1540,0
DA:1541,0
DA:1546,0
DA:1547,0
DA:1552,0
DA:1553,0
DA:1556,0
DA:1558,0
DA:1559,0
DA:1560,0
DA:1561,0
DA:1829,0
DA:1831,0
DA:1832,0
DA:1836,0
DA:1837,0
DA:2056,0
DA:2057,0
DA:2058,0
DA:2059,0
DA:2063,0
FNF:13
FNH:2
LF:28
LH:3
end_of_record
SF:/Users/dogukanarat/Workspace/DevelopmentTestSystem/Binaries/Debug/Intermediate/_deps/googletest-src/googletest/include/gtest/internal/gtest-port.h
FN:967,_ZN7testing8internal8GTestLog9GetStreamEv
FNDA:0,_ZN7testing8internal8GTestLog9GetStreamEv
FN:1065,_ZN7testing8internal13ImplicitCast_IPKvEET_S4_
FNDA:0,_ZN7testing8internal13ImplicitCast_IPKvEET_S4_
DA:967,0
DA:1065,0
DA:1066,0
FNF:2
FNH:0
LF:3
LH:0
end_of_record
SF:/Library/Developer/CommandLineTools/SDKs/MacOSX12.3.sdk/usr/include/c++/v1/istream
FN:191,_ZNSt3__113basic_istreamIcNS_11char_traitsIcEEEC2EPNS_15basic_streambufIcS2_EE
FNDA:0,_ZNSt3__113basic_istreamIcNS_11char_traitsIcEEEC2EPNS_15basic_streambufIcS2_EE
FN:1405,_ZNSt3__114basic_iostreamIcNS_11char_traitsIcEEEC2EPNS_15basic_streambufIcS2_EE
FNDA:0,_ZNSt3__114basic_iostreamIcNS_11char_traitsIcEEEC2EPNS_15basic_streambufIcS2_EE
DA:191,0
DA:192,0
DA:1405,0
DA:1406,0
DA:1407,0
FNF:2
FNH:0
LF:5
LH:0
end_of_record
SF:/Users/dogukanarat/Workspace/DevelopmentTestSystem/Binaries/Debug/Intermediate/_deps/googletest-src/googletest/include/gtest/gtest-assertion-result.h
FN:133,_ZN7testing15AssertionResultD1Ev
FNDA:0,_ZN7testing15AssertionResultD1Ev
FN:133,_ZN7testing15AssertionResultD2Ev
FNDA:0,_ZN7testing15AssertionResultD2Ev
FN:174,_ZNK7testing15AssertionResultcvbEv
FNDA:0,_ZNK7testing15AssertionResultcvbEv
FN:183,_ZNK7testing15AssertionResult7messageEv
FNDA:0,_ZNK7testing15AssertionResult7messageEv
FN:187,_ZNK7testing15AssertionResult15failure_messageEv
FNDA:0,_ZNK7testing15AssertionResult15failure_messageEv
DA:174,0
DA:183,0
DA:184,0
DA:187,0
FNF:5
FNH:0
LF:4
LH:0
end_of_record
SF:/Library/Developer/CommandLineTools/SDKs/MacOSX12.3.sdk/usr/include/c++/v1/ios
FN:344,_ZNSt3__18ios_baseC2Ev
FNDA:0,_ZNSt3__18ios_baseC2Ev
FN:348,_ZNKSt3__18ios_base5rdbufEv
FNDA:0,_ZNKSt3__18ios_base5rdbufEv
FN:459,_ZNKSt3__18ios_base5flagsEv
FNDA:0,_ZNKSt3__18ios_base5flagsEv
FN:521,_ZNKSt3__18ios_base5widthEv
FNDA:0,_ZNKSt3__18ios_base5widthEv
FN:528,_ZNSt3__18ios_base5widthEl
FNDA:0,_ZNSt3__18ios_base5widthEl
FN:546,_ZNSt3__18ios_base8setstateEj
FNDA:0,_ZNSt3__18ios_base8setstateEj
FN:623,_ZNSt3__19basic_iosIcNS_11char_traitsIcEEE8setstateEj
FNDA:0,_ZNSt3__19basic_iosIcNS_11char_traitsIcEEE8setstateEj
FN:665,_ZNSt3__19basic_iosIcNS_11char_traitsIcEEEC2Ev
FNDA:0,_ZNSt3__19basic_iosIcNS_11char_traitsIcEEEC2Ev
FN:698,_ZNSt3__19basic_iosIcNS_11char_traitsIcEEE4initEPNS_15basic_streambufIcS2_EE
FNDA:0,_ZNSt3__19basic_iosIcNS_11char_traitsIcEEE4initEPNS_15basic_streambufIcS2_EE
FN:726,_ZNKSt3__19basic_iosIcNS_11char_traitsIcEEE5rdbufEv
FNDA:0,_ZNKSt3__19basic_iosIcNS_11char_traitsIcEEE5rdbufEv
FN:764,_ZNKSt3__19basic_iosIcNS_11char_traitsIcEEE5widenEc
FNDA:0,_ZNKSt3__19basic_iosIcNS_11char_traitsIcEEE5widenEc
FN:772,_ZNKSt3__19basic_iosIcNS_11char_traitsIcEEE4fillEv
FNDA:0,_ZNKSt3__19basic_iosIcNS_11char_traitsIcEEE4fillEv
DA:344,0
DA:345,0
DA:348,0
DA:459,0
DA:461,0
DA:521,0
DA:523,0
DA:528,0
DA:530,0
DA:531,0
DA:532,0
DA:546,0
DA:548,0
DA:549,0
DA:623,0
DA:665,0
DA:666,0
DA:698,0
DA:700,0
DA:701,0
DA:702,0
DA:703,0
DA:726,0
DA:728,0
DA:764,0
DA:766,0
DA:767,0
DA:772,0
DA:774,0
DA:775,0
DA:776,0
FNF:12
FNH:0
LF:31
LH:0
end_of_record
SF:/Library/Developer/CommandLineTools/SDKs/MacOSX12.3.sdk/usr/include/c++/v1/sstream
FN:227,_ZNSt3__115basic_stringbufIcNS_11char_traitsIcEENS_9allocatorIcEEEC1Ej
FNDA:0,_ZNSt3__115basic_stringbufIcNS_11char_traitsIcEENS_9allocatorIcEEEC1Ej
FN:227,_ZNSt3__115basic_stringbufIcNS_11char_traitsIcEENS_9allocatorIcEEEC2Ej
FNDA:0,_ZNSt3__115basic_stringbufIcNS_11char_traitsIcEENS_9allocatorIcEEEC2Ej
FN:802,_ZNSt3__118basic_stringstreamIcNS_11char_traitsIcEENS_9allocatorIcEEEC1Ev
FNDA:0,_ZNSt3__118basic_stringstreamIcNS_11char_traitsIcEENS_9allocatorIcEEEC1Ev
FN:842,_ZNKSt3__118basic_stringstreamIcNS_11char_traitsIcEENS_9allocatorIcEEE3strEv
FNDA:0,_ZNKSt3__118basic_stringstreamIcNS_11char_traitsIcEENS_9allocatorIcEEE3strEv
FN:861,_ZNSt3__115basic_stringbufIcNS_11char_traitsIcEENS_9allocatorIcEEED1Ev
FNDA:0,_ZNSt3__115basic_stringbufIcNS_11char_traitsIcEENS_9allocatorIcEEED1Ev
FN:861,_ZNSt3__115basic_stringbufIcNS_11char_traitsIcEENS_9allocatorIcEEED2Ev
FNDA:0,_ZNSt3__115basic_stringbufIcNS_11char_traitsIcEENS_9allocatorIcEEED2Ev
FN:862,_ZNSt3__118basic_stringstreamIcNS_11char_traitsIcEENS_9allocatorIcEEED1Ev
FNDA:0,_ZNSt3__118basic_stringstreamIcNS_11char_traitsIcEENS_9allocatorIcEEED1Ev
FN:862,_ZNSt3__118basic_stringstreamIcNS_11char_traitsIcEENS_9allocatorIcEEED2Ev
FNDA:0,_ZNSt3__118basic_stringstreamIcNS_11char_traitsIcEENS_9allocatorIcEEED2Ev
DA:227,0
DA:228,0
DA:802,0
DA:803,0
DA:842,0
DA:843,0
FNF:8
FNH:0
LF:6
LH:0
end_of_record
SF:/Library/Developer/CommandLineTools/SDKs/MacOSX12.3.sdk/usr/include/c++/v1/__memory/addressof.h
FN:30,_ZNSt3__1L9addressofIKcEEPT_RS2_
FNDA:0,_ZNSt3__1L9addressofIKcEEPT_RS2_
DA:30,0
DA:32,0
FNF:1
FNH:0
LF:2
LH:0
end_of_record
TN:
SF:/Users/dogukanarat/Workspace/DevelopmentTestSystem/Libraries/DtsCommon/DtsServer.c
FN:3,dtsServerInitialize
FNDA:6,dtsServerInitialize
FN:72,dtsServerMain
FNDA:3,dtsServerMain
FN:99,dtsServerResolverMain
FNDA:3,dtsServerResolverMain
FN:137,dtsServerProcessStateTransition
FNDA:3,dtsServerProcessStateTransition
FN:159,dtsServerMonitorMain
FNDA:3,dtsServerMonitorMain
FN:184,dtsServerUpdateMain
FNDA:3,dtsServerUpdateMain
DA:3,6
DA:12,6
DA:14,6
DA:16,12
DA:17,6
DA:18,6
DA:19,6
DA:21,6
DA:22,6
DA:24,6
DA:26,6
DA:27,6
DA:29,6
DA:31,6
DA:32,6
DA:33,6
DA:34,6
DA:37,6
DA:39,6
DA:41,6
DA:42,6
DA:43,6
DA:44,6
DA:47,6
DA:49,6
DA:51,6
DA:52,6
DA:53,6
DA:54,6
DA:55,6
DA:56,6
DA:57,6
DA:58,6
DA:61,0
DA:63,6
DA:66,0
DA:69,6
DA:72,3
DA:74,3
DA:75,3
DA:76,3
DA:77,3
DA:78,3
DA:80,3
DA:82,3
DA:84,3
DA:86,3
DA:89,6
DA:90,3
DA:91,3
DA:93,3
DA:94,3
DA:96,3
DA:99,3
DA:101,3
DA:103,3
DA:105,3
DA:107,3
DA:109,3
DA:111,3
DA:113,3
DA:115,3
DA:116,3
DA:119,0
DA:122,3
DA:123,3
DA:126,0
DA:128,3
DA:131,0
DA:134,3
DA:137,3
DA:139,3
DA:141,3
DA:143,3
DA:144,3
DA:146,3
DA:147,3
DA:149,3
DA:150,3
DA:153,0
DA:156,3
DA:159,3
DA:161,3
DA:163,3
DA:165,3
DA:167,3
DA:168,3
DA:169,3
DA:170,3
DA:173,0
DA:175,3
DA:178,0
DA:181,3
DA:184,3
DA:186,3
FNF:6
FNH:6
LF:95
LH:87
end_of_record
TN:
SF:/Users/dogukanarat/Workspace/DevelopmentTestSystem/Libraries/DtsCommon/DtsParameterController.c
FN:3,dtsParameterControllerInitialize
FNDA:66,dtsParameterControllerInitialize
FN:27,dtsParameterControllerFind
FNDA:45,dtsParameterControllerFind
DA:3,66
DA:5,66
DA:7,66
DA:9,66
DA:10,66
DA:11,66
DA:12,66
DA:13,66
DA:16,0
DA:18,0
DA:19,0
DA:21,0
DA:24,66
DA:27,45
DA:29,45
DA:31,45
DA:33,45
DA:35,90
DA:37,90
DA:39,45
DA:40,45
DA:41,45
DA:45,45
DA:47,45
DA:48,45
DA:51,0
DA:54,45
FNF:2
FNH:2
LF:27
LH:22
end_of_record
TN:
SF:/Users/dogukanarat/Workspace/DevelopmentTestSystem/Libraries/DtsCommon/DtsUtilities.c
FN:4,dtsMemSet
FNDA:3,dtsMemSet
FN:9,dtsMemCopy
FNDA:1341,dtsMemCopy
FN:14,dtsSwap
FNDA:3,dtsSwap
DA:4,3
DA:6,3
DA:9,1341
DA:11,1341
DA:14,3
DA:16,3
DA:18,3
DA:20,3
DA:21,3
DA:22,3
DA:23,6
DA:25,3
DA:26,3
DA:27,3
DA:28,3
DA:29,3
DA:30,3
DA:33,0
DA:36,3
FNF:3
FNH:3
LF:19
LH:18
end_of_record
TN:
SF:/Users/dogukanarat/Workspace/DevelopmentTestSystem/Libraries/DtsCommon/DtsProtocol.c
FN:8,dtsProtocolSetHeader
FNDA:21,dtsProtocolSetHeader
FN:24,dtsProtocolCreateDiscoveryMessage
FNDA:9,dtsProtocolCreateDiscoveryMessage
FN:40,dtsProtocolResolveDiscoveryMessage
FNDA:6,dtsProtocolResolveDiscoveryMessage
FN:73,dtsProtocolSetValue
FNDA:93,dtsProtocolSetValue
FN:89,dtsProtocolSetParameter
FNDA:30,dtsProtocolSetParameter
FN:104,dtsProtocolCreateMonitorMessage
FNDA:9,dtsProtocolCreateMonitorMessage
FN:158,dtsProtocolResolveMonitorMessage
FNDA:3,dtsProtocolResolveMonitorMessage
DA:8,21
DA:10,21
DA:12,21
DA:14,21
DA:15,21
DA:18,0
DA:21,21
DA:24,9
DA:26,9
DA:28,9
DA:30,9
DA:31,9
DA:34,0
DA:37,9
DA:40,6
DA:42,6
DA:43,6
DA:45,6
DA:47,6
DA:49,6
DA:51,6
DA:53,6
DA:54,6
DA:57,0
DA:59,6
DA:62,0
DA:64,6
DA:67,0
DA:70,6
DA:73,93
DA:75,93
DA:77,93
DA:79,93
DA:80,93
DA:83,0
DA:86,93
DA:89,30
DA:91,30
DA:93,30
DA:95,30
DA:97,30
DA:99,30
DA:100,30
DA:101,30
DA:104,9
DA:106,9
DA:108,9
DA:111,9
DA:112,9
DA:114,9
DA:116,9
DA:117,9
DA:121,9
DA:123,9
DA:125,9
DA:126,9
DA:128,9
DA:130,9
DA:132,36
DA:134,27
DA:136,27
DA:137,27
DA:138,27
DA:146,9
DA:147,9
DA:150,0
DA:155,9
DA:158,3
DA:160,3
DA:161,3
DA:162,3
DA:164,3
DA:166,3
DA:168,3
DA:170,3
DA:171,3
DA:174,0
DA:177,3
DA:179,12
DA:181,9
DA:182,9
DA:183,9
DA:184,9
DA:186,9
DA:188,9
DA:190,9
DA:191,9
DA:194,0
DA:197,9
DA:199,9
DA:200,9
DA:202,9
DA:204,9
DA:205,9
DA:207,9
DA:209,9
DA:210,9
DA:213,9
DA:214,3
DA:217,0
DA:219,3
DA:222,0
DA:225,3
FNF:7
FNH:7
LF:103
LH:92
end_of_record
TN:
SF:/Users/dogukanarat/Workspace/DevelopmentTestSystem/Libraries/DtsCommon/DtsUpdate.c
FN:4,dtsUpdateForBool
FNDA:6,dtsUpdateForBool
FN:38,dtsUpdateForInt32
FNDA:6,dtsUpdateForInt32
FN:73,dtsUpdateForFloat64
FNDA:6,dtsUpdateForFloat64
DA:4,6
DA:6,6
DA:8,6
DA:10,6
DA:11,6
DA:14,12
DA:15,6
DA:16,6
DA:18,3
DA:19,3
DA:22,3
DA:24,6
DA:27,0
DA:29,6
DA:32,0
DA:35,6
DA:38,6
DA:40,6
DA:42,6
DA:44,6
DA:46,6
DA:49,12
DA:50,6
DA:51,6
DA:53,3
DA:54,3
DA:57,3
DA:59,6
DA:62,0
DA:64,6
DA:67,0
DA:70,6
DA:73,6
DA:75,6
DA:77,6
DA:79,6
DA:81,6
DA:84,12
DA:85,6
DA:86,6
DA:88,3
DA:89,3
DA:90,3
DA:92,3
DA:95,3
DA:96,3
DA:97,3
DA:100,6
DA:103,0
DA:104,0
DA:105,0
DA:108,6
DA:111,0
DA:112,0
DA:113,0
DA:117,6
FNF:3
FNH:3
LF:56
LH:46
end_of_record
TN:
SF:/Users/dogukanarat/Workspace/DevelopmentTestSystem/Libraries/DtsCommon/DtsIterator.c
FN:5,dtsIteratorInitialize
FNDA:96,dtsIteratorInitialize
FN:58,dtsIteratorGetSize
FNDA:3,dtsIteratorGetSize
FN:63,dtsIteratorReset
FNDA:3,dtsIteratorReset
FN:80,dtsIteratorReserve
FNDA:12,dtsIteratorReserve
FN:105,dtsIteratorWrite
FNDA:894,dtsIteratorWrite
FN:140,dtsIteratorRead
FNDA:435,dtsIteratorRead
FN:175,dtsIteratorNext
FNDA:75,dtsIteratorNext
FN:205,dtsIteratorPrevious
FNDA:0,dtsIteratorPrevious
DA:5,96
DA:13,96
DA:15,96
DA:17,87
DA:19,87
DA:21,12
DA:22,12
DA:25,87
DA:27,12
DA:28,12
DA:31,75
DA:34,87
DA:36,87
DA:37,87
DA:38,87
DA:39,87
DA:40,87
DA:41,87
DA:42,87
DA:43,87
DA:44,87
DA:47,9
DA:49,6
DA:50,6
DA:52,9
DA:55,96
DA:58,3
DA:60,3
DA:63,3
DA:65,3
DA:67,3
DA:69,3
DA:70,3
DA:71,3
DA:74,0
DA:77,3
DA:80,12
DA:82,12
DA:84,12
DA:86,12
DA:88,12
DA:89,12
DA:90,12
DA:91,12
DA:94,0
DA:96,12
DA:99,0
DA:102,12
DA:105,894
DA:107,894
DA:110,1782
DA:111,894
DA:112,891
DA:113,888
DA:114,888
DA:117,888
DA:119,885
DA:120,885
DA:122,885
DA:124,885
DA:125,885
DA:126,885
DA:129,3
DA:131,888
DA:134,6
DA:137,894
DA:140,435
DA:142,435
DA:145,864
DA:146,435
DA:147,432
DA:148,429
DA:149,429
DA:152,429
DA:154,426
DA:155,426
DA:157,426
DA:159,426
DA:160,426
DA:161,426
DA:164,3
DA:166,429
DA:169,6
DA:172,435
DA:175,75
DA:177,75
DA:180,150
DA:181,75
DA:182,75
DA:183,75
DA:186,75
DA:188,63
DA:189,63
DA:190,63
DA:191,63
DA:194,12
DA:196,75
DA:199,0
DA:202,75
DA:205,0
DA:207,0
DA:232,0
FNF:8
FNH:7
LF:102
LH:95
end_of_record
TN:
SF:/Users/dogukanarat/Workspace/DevelopmentTestSystem/Libraries/DtsCommon/DtsCircularBuffer.c
FN:4,dtsCircularBufferInitialize
FNDA:15,dtsCircularBufferInitialize
FN:15,dtsCircularBufferSetBuffer
FNDA:12,dtsCircularBufferSetBuffer
FN:37,dtsCircularBufferClear
FNDA:3,dtsCircularBufferClear
FN:57,dtsCircularBufferPush
FNDA:6,dtsCircularBufferPush
FN:118,dtsCircularBufferPop
FNDA:3,dtsCircularBufferPop
DA:4,15
DA:6,15
DA:7,15
DA:8,15
DA:9,15
DA:10,15
DA:12,15
DA:15,12
DA:17,12
DA:19,12
DA:21,0
DA:22,0
DA:25,12
DA:26,12
DA:27,12
DA:28,12
DA:29,12
DA:31,12
DA:34,12
DA:37,3
DA:39,3
DA:41,3
DA:43,0
DA:44,0
DA:47,3
DA:48,3
DA:49,3
DA:51,3
DA:54,3
DA:57,6
DA:59,6
DA:61,6
DA:63,0
DA:64,0
DA:65,6
DA:67,0
DA:68,0
DA:69,6
DA:71,0
DA:72,0
DA:75,6
DA:76,6
DA:78,6
DA:80,0
DA:81,0
DA:82,0
DA:85,6
DA:86,6
DA:89,6
DA:90,6
DA:91,6
DA:92,6
DA:94,6
DA:95,6
DA:97,0
DA:98,0
DA:100,6
DA:102,0
DA:103,0
DA:104,0
DA:105,0
DA:107,0
DA:108,0
DA:110,6
DA:112,6
DA:115,6
DA:118,3
DA:120,3
DA:122,3
DA:124,0
DA:125,0
DA:126,3
DA:128,0
DA:129,0
DA:130,3
DA:132,0
DA:133,0
DA:136,3
DA:137,3
DA:139,3
DA:141,0
DA:142,0
DA:143,0
DA:146,3
DA:147,3
DA:150,3
DA:151,3
DA:152,3
DA:153,3
DA:155,3
DA:156,3
DA:158,0
DA:159,0
DA:161,3
DA:163,0
DA:164,0
DA:165,0
DA:166,0
DA:168,0
DA:169,0
DA:171,3
DA:173,3
DA:176,3
FNF:5
FNH:5
LF:103
LH:65
end_of_record
TN:
SF:/Users/dogukanarat/Workspace/DevelopmentTestSystem/Libraries/DtsCommon/DtsMonitor.c
FN:4,dtsMonitorForBool
FNDA:3,dtsMonitorForBool
FN:39,dtsMonitorForInt32
FNDA:3,dtsMonitorForInt32
FN:74,dtsMonitorForFloat64
FNDA:3,dtsMonitorForFloat64
DA:4,3
DA:6,3
DA:8,3
DA:10,3
DA:11,3
DA:14,3
DA:15,3
DA:18,3
DA:19,3
DA:20,3
DA:23,0
DA:25,3
DA:28,0
DA:30,3
DA:33,0
DA:36,3
DA:39,3
DA:41,3
DA:43,3
DA:45,3
DA:46,3
DA:49,3
DA:50,3
DA:53,3
DA:54,3
DA:55,3
DA:58,0
DA:60,3
DA:63,0
DA:65,3
DA:68,0
DA:71,3
DA:74,3
DA:76,3
DA:78,3
DA:80,3
DA:81,3
DA:84,3
DA:85,3
DA:88,3
DA:89,3
DA:90,3
DA:93,0
DA:95,3
DA:98,0
DA:100,3
DA:103,0
DA:106,3
FNF:3
FNH:3
LF:48
LH:39
end_of_record
TN:
SF:/Library/Developer/CommandLineTools/SDKs/MacOSX12.3.sdk/usr/include/c++/v1/__functional/hash.h
FN:37,_ZNSt3__1L10__loadwordImEET_PKv
FNDA:65612,_ZNSt3__1L10__loadwordImEET_PKv
FN:37,_ZNSt3__1L10__loadwordIjEET_PKv
FNDA:540,_ZNSt3__1L10__loadwordIjEET_PKv
FN:105,_ZNSt3__121__murmur2_or_cityhashImLm64EE8__rotateEmi
FNDA:45262,_ZNSt3__121__murmur2_or_cityhashImLm64EE8__rotateEmi
FN:109,_ZNSt3__121__murmur2_or_cityhashImLm64EE22__rotate_by_at_least_1Emi
FNDA:3960,_ZNSt3__121__murmur2_or_cityhashImLm64EE22__rotate_by_at_least_1Emi
FN:113,_ZNSt3__121__murmur2_or_cityhashImLm64EE11__shift_mixEm
FNDA:7972,_ZNSt3__121__murmur2_or_cityhashImLm64EE11__shift_mixEm
FN:117,_ZNSt3__121__murmur2_or_cityhashImLm64EE13__hash_len_16Emm
FNDA:8688,_ZNSt3__121__murmur2_or_cityhashImLm64EE13__hash_len_16Emm
FN:129,_ZNSt3__121__murmur2_or_cityhashImLm64EE18__hash_len_0_to_16EPKcm
FNDA:4230,_ZNSt3__121__murmur2_or_cityhashImLm64EE18__hash_len_0_to_16EPKcm
FN:154,_ZNSt3__121__murmur2_or_cityhashImLm64EE19__hash_len_17_to_32EPKcm
FNDA:4458,_ZNSt3__121__murmur2_or_cityhashImLm64EE19__hash_len_17_to_32EPKcm
FN:167,_ZNSt3__121__murmur2_or_cityhashImLm64EE29__weak_hash_len_32_with_seedsEmmmmmm
FNDA:0,_ZNSt3__121__murmur2_or_cityhashImLm64EE29__weak_hash_len_32_with_seedsEmmmmmm
FN:181,_ZNSt3__121__murmur2_or_cityhashImLm64EE29__weak_hash_len_32_with_seedsEPKcmm
FNDA:0,_ZNSt3__121__murmur2_or_cityhashImLm64EE29__weak_hash_len_32_with_seedsEPKcmm
FN:194,_ZNSt3__121__murmur2_or_cityhashImLm64EE19__hash_len_33_to_64EPKcm
FNDA:3986,_ZNSt3__121__murmur2_or_cityhashImLm64EE19__hash_len_33_to_64EPKcm
FN:224,_ZNSt3__121__murmur2_or_cityhashImLm64EEclEPKvm
FNDA:12674,_ZNSt3__121__murmur2_or_cityhashImLm64EEclEPKvm
DA:37,66152
DA:40,66152
DA:41,66152
DA:105,45262
DA:106,45262
DA:109,3960
DA:110,3960
DA:113,7972
DA:114,7972
DA:117,8688
DA:120,8688
DA:121,8688
DA:122,8688
DA:123,8688
DA:124,8688
DA:125,8688
DA:126,8688
DA:129,4230
DA:132,4230
DA:133,3960
DA:134,3960
DA:135,3960
DA:137,270
DA:138,270
DA:139,270
DA:140,270
DA:142,0
DA:143,0
DA:144,0
DA:145,0
DA:146,0
DA:147,0
DA:148,0
DA:149,0
DA:151,0
DA:152,4230
DA:154,4458
DA:157,4458
DA:158,4458
DA:159,4458
DA:160,4458
DA:161,8916
DA:162,4458
DA:167,0
DA:171,0
DA:172,0
DA:173,0
DA:174,0
DA:175,0
DA:176,0
DA:177,0
DA:181,0
DA:185,0
DA:186,0
DA:187,0
DA:188,0
DA:189,0
DA:190,0
DA:194,3986
DA:197,3986
DA:198,7972
DA:199,3986
DA:200,3986
DA:201,3986
DA:202,3986
DA:203,3986
DA:204,3986
DA:205,3986
DA:206,3986
DA:207,3986
DA:208,3986
DA:209,3986
DA:210,3986
DA:211,3986
DA:212,3986
DA:213,3986
DA:214,3986
DA:215,3986
DA:216,3986
DA:217,3986
DA:224,12674
DA:226,12674
DA:227,12674
DA:228,8688
DA:229,4230
DA:231,4458
DA:233,3986
DA:234,3986
DA:239,0
DA:240,0
DA:241,0
DA:242,0
DA:243,0
DA:244,0
DA:245,0
DA:246,0
DA:249,0
DA:250,0
DA:251,0
DA:252,0
DA:253,0
DA:254,0
DA:255,0
DA:256,0
DA:257,0
DA:258,0
DA:259,0
DA:260,0
DA:261,0
DA:262,0
DA:263,0
DA:264,0
DA:265,0
DA:266,12674
FNF:12
FNH:10
LF:114
LH:65
end_of_record
SF:/Library/Developer/CommandLineTools/SDKs/MacOSX12.3.sdk/usr/include/c++/v1/iomanip
FN:181,_ZNSt3__18__iom_t4IcEC1Ec
FNDA:0,_ZNSt3__18__iom_t4IcEC1Ec
FN:181,_ZNSt3__18__iom_t4IcEC2Ec
FNDA:0,_ZNSt3__18__iom_t4IcEC2Ec
FN:187,_ZNSt3__1lsINS_11char_traitsIcEEEERNS_13basic_ostreamIcT_EES6_RKNS_8__iom_t4IcEE
FNDA:0,_ZNSt3__1lsINS_11char_traitsIcEEEERNS_13basic_ostreamIcT_EES6_RKNS_8__iom_t4IcEE
FN:197,_ZNSt3__1L7setfillIcEENS_8__iom_t4IT_EES2_
FNDA:0,_ZNSt3__1L7setfillIcEENS_8__iom_t4IT_EES2_
FN:209,_ZNSt3__18__iom_t5C1Ei
FNDA:5153,_ZNSt3__18__iom_t5C1Ei
FN:209,_ZNSt3__18__iom_t5C2Ei
FNDA:5153,_ZNSt3__18__iom_t5C2Ei
FN:225,_ZNSt3__1lsIcNS_11char_traitsIcEEEERNS_13basic_ostreamIT_T0_EES7_RKNS_8__iom_t5E
FNDA:5153,_ZNSt3__1lsIcNS_11char_traitsIcEEEERNS_13basic_ostreamIT_T0_EES7_RKNS_8__iom_t5E
FN:234,_ZNSt3__1L12setprecisionEi
FNDA:5153,_ZNSt3__1L12setprecisionEi
FN:246,_ZNSt3__18__iom_t6C1Ei
FNDA:0,_ZNSt3__18__iom_t6C1Ei
FN:246,_ZNSt3__18__iom_t6C2Ei
FNDA:0,_ZNSt3__18__iom_t6C2Ei
FN:262,_ZNSt3__1lsIcNS_11char_traitsIcEEEERNS_13basic_ostreamIT_T0_EES7_RKNS_8__iom_t6E
FNDA:0,_ZNSt3__1lsIcNS_11char_traitsIcEEEERNS_13basic_ostreamIT_T0_EES7_RKNS_8__iom_t6E
FN:271,_ZNSt3__1L4setwEi
FNDA:0,_ZNSt3__1L4setwEi
DA:181,0
DA:187,0
DA:189,0
DA:190,0
DA:197,0
DA:199,0
DA:209,10306
DA:225,5153
DA:227,5153
DA:228,5153
DA:234,5153
DA:236,5153
DA:246,0
DA:262,0
DA:264,0
DA:265,0
DA:271,0
DA:273,0
FNF:12
FNH:4
LF:18
LH:6
end_of_record
SF:/Library/Developer/CommandLineTools/SDKs/MacOSX12.3.sdk/usr/include/c++/v1/type_traits
FN:4323,_ZNSt3__1L21__convert_to_integralEl
FNDA:715,_ZNSt3__1L21__convert_to_integralEl
DA:4323,715
FNF:1
FNH:1
LF:1
LH:1
end_of_record
SF:/Users/dogukanarat/Workspace/DevelopmentTestSystem/Binaries/Debug/Intermediate/_deps/googletest-src/googletest/src/gtest.cc
FN:190,_ZN7testing8internalL18OpenFileForWritingERKNSt3__112basic_stringIcNS1_11char_traitsIcEENS1_9allocatorIcEEEE
FNDA:0,_ZN7testing8internalL18OpenFileForWritingERKNSt3__112basic_stringIcNS1_11char_traitsIcEENS1_9allocatorIcEEEE
FN:208,_ZN7testingL16GetDefaultFilterEv
FNDA:90,_ZN7testingL16GetDefaultFilterEv
FN:219,_ZN7testingL18GetDefaultFailFastEv
FNDA:90,_ZN7testingL18GetDefaultFailFastEv
FN:378,_ZN7testing8internal6Random8GenerateEj
FNDA:0,_ZN7testing8internal6Random8GenerateEj
FN:397,_ZN7testing8internalL18GTestIsInitializedEv
FNDA:180,_ZN7testing8internalL18GTestIsInitializedEv
FN:402,_ZN7testing8internalL20SumOverTestSuiteListERKNSt3__16vectorIPNS_9TestSuiteENS1_9allocatorIS4_EEEEMS3_KFivE
FNDA:435,_ZN7testing8internalL20SumOverTestSuiteListERKNSt3__16vectorIPNS_9TestSuiteENS1_9allocatorIS4_EEEEMS3_KFivE
FN:412,_ZN7testing8internalL15TestSuitePassedEPKNS_9TestSuiteE
FNDA:0,_ZN7testing8internalL15TestSuitePassedEPKNS_9TestSuiteE
FN:417,_ZN7testing8internalL15TestSuiteFailedEPKNS_9TestSuiteE
FNDA:1392,_ZN7testing8internalL15TestSuiteFailedEPKNS_9TestSuiteE
FN:423,_ZN7testing8internalL18ShouldRunTestSuiteEPKNS_9TestSuiteE
FNDA:1392,_ZN7testing8internalL18ShouldRunTestSuiteEPKNS_9TestSuiteE
FN:428,_ZN7testing8internal12AssertHelperC1ENS_14TestPartResult4TypeEPKciS5_
FNDA:0,_ZN7testing8internal12AssertHelperC1ENS_14TestPartResult4TypeEPKciS5_
FN:428,_ZN7testing8internal12AssertHelperC2ENS_14TestPartResult4TypeEPKciS5_
FNDA:0,_ZN7testing8internal12AssertHelperC2ENS_14TestPartResult4TypeEPKciS5_
FN:432,_ZN7testing8internal12AssertHelperD1Ev
FNDA:0,_ZN7testing8internal12AssertHelperD1Ev
FN:432,_ZN7testing8internal12AssertHelperD2Ev
FNDA:0,_ZN7testing8internal12AssertHelperD2Ev
FN:435,_ZNK7testing8internal12AssertHelperaSERKNS_7MessageE
FNDA:0,_ZNK7testing8internal12AssertHelperaSERKNS_7MessageE
FN:455,_ZN7testing8internal12_GLOBAL__N_111FailureTestD1Ev
FNDA:0,_ZN7testing8internal12_GLOBAL__N_111FailureTestD1Ev
FN:455,_ZN7testing8internal12_GLOBAL__N_111FailureTestD0Ev
FNDA:0,_ZN7testing8internal12_GLOBAL__N_111FailureTestD0Ev
FN:455,_ZN7testing8internal12_GLOBAL__N_111FailureTestD2Ev
FNDA:0,_ZN7testing8internal12_GLOBAL__N_111FailureTestD2Ev
FN:457,_ZN7testing8internal12_GLOBAL__N_111FailureTestC1ERKNS0_12CodeLocationENSt3__112basic_stringIcNS6_11char_traitsIcEENS6_9allocatorIcEEEEb
FNDA:0,_ZN7testing8internal12_GLOBAL__N_111FailureTestC1ERKNS0_12CodeLocationENSt3__112basic_stringIcNS6_11char_traitsIcEENS6_9allocatorIcEEEEb
FN:457,_ZN7testing8internal12_GLOBAL__N_111FailureTestC2ERKNS0_12CodeLocationENSt3__112basic_stringIcNS6_11char_traitsIcEENS6_9allocatorIcEEEEb
FNDA:0,_ZN7testing8internal12_GLOBAL__N_111FailureTestC2ERKNS0_12CodeLocationENSt3__112basic_stringIcNS6_11char_traitsIcEENS6_9allocatorIcEEEEb
FN:463,_ZN7testing8internal12_GLOBAL__N_111FailureTest8TestBodyEv
FNDA:0,_ZN7testing8internal12_GLOBAL__N_111FailureTest8TestBodyEv
FN:480,_ZN7testing8internal33GetIgnoredParameterizedTestSuitesEv
FNDA:90,_ZN7testing8internal33GetIgnoredParameterizedTestSuitesEv
FN:485,_ZN7testing8internal13MarkAsIgnoredC2EPKc
FNDA:0,_ZN7testing8internal13MarkAsIgnoredC2EPKc
FN:485,_ZN7testing8internal13MarkAsIgnoredC1EPKc
FNDA:0,_ZN7testing8internal13MarkAsIgnoredC1EPKc
FN:491,_ZN7testing8internal23InsertSyntheticTestCaseERKNSt3__112basic_stringIcNS1_11char_traitsIcEENS1_9allocatorIcEEEENS0_12CodeLocationEb
FNDA:0,_ZN7testing8internal23InsertSyntheticTestCaseERKNSt3__112basic_stringIcNS1_11char_traitsIcEENS1_9allocatorIcEEEENS0_12CodeLocationEb
FN:529,_ZZN7testing8internal23InsertSyntheticTestCaseERKNSt3__112basic_stringIcNS1_11char_traitsIcEENS1_9allocatorIcEEEENS0_12CodeLocationEbEN3$_0D1Ev
FNDA:0,_ZZN7testing8internal23InsertSyntheticTestCaseERKNSt3__112basic_stringIcNS1_11char_traitsIcEENS1_9allocatorIcEEEENS0_12CodeLocationEbEN3$_0D1Ev
FN:529,_ZZN7testing8internal23InsertSyntheticTestCaseERKNSt3__112basic_stringIcNS1_11char_traitsIcEENS1_9allocatorIcEEEENS0_12CodeLocationEbEN3$_0D2Ev
FNDA:0,_ZZN7testing8internal23InsertSyntheticTestCaseERKNSt3__112basic_stringIcNS1_11char_traitsIcEENS1_9allocatorIcEEEENS0_12CodeLocationEbEN3$_0D2Ev
FN:529,_ZZN7testing8internal23InsertSyntheticTestCaseERKNSt3__112basic_stringIcNS1_11char_traitsIcEENS1_9allocatorIcEEEENS0_12CodeLocationEbEN3$_0C1EOSB_
FNDA:0,_ZZN7testing8internal23InsertSyntheticTestCaseERKNSt3__112basic_stringIcNS1_11char_traitsIcEENS1_9allocatorIcEEEENS0_12CodeLocationEbEN3$_0C1EOSB_
FN:529,_ZZN7testing8internal23InsertSyntheticTestCaseERKNSt3__112basic_stringIcNS1_11char_traitsIcEENS1_9allocatorIcEEEENS0_12CodeLocationEbEN3$_0C2EOSB_
FNDA:0,_ZZN7testing8internal23InsertSyntheticTestCaseERKNSt3__112basic_stringIcNS1_11char_traitsIcEENS1_9allocatorIcEEEENS0_12CodeLocationEbEN3$_0C2EOSB_
FN:529,_ZZN7testing8internal23InsertSyntheticTestCaseERKNSt3__112basic_stringIcNS1_11char_traitsIcEENS1_9allocatorIcEEEENS0_12CodeLocationEbENK3$_0clEv
FNDA:0,_ZZN7testing8internal23InsertSyntheticTestCaseERKNSt3__112basic_stringIcNS1_11char_traitsIcEENS1_9allocatorIcEEEENS0_12CodeLocationEbENK3$_0clEv
FN:535,_ZN7testing8internal34RegisterTypeParameterizedTestSuiteEPKcNS0_12CodeLocationE
FNDA:0,_ZN7testing8internal34RegisterTypeParameterizedTestSuiteEPKcNS0_12CodeLocationE
FN:541,_ZN7testing8internal47RegisterTypeParameterizedTestSuiteInstantiationEPKc
FNDA:0,_ZN7testing8internal47RegisterTypeParameterizedTestSuiteInstantiationEPKc
FN:546,_ZN7testing8internal34TypeParameterizedTestSuiteRegistry17RegisterTestSuiteEPKcNS0_12CodeLocationE
FNDA:0,_ZN7testing8internal34TypeParameterizedTestSuiteRegistry17RegisterTestSuiteEPKcNS0_12CodeLocationE
FN:552,_ZN7testing8internal34TypeParameterizedTestSuiteRegistry21RegisterInstantiationEPKc
FNDA:0,_ZN7testing8internal34TypeParameterizedTestSuiteRegistry21RegisterInstantiationEPKc
FN:563,_ZN7testing8internal34TypeParameterizedTestSuiteRegistry22CheckForInstantiationsEv
FNDA:90,_ZN7testing8internal34TypeParameterizedTestSuiteRegistry22CheckForInstantiationsEv
FN:592,_ZZN7testing8internal34TypeParameterizedTestSuiteRegistry22CheckForInstantiationsEvEN3$_1D1Ev
FNDA:0,_ZZN7testing8internal34TypeParameterizedTestSuiteRegistry22CheckForInstantiationsEvEN3$_1D1Ev
FN:592,_ZZN7testing8internal34TypeParameterizedTestSuiteRegistry22CheckForInstantiationsEvEN3$_1D2Ev
FNDA:0,_ZZN7testing8internal34TypeParameterizedTestSuiteRegistry22CheckForInstantiationsEvEN3$_1D2Ev
FN:592,_ZZN7testing8internal34TypeParameterizedTestSuiteRegistry22CheckForInstantiationsEvEN3$_1C1EOS2_
FNDA:0,_ZZN7testing8internal34TypeParameterizedTestSuiteRegistry22CheckForInstantiationsEvEN3$_1C1EOS2_
FN:592,_ZZN7testing8internal34TypeParameterizedTestSuiteRegistry22CheckForInstantiationsEvEN3$_1C2EOS2_
FNDA:0,_ZZN7testing8internal34TypeParameterizedTestSuiteRegistry22CheckForInstantiationsEvEN3$_1C2EOS2_
FN:592,_ZZN7testing8internal34TypeParameterizedTestSuiteRegistry22CheckForInstantiationsEvENK3$_1clEv
FNDA:0,_ZZN7testing8internal34TypeParameterizedTestSuiteRegistry22CheckForInstantiationsEvENK3$_1clEv
FN:602,_ZN7testing8internal8GetArgvsEv
FNDA:180,_ZN7testing8internal8GetArgvsEv
FN:615,_ZN7testing8internal24GetCurrentExecutableNameEv
FNDA:0,_ZN7testing8internal24GetCurrentExecutableNameEv
FN:630,_ZN7testing8internal15UnitTestOptions15GetOutputFormatEv
FNDA:93,_ZN7testing8internal15UnitTestOptions15GetOutputFormatEv
FN:642,_ZN7testing8internal15UnitTestOptions27GetAbsolutePathToOutputFileEv
FNDA:0,_ZN7testing8internal15UnitTestOptions27GetAbsolutePathToOutputFileEv
FN:677,_ZN7testing8internalL20PatternMatchesStringERKNSt3__112basic_stringIcNS1_11char_traitsIcEENS1_9allocatorIcEEEEPKcSB_
FNDA:17092,_ZN7testing8internalL20PatternMatchesStringERKNSt3__112basic_stringIcNS1_11char_traitsIcEENS1_9allocatorIcEEEEPKcSB_
FN:726,_ZN7testing8internal12_GLOBAL__N_113IsGlobPatternERKNSt3__112basic_stringIcNS2_11char_traitsIcEENS2_9allocatorIcEEEE
FNDA:1710,_ZN7testing8internal12_GLOBAL__N_113IsGlobPatternERKNSt3__112basic_stringIcNS2_11char_traitsIcEENS2_9allocatorIcEEEE
FN:728,_ZZN7testing8internal12_GLOBAL__N_113IsGlobPatternERKNSt3__112basic_stringIcNS2_11char_traitsIcEENS2_9allocatorIcEEEEENK3$_2clEc
FNDA:5930,_ZZN7testing8internal12_GLOBAL__N_113IsGlobPatternERKNSt3__112basic_stringIcNS2_11char_traitsIcEENS2_9allocatorIcEEEEENK3$_2clEc
FN:731,_ZN7testing8internal12_GLOBAL__N_114UnitTestFilterD1Ev
FNDA:1080,_ZN7testing8internal12_GLOBAL__N_114UnitTestFilterD1Ev
FN:731,_ZN7testing8internal12_GLOBAL__N_114UnitTestFilterD2Ev
FNDA:1080,_ZN7testing8internal12_GLOBAL__N_114UnitTestFilterD2Ev
FN:731,_ZN7testing8internal12_GLOBAL__N_114UnitTestFilteraSEOS2_
FNDA:90,_ZN7testing8internal12_GLOBAL__N_114UnitTestFilteraSEOS2_
FN:733,_ZN7testing8internal12_GLOBAL__N_114UnitTestFilterC1Ev
FNDA:180,_ZN7testing8internal12_GLOBAL__N_114UnitTestFilterC1Ev
FN:733,_ZN7testing8internal12_GLOBAL__N_114UnitTestFilterC2Ev
FNDA:180,_ZN7testing8internal12_GLOBAL__N_114UnitTestFilterC2Ev
FN:736,_ZN7testing8internal12_GLOBAL__N_114UnitTestFilterC1ERKNSt3__112basic_stringIcNS3_11char_traitsIcEENS3_9allocatorIcEEEE
FNDA:900,_ZN7testing8internal12_GLOBAL__N_114UnitTestFilterC1ERKNSt3__112basic_stringIcNS3_11char_traitsIcEENS3_9allocatorIcEEEE
FN:736,_ZN7testing8internal12_GLOBAL__N_114UnitTestFilterC2ERKNSt3__112basic_stringIcNS3_11char_traitsIcEENS3_9allocatorIcEEEE
FNDA:900,_ZN7testing8internal12_GLOBAL__N_114UnitTestFilterC2ERKNSt3__112basic_stringIcNS3_11char_traitsIcEENS3_9allocatorIcEEEE
FN:754,_ZNK7testing8internal12_GLOBAL__N_114UnitTestFilter11MatchesNameERKNSt3__112basic_stringIcNS3_11char_traitsIcEENS3_9allocatorIcEEEE
FNDA:12588,_ZNK7testing8internal12_GLOBAL__N_114UnitTestFilter11MatchesNameERKNSt3__112basic_stringIcNS3_11char_traitsIcEENS3_9allocatorIcEEEE
FN:757,_ZZNK7testing8internal12_GLOBAL__N_114UnitTestFilter11MatchesNameERKNSt3__112basic_stringIcNS3_11char_traitsIcEENS3_9allocatorIcEEEEENKUlSB_E_clESB_
FNDA:17092,_ZZNK7testing8internal12_GLOBAL__N_114UnitTestFilter11MatchesNameERKNSt3__112basic_stringIcNS3_11char_traitsIcEENS3_9allocatorIcEEEEENKUlSB_E_clESB_
FN:769,_ZN7testing8internal12_GLOBAL__N_133PositiveAndNegativeUnitTestFilterD1Ev
FNDA:90,_ZN7testing8internal12_GLOBAL__N_133PositiveAndNegativeUnitTestFilterD1Ev
FN:769,_ZN7testing8internal12_GLOBAL__N_133PositiveAndNegativeUnitTestFilterD2Ev
FNDA:90,_ZN7testing8internal12_GLOBAL__N_133PositiveAndNegativeUnitTestFilterD2Ev
FN:776,_ZN7testing8internal12_GLOBAL__N_133PositiveAndNegativeUnitTestFilterC1ERKNSt3__112basic_stringIcNS3_11char_traitsIcEENS3_9allocatorIcEEEE
FNDA:90,_ZN7testing8internal12_GLOBAL__N_133PositiveAndNegativeUnitTestFilterC1ERKNSt3__112basic_stringIcNS3_11char_traitsIcEENS3_9allocatorIcEEEE
FN:776,_ZN7testing8internal12_GLOBAL__N_133PositiveAndNegativeUnitTestFilterC2ERKNSt3__112basic_stringIcNS3_11char_traitsIcEENS3_9allocatorIcEEEE
FNDA:90,_ZN7testing8internal12_GLOBAL__N_133PositiveAndNegativeUnitTestFilterC2ERKNSt3__112basic_stringIcNS3_11char_traitsIcEENS3_9allocatorIcEEEE
FN:806,_ZNK7testing8internal12_GLOBAL__N_133PositiveAndNegativeUnitTestFilter11MatchesTestERKNSt3__112basic_stringIcNS3_11char_traitsIcEENS3_9allocatorIcEEEESB_
FNDA:3870,_ZNK7testing8internal12_GLOBAL__N_133PositiveAndNegativeUnitTestFilter11MatchesTestERKNSt3__112basic_stringIcNS3_11char_traitsIcEENS3_9allocatorIcEEEESB_
FN:813,_ZNK7testing8internal12_GLOBAL__N_133PositiveAndNegativeUnitTestFilter11MatchesNameERKNSt3__112basic_stringIcNS3_11char_traitsIcEENS3_9allocatorIcEEEE
FNDA:3870,_ZNK7testing8internal12_GLOBAL__N_133PositiveAndNegativeUnitTestFilter11MatchesNameERKNSt3__112basic_stringIcNS3_11char_traitsIcEENS3_9allocatorIcEEEE
FN:824,_ZN7testing8internal15UnitTestOptions13MatchesFilterERKNSt3__112basic_stringIcNS2_11char_traitsIcEENS2_9allocatorIcEEEEPKc
FNDA:0,_ZN7testing8internal15UnitTestOptions13MatchesFilterERKNSt3__112basic_stringIcNS2_11char_traitsIcEENS2_9allocatorIcEEEEPKc
FN:831,_ZN7testing8internal15UnitTestOptions17FilterMatchesTestERKNSt3__112basic_stringIcNS2_11char_traitsIcEENS2_9allocatorIcEEEESA_
FNDA:0,_ZN7testing8internal15UnitTestOptions17FilterMatchesTestERKNSt3__112basic_stringIcNS2_11char_traitsIcEENS2_9allocatorIcEEEESA_
FN:872,_ZN7testing32ScopedFakeTestPartResultReporterC2EPNS_19TestPartResultArrayE
FNDA:0,_ZN7testing32ScopedFakeTestPartResultReporterC2EPNS_19TestPartResultArrayE
FN:872,_ZN7testing32ScopedFakeTestPartResultReporterC1EPNS_19TestPartResultArrayE
FNDA:0,_ZN7testing32ScopedFakeTestPartResultReporterC1EPNS_19TestPartResultArrayE
FN:881,_ZN7testing32ScopedFakeTestPartResultReporterC2ENS0_13InterceptModeEPNS_19TestPartResultArrayE
FNDA:0,_ZN7testing32ScopedFakeTestPartResultReporterC2ENS0_13InterceptModeEPNS_19TestPartResultArrayE
FN:881,_ZN7testing32ScopedFakeTestPartResultReporterC1ENS0_13InterceptModeEPNS_19TestPartResultArrayE
FNDA:0,_ZN7testing32ScopedFakeTestPartResultReporterC1ENS0_13InterceptModeEPNS_19TestPartResultArrayE
FN:887,_ZN7testing32ScopedFakeTestPartResultReporter4InitEv
FNDA:0,_ZN7testing32ScopedFakeTestPartResultReporter4InitEv
FN:900,_ZN7testing32ScopedFakeTestPartResultReporterD2Ev
FNDA:0,_ZN7testing32ScopedFakeTestPartResultReporterD2Ev
FN:900,_ZN7testing32ScopedFakeTestPartResultReporterD1Ev
FNDA:0,_ZN7testing32ScopedFakeTestPartResultReporterD1Ev
FN:900,_ZN7testing32ScopedFakeTestPartResultReporterD0Ev
FNDA:0,_ZN7testing32ScopedFakeTestPartResultReporterD0Ev
FN:911,_ZN7testing32ScopedFakeTestPartResultReporter20ReportTestPartResultERKNS_14TestPartResultE
FNDA:0,_ZN7testing32ScopedFakeTestPartResultReporter20ReportTestPartResultERKNS_14TestPartResultE
FN:927,_ZN7testing8internal13GetTestTypeIdEv
FNDA:2160,_ZN7testing8internal13GetTestTypeIdEv
FN:936,_ZN7testing8internalL13HasOneFailureEPKcS2_S2_RKNS_19TestPartResultArrayENS_14TestPartResult4TypeERKNSt3__112basic_stringIcNS8_11char_traitsIcEENS8_9allocatorIcEEEE
FNDA:0,_ZN7testing8internalL13HasOneFailureEPKcS2_S2_RKNS_19TestPartResultArrayENS_14TestPartResult4TypeERKNSt3__112basic_stringIcNS8_11char_traitsIcEENS8_9allocatorIcEEEE
FN:975,_ZN7testing8internal20SingleFailureCheckerC2EPKNS_19TestPartResultArrayENS_14TestPartResult4TypeERKNSt3__112basic_stringIcNS7_11char_traitsIcEENS7_9allocatorIcEEEE
FNDA:0,_ZN7testing8internal20SingleFailureCheckerC2EPKNS_19TestPartResultArrayENS_14TestPartResult4TypeERKNSt3__112basic_stringIcNS7_11char_traitsIcEENS7_9allocatorIcEEEE
FN:975,_ZN7testing8internal20SingleFailureCheckerC1EPKNS_19TestPartResultArrayENS_14TestPartResult4TypeERKNSt3__112basic_stringIcNS7_11char_traitsIcEENS7_9allocatorIcEEEE
FNDA:0,_ZN7testing8internal20SingleFailureCheckerC1EPKNS_19TestPartResultArrayENS_14TestPartResult4TypeERKNSt3__112basic_stringIcNS7_11char_traitsIcEENS7_9allocatorIcEEEE
FN:984,_ZN7testing8internal20SingleFailureCheckerD2Ev
FNDA:0,_ZN7testing8internal20SingleFailureCheckerD2Ev
FN:984,_ZN7testing8internal20SingleFailureCheckerD1Ev
FNDA:0,_ZN7testing8internal20SingleFailureCheckerD1Ev
FN:988,_ZN7testing8internal35DefaultGlobalTestPartResultReporterC2EPNS0_12UnitTestImplE
FNDA:90,_ZN7testing8internal35DefaultGlobalTestPartResultReporterC2EPNS0_12UnitTestImplE
FN:988,_ZN7testing8internal35DefaultGlobalTestPartResultReporterC1EPNS0_12UnitTestImplE
FNDA:90,_ZN7testing8internal35DefaultGlobalTestPartResultReporterC1EPNS0_12UnitTestImplE
FN:992,_ZN7testing8internal35DefaultGlobalTestPartResultReporter20ReportTestPartResultERKNS_14TestPartResultE
FNDA:0,_ZN7testing8internal35DefaultGlobalTestPartResultReporter20ReportTestPartResultERKNS_14TestPartResultE
FN:998,_ZN7testing8internal38DefaultPerThreadTestPartResultReporterC2EPNS0_12UnitTestImplE
FNDA:90,_ZN7testing8internal38DefaultPerThreadTestPartResultReporterC2EPNS0_12UnitTestImplE
FN:998,_ZN7testing8internal38DefaultPerThreadTestPartResultReporterC1EPNS0_12UnitTestImplE
FNDA:90,_ZN7testing8internal38DefaultPerThreadTestPartResultReporterC1EPNS0_12UnitTestImplE
FN:1002,_ZN7testing8internal38DefaultPerThreadTestPartResultReporter20ReportTestPartResultERKNS_14TestPartResultE
FNDA:0,_ZN7testing8internal38DefaultPerThreadTestPartResultReporter20ReportTestPartResultERKNS_14TestPartResultE
FN:1009,_ZN7testing8internal12UnitTestImpl31GetGlobalTestPartResultReporterEv
FNDA:0,_ZN7testing8internal12UnitTestImpl31GetGlobalTestPartResultReporterEv
FN:1015,_ZN7testing8internal12UnitTestImpl31SetGlobalTestPartResultReporterEPNS_31TestPartResultReporterInterfaceE
FNDA:0,_ZN7testing8internal12UnitTestImpl31SetGlobalTestPartResultReporterEPNS_31TestPartResultReporterInterfaceE
FN:1023,_ZN7testing8internal12UnitTestImpl41GetTestPartResultReporterForCurrentThreadEv
FNDA:0,_ZN7testing8internal12UnitTestImpl41GetTestPartResultReporterForCurrentThreadEv
FN:1028,_ZN7testing8internal12UnitTestImpl41SetTestPartResultReporterForCurrentThreadEPNS_31TestPartResultReporterInterfaceE
FNDA:0,_ZN7testing8internal12UnitTestImpl41SetTestPartResultReporterForCurrentThreadEPNS_31TestPartResultReporterInterfaceE
FN:1034,_ZNK7testing8internal12UnitTestImpl27successful_test_suite_countEv
FNDA:0,_ZNK7testing8internal12UnitTestImpl27successful_test_suite_countEv
FN:1039,_ZNK7testing8internal12UnitTestImpl23failed_test_suite_countEv
FNDA:174,_ZNK7testing8internal12UnitTestImpl23failed_test_suite_countEv
FN:1044,_ZNK7testing8internal12UnitTestImpl22total_test_suite_countEv
FNDA:783,_ZNK7testing8internal12UnitTestImpl22total_test_suite_countEv
FN:1050,_ZNK7testing8internal12UnitTestImpl23test_suite_to_run_countEv
FNDA:174,_ZNK7testing8internal12UnitTestImpl23test_suite_to_run_countEv
FN:1055,_ZNK7testing8internal12UnitTestImpl21successful_test_countEv
FNDA:87,_ZNK7testing8internal12UnitTestImpl21successful_test_countEv
FN:1060,_ZNK7testing8internal12UnitTestImpl18skipped_test_countEv
FNDA:87,_ZNK7testing8internal12UnitTestImpl18skipped_test_countEv
FN:1065,_ZNK7testing8internal12UnitTestImpl17failed_test_countEv
FNDA:0,_ZNK7testing8internal12UnitTestImpl17failed_test_countEv
FN:1070,_ZNK7testing8internal12UnitTestImpl30reportable_disabled_test_countEv
FNDA:87,_ZNK7testing8internal12UnitTestImpl30reportable_disabled_test_countEv
FN:1076,_ZNK7testing8internal12UnitTestImpl19disabled_test_countEv
FNDA:0,_ZNK7testing8internal12UnitTestImpl19disabled_test_countEv
FN:1081,_ZNK7testing8internal12UnitTestImpl21reportable_test_countEv
FNDA:0,_ZNK7testing8internal12UnitTestImpl21reportable_test_countEv
FN:1086,_ZNK7testing8internal12UnitTestImpl16total_test_countEv
FNDA:0,_ZNK7testing8internal12UnitTestImpl16total_test_countEv
FN:1091,_ZNK7testing8internal12UnitTestImpl17test_to_run_countEv
FNDA:174,_ZNK7testing8internal12UnitTestImpl17test_to_run_countEv
FN:1105,_ZN7testing8internal12UnitTestImpl28CurrentOsStackTraceExceptTopEi
FNDA:0,_ZN7testing8internal12UnitTestImpl28CurrentOsStackTraceExceptTopEi
FN:1116,_ZN7testing8internal5TimerC1Ev
FNDA:310,_ZN7testing8internal5TimerC1Ev
FN:1116,_ZN7testing8internal5TimerC2Ev
FNDA:310,_ZN7testing8internal5TimerC2Ev
FN:1119,_ZN7testing8internal5Timer7ElapsedEv
FNDA:310,_ZN7testing8internal5Timer7ElapsedEv
FN:1132,_ZN7testing8internal15GetTimeInMillisEv
FNDA:397,_ZN7testing8internal15GetTimeInMillisEv
FN:1182,_ZN7testing8internal6String13CStringEqualsEPKcS3_
FNDA:1036,_ZN7testing8internal6String13CStringEqualsEPKcS3_
FN:1194,_ZN7testing8internalL24StreamWideCharsToMessageEPKwmPNS_7MessageE
FNDA:0,_ZN7testing8internalL24StreamWideCharsToMessageEPKwmPNS_7MessageE
FN:1209,_ZN7testing8internal11SplitStringERKNSt3__112basic_stringIcNS1_11char_traitsIcEENS1_9allocatorIcEEEEcPNS1_6vectorIS7_NS5_IS7_EEEE
FNDA:990,_ZN7testing8internal11SplitStringERKNSt3__112basic_stringIcNS1_11char_traitsIcEENS1_9allocatorIcEEEEcPNS1_6vectorIS7_NS5_IS7_EEEE
FN:1233,_ZN7testing7MessageC1Ev
FNDA:5153,_ZN7testing7MessageC1Ev
FN:1233,_ZN7testing7MessageC2Ev
FNDA:5153,_ZN7testing7MessageC2Ev
FN:1241,_ZN7testing7MessagelsEPKw
FNDA:0,_ZN7testing7MessagelsEPKw
FN:1244,_ZN7testing7MessagelsEPw
FNDA:0,_ZN7testing7MessagelsEPw
FN:1251,_ZN7testing7MessagelsERKNSt3__112basic_stringIwNS1_11char_traitsIwEENS1_9allocatorIwEEEE
FNDA:0,_ZN7testing7MessagelsERKNSt3__112basic_stringIwNS1_11char_traitsIwEENS1_9allocatorIwEEEE
FN:1259,_ZNK7testing7Message9GetStringEv
FNDA:5153,_ZNK7testing7Message9GetStringEv
FN:1266,_ZN7testing8internal13edit_distance21CalculateOptimalEditsERKNSt3__16vectorImNS2_9allocatorImEEEES8_
FNDA:0,_ZN7testing8internal13edit_distance21CalculateOptimalEditsERKNSt3__16vectorImNS2_9allocatorImEEEES8_
FN:1326,_ZN7testing8internal13edit_distance12_GLOBAL__N_115InternalStringsC1Ev
FNDA:0,_ZN7testing8internal13edit_distance12_GLOBAL__N_115InternalStringsC1Ev
FN:1326,_ZN7testing8internal13edit_distance12_GLOBAL__N_115InternalStringsD1Ev
FNDA:0,_ZN7testing8internal13edit_distance12_GLOBAL__N_115InternalStringsD1Ev
FN:1326,_ZN7testing8internal13edit_distance12_GLOBAL__N_115InternalStringsC2Ev
FNDA:0,_ZN7testing8internal13edit_distance12_GLOBAL__N_115InternalStringsC2Ev
FN:1326,_ZN7testing8internal13edit_distance12_GLOBAL__N_115InternalStringsD2Ev
FNDA:0,_ZN7testing8internal13edit_distance12_GLOBAL__N_115InternalStringsD2Ev
FN:1328,_ZN7testing8internal13edit_distance12_GLOBAL__N_115InternalStrings5GetIdERKNSt3__112basic_stringIcNS4_11char_traitsIcEENS4_9allocatorIcEEEE
FNDA:0,_ZN7testing8internal13edit_distance12_GLOBAL__N_115InternalStrings5GetIdERKNSt3__112basic_stringIcNS4_11char_traitsIcEENS4_9allocatorIcEEEE
FN:1342,_ZN7testing8internal13edit_distance21CalculateOptimalEditsERKNSt3__16vectorINS2_12basic_stringIcNS2_11char_traitsIcEENS2_9allocatorIcEEEENS7_IS9_EEEESD_
FNDA:0,_ZN7testing8internal13edit_distance21CalculateOptimalEditsERKNSt3__16vectorINS2_12basic_stringIcNS2_11char_traitsIcEENS2_9allocatorIcEEEENS7_IS9_EEEESD_
FN:1364,_ZN7testing8internal13edit_distance12_GLOBAL__N_14HunkD1Ev
FNDA:0,_ZN7testing8internal13edit_distance12_GLOBAL__N_14HunkD1Ev
FN:1364,_ZN7testing8internal13edit_distance12_GLOBAL__N_14HunkD2Ev
FNDA:0,_ZN7testing8internal13edit_distance12_GLOBAL__N_14HunkD2Ev
FN:1366,_ZN7testing8internal13edit_distance12_GLOBAL__N_14HunkC1Emm
FNDA:0,_ZN7testing8internal13edit_distance12_GLOBAL__N_14HunkC1Emm
FN:1366,_ZN7testing8internal13edit_distance12_GLOBAL__N_14HunkC2Emm
FNDA:0,_ZN7testing8internal13edit_distance12_GLOBAL__N_14HunkC2Emm
FN:1373,_ZN7testing8internal13edit_distance12_GLOBAL__N_14Hunk8PushLineEcPKc
FNDA:0,_ZN7testing8internal13edit_distance12_GLOBAL__N_14Hunk8PushLineEcPKc
FN:1391,_ZN7testing8internal13edit_distance12_GLOBAL__N_14Hunk7PrintToEPNSt3__113basic_ostreamIcNS4_11char_traitsIcEEEE
FNDA:0,_ZN7testing8internal13edit_distance12_GLOBAL__N_14Hunk7PrintToEPNSt3__113basic_ostreamIcNS4_11char_traitsIcEEEE
FN:1401,_ZNK7testing8internal13edit_distance12_GLOBAL__N_14Hunk9has_editsEv
FNDA:0,_ZNK7testing8internal13edit_distance12_GLOBAL__N_14Hunk9has_editsEv
FN:1404,_ZN7testing8internal13edit_distance12_GLOBAL__N_14Hunk10FlushEditsEv
FNDA:0,_ZN7testing8internal13edit_distance12_GLOBAL__N_14Hunk10FlushEditsEv
FN:1413,_ZNK7testing8internal13edit_distance12_GLOBAL__N_14Hunk11PrintHeaderEPNSt3__113basic_ostreamIcNS4_11char_traitsIcEEEE
FNDA:0,_ZNK7testing8internal13edit_distance12_GLOBAL__N_14Hunk11PrintHeaderEPNSt3__113basic_ostreamIcNS4_11char_traitsIcEEEE
FN:1441,_ZN7testing8internal13edit_distance17CreateUnifiedDiffERKNSt3__16vectorINS2_12basic_stringIcNS2_11char_traitsIcEENS2_9allocatorIcEEEENS7_IS9_EEEESD_m
FNDA:0,_ZN7testing8internal13edit_distance17CreateUnifiedDiffERKNSt3__16vectorINS2_12basic_stringIcNS2_11char_traitsIcEENS2_9allocatorIcEEEENS7_IS9_EEEESD_m
FN:1511,_ZN7testing8internal12_GLOBAL__N_118SplitEscapedStringERKNSt3__112basic_stringIcNS2_11char_traitsIcEENS2_9allocatorIcEEEE
FNDA:0,_ZN7testing8internal12_GLOBAL__N_118SplitEscapedStringERKNSt3__112basic_stringIcNS2_11char_traitsIcEENS2_9allocatorIcEEEE
FN:1551,_ZN7testing8internal9EqFailureEPKcS2_RKNSt3__112basic_stringIcNS3_11char_traitsIcEENS3_9allocatorIcEEEESB_b
FNDA:0,_ZN7testing8internal9EqFailureEPKcS2_RKNSt3__112basic_stringIcNS3_11char_traitsIcEENS3_9allocatorIcEEEESB_b
FN:1583,_ZN7testing8internal30GetBoolAssertionFailureMessageERKNS_15AssertionResultEPKcS5_S5_
FNDA:0,_ZN7testing8internal30GetBoolAssertionFailureMessageERKNS_15AssertionResultEPKcS5_S5_
FN:1596,_ZN7testing8internal20DoubleNearPredFormatEPKcS2_S2_ddd
FNDA:0,_ZN7testing8internal20DoubleNearPredFormatEPKcS2_S2_ddd
FN:1637,_ZN7testing8internal15FloatingPointLEIfEENS_15AssertionResultEPKcS4_T_S5_
FNDA:0,_ZN7testing8internal15FloatingPointLEIfEENS_15AssertionResultEPKcS4_T_S5_
FN:1637,_ZN7testing8internal15FloatingPointLEIdEENS_15AssertionResultEPKcS4_T_S5_
FNDA:0,_ZN7testing8internal15FloatingPointLEIdEENS_15AssertionResultEPKcS4_T_S5_
FN:1672,_ZN7testing7FloatLEEPKcS1_ff
FNDA:0,_ZN7testing7FloatLEEPKcS1_ff
FN:1679,_ZN7testing8DoubleLEEPKcS1_dd
FNDA:0,_ZN7testing8DoubleLEEPKcS1_dd
FN:1687,_ZN7testing8internal14CmpHelperSTREQEPKcS2_S2_S2_
FNDA:0,_ZN7testing8internal14CmpHelperSTREQEPKcS2_S2_S2_
FN:1699,_ZN7testing8internal18CmpHelperSTRCASEEQEPKcS2_S2_S2_
FNDA:0,_ZN7testing8internal18CmpHelperSTRCASEEQEPKcS2_S2_S2_
FN:1711,_ZN7testing8internal14CmpHelperSTRNEEPKcS2_S2_S2_
FNDA:0,_ZN7testing8internal14CmpHelperSTRNEEPKcS2_S2_S2_
FN:1724,_ZN7testing8internal18CmpHelperSTRCASENEEPKcS2_S2_S2_
FNDA:0,_ZN7testing8internal18CmpHelperSTRCASENEEPKcS2_S2_S2_
FN:1746,_ZN7testing12_GLOBAL__N_115IsSubstringPredEPKcS2_
FNDA:0,_ZN7testing12_GLOBAL__N_115IsSubstringPredEPKcS2_
FN:1752,_ZN7testing12_GLOBAL__N_115IsSubstringPredEPKwS2_
FNDA:0,_ZN7testing12_GLOBAL__N_115IsSubstringPredEPKwS2_
FN:1760,_ZN7testing12_GLOBAL__N_115IsSubstringPredINSt3__112basic_stringIcNS2_11char_traitsIcEENS2_9allocatorIcEEEEEEbRKT_SB_
FNDA:0,_ZN7testing12_GLOBAL__N_115IsSubstringPredINSt3__112basic_stringIcNS2_11char_traitsIcEENS2_9allocatorIcEEEEEEbRKT_SB_
FN:1760,_ZN7testing12_GLOBAL__N_115IsSubstringPredINSt3__112basic_stringIwNS2_11char_traitsIwEENS2_9allocatorIwEEEEEEbRKT_SB_
FNDA:0,_ZN7testing12_GLOBAL__N_115IsSubstringPredINSt3__112basic_stringIwNS2_11char_traitsIwEENS2_9allocatorIwEEEEEEbRKT_SB_
FN:1769,_ZN7testing12_GLOBAL__N_115IsSubstringImplIPKcEENS_15AssertionResultEbS3_S3_RKT_S7_
FNDA:0,_ZN7testing12_GLOBAL__N_115IsSubstringImplIPKcEENS_15AssertionResultEbS3_S3_RKT_S7_
FN:1769,_ZN7testing12_GLOBAL__N_115IsSubstringImplIPKwEENS_15AssertionResultEbPKcS6_RKT_S9_
FNDA:0,_ZN7testing12_GLOBAL__N_115IsSubstringImplIPKwEENS_15AssertionResultEbPKcS6_RKT_S9_
FN:1769,_ZN7testing12_GLOBAL__N_115IsSubstringImplINSt3__112basic_stringIcNS2_11char_traitsIcEENS2_9allocatorIcEEEEEENS_15AssertionResultEbPKcSB_RKT_SE_
FNDA:0,_ZN7testing12_GLOBAL__N_115IsSubstringImplINSt3__112basic_stringIcNS2_11char_traitsIcEENS2_9allocatorIcEEEEEENS_15AssertionResultEbPKcSB_RKT_SE_
FN:1769,_ZN7testing12_GLOBAL__N_115IsSubstringImplINSt3__112basic_stringIwNS2_11char_traitsIwEENS2_9allocatorIwEEEEEENS_15AssertionResultEbPKcSB_RKT_SE_
FNDA:0,_ZN7testing12_GLOBAL__N_115IsSubstringImplINSt3__112basic_stringIwNS2_11char_traitsIwEENS2_9allocatorIwEEEEEENS_15AssertionResultEbPKcSB_RKT_SE_
FN:1793,_ZN7testing11IsSubstringEPKcS1_S1_S1_
FNDA:0,_ZN7testing11IsSubstringEPKcS1_S1_S1_
FN:1798,_ZN7testing11IsSubstringEPKcS1_PKwS3_
FNDA:0,_ZN7testing11IsSubstringEPKcS1_PKwS3_
FN:1803,_ZN7testing14IsNotSubstringEPKcS1_S1_S1_
FNDA:0,_ZN7testing14IsNotSubstringEPKcS1_S1_S1_
FN:1809,_ZN7testing14IsNotSubstringEPKcS1_PKwS3_
FNDA:0,_ZN7testing14IsNotSubstringEPKcS1_PKwS3_
FN:1815,_ZN7testing11IsSubstringEPKcS1_RKNSt3__112basic_stringIcNS2_11char_traitsIcEENS2_9allocatorIcEEEESA_
FNDA:0,_ZN7testing11IsSubstringEPKcS1_RKNSt3__112basic_stringIcNS2_11char_traitsIcEENS2_9allocatorIcEEEESA_
FN:1821,_ZN7testing14IsNotSubstringEPKcS1_RKNSt3__112basic_stringIcNS2_11char_traitsIcEENS2_9allocatorIcEEEESA_
FNDA:0,_ZN7testing14IsNotSubstringEPKcS1_RKNSt3__112basic_stringIcNS2_11char_traitsIcEENS2_9allocatorIcEEEESA_
FN:1829,_ZN7testing11IsSubstringEPKcS1_RKNSt3__112basic_stringIwNS2_11char_traitsIwEENS2_9allocatorIwEEEESA_
FNDA:0,_ZN7testing11IsSubstringEPKcS1_RKNSt3__112basic_stringIwNS2_11char_traitsIwEENS2_9allocatorIwEEEESA_
FN:1835,_ZN7testing14IsNotSubstringEPKcS1_RKNSt3__112basic_stringIwNS2_11char_traitsIwEENS2_9allocatorIwEEEESA_
FNDA:0,_ZN7testing14IsNotSubstringEPKcS1_RKNSt3__112basic_stringIwNS2_11char_traitsIwEENS2_9allocatorIwEEEESA_
FN:1935,_ZN7testing8internal11ChopLowBitsEPji
FNDA:0,_ZN7testing8internal11ChopLowBitsEPji
FN:1947,_ZN7testing8internal15CodePointToUtf8Ej
FNDA:0,_ZN7testing8internal15CodePointToUtf8Ej
FN:1982,_ZN7testing8internal20IsUtf16SurrogatePairEww
FNDA:0,_ZN7testing8internal20IsUtf16SurrogatePairEww
FN:1988,_ZN7testing8internal37CreateCodePointFromUtf16SurrogatePairEww
FNDA:0,_ZN7testing8internal37CreateCodePointFromUtf16SurrogatePairEww
FN:2014,_ZN7testing8internal16WideStringToUtf8EPKwi
FNDA:0,_ZN7testing8internal16WideStringToUtf8EPKwi
FN:2038,_ZN7testing8internal6String15ShowWideCStringEPKw
FNDA:0,_ZN7testing8internal6String15ShowWideCStringEPKw
FN:2050,_ZN7testing8internal6String17WideCStringEqualsEPKwS3_
FNDA:0,_ZN7testing8internal6String17WideCStringEqualsEPKwS3_
FN:2059,_ZN7testing8internal14CmpHelperSTREQEPKcS2_PKwS4_
FNDA:0,_ZN7testing8internal14CmpHelperSTREQEPKcS2_PKwS4_
FN:2071,_ZN7testing8internal14CmpHelperSTRNEEPKcS2_PKwS4_
FNDA:0,_ZN7testing8internal14CmpHelperSTRNEEPKcS2_PKwS4_
FN:2089,_ZN7testing8internal6String28CaseInsensitiveCStringEqualsEPKcS3_
FNDA:87,_ZN7testing8internal6String28CaseInsensitiveCStringEqualsEPKcS3_
FN:2107,_ZN7testing8internal6String32CaseInsensitiveWideCStringEqualsEPKwS3_
FNDA:0,_ZN7testing8internal6String32CaseInsensitiveWideCStringEqualsEPKwS3_
FN:2131,_ZN7testing8internal6String23EndsWithCaseInsensitiveERKNSt3__112basic_stringIcNS2_11char_traitsIcEENS2_9allocatorIcEEEESA_
FNDA:0,_ZN7testing8internal6String23EndsWithCaseInsensitiveERKNSt3__112basic_stringIcNS2_11char_traitsIcEENS2_9allocatorIcEEEESA_
FN:2141,_ZN7testing8internal6String15FormatIntWidth2Ei
FNDA:0,_ZN7testing8internal6String15FormatIntWidth2Ei
FN:2146,_ZN7testing8internal6String15FormatIntWidthNEii
FNDA:0,_ZN7testing8internal6String15FormatIntWidthNEii
FN:2153,_ZN7testing8internal6String15FormatHexUInt32Ej
FNDA:0,_ZN7testing8internal6String15FormatHexUInt32Ej
FN:2160,_ZN7testing8internal6String12FormatHexIntEi
FNDA:0,_ZN7testing8internal6String12FormatHexIntEi
FN:2165,_ZN7testing8internal6String10FormatByteEh
FNDA:0,_ZN7testing8internal6String10FormatByteEh
FN:2174,_ZN7testing8internal20StringStreamToStringEPNSt3__118basic_stringstreamIcNS1_11char_traitsIcEENS1_9allocatorIcEEEE
FNDA:5153,_ZN7testing8internal20StringStreamToStringEPNSt3__118basic_stringstreamIcNS1_11char_traitsIcEENS1_9allocatorIcEEEE
FN:2193,_ZN7testing8internal17AppendUserMessageERKNSt3__112basic_stringIcNS1_11char_traitsIcEENS1_9allocatorIcEEEERKNS_7MessageE
FNDA:0,_ZN7testing8internal17AppendUserMessageERKNSt3__112basic_stringIcNS1_11char_traitsIcEENS1_9allocatorIcEEEERKNS_7MessageE
FN:2211,_ZN7testing10TestResultC2Ev
FNDA:4680,_ZN7testing10TestResultC2Ev
FN:2211,_ZN7testing10TestResultC1Ev
FNDA:4680,_ZN7testing10TestResultC1Ev
FN:2215,_ZN7testing10TestResultD2Ev
FNDA:0,_ZN7testing10TestResultD2Ev
FN:2215,_ZN7testing10TestResultD1Ev
FNDA:0,_ZN7testing10TestResultD1Ev
FN:2220,_ZNK7testing10TestResult17GetTestPartResultEi
FNDA:0,_ZNK7testing10TestResult17GetTestPartResultEi
FN:2228,_ZNK7testing10TestResult15GetTestPropertyEi
FNDA:0,_ZNK7testing10TestResult15GetTestPropertyEi
FN:2234,_ZN7testing10TestResult20ClearTestPartResultsEv
FNDA:0,_ZN7testing10TestResult20ClearTestPartResultsEv
FN:2237,_ZN7testing10TestResult17AddTestPartResultERKNS_14TestPartResultE
FNDA:0,_ZN7testing10TestResult17AddTestPartResultERKNS_14TestPartResultE
FN:2244,_ZN7testing10TestResult14RecordPropertyERKNSt3__112basic_stringIcNS1_11char_traitsIcEENS1_9allocatorIcEEEERKNS_12TestPropertyE
FNDA:0,_ZN7testing10TestResult14RecordPropertyERKNSt3__112basic_stringIcNS1_11char_traitsIcEENS1_9allocatorIcEEEERKNS_12TestPropertyE
FN:2284,_ZN7testing13ArrayAsVectorILm8EEENSt3__16vectorINS1_12basic_stringIcNS1_11char_traitsIcEENS1_9allocatorIcEEEENS6_IS8_EEEERAT__KPKc
FNDA:0,_ZN7testing13ArrayAsVectorILm8EEENSt3__16vectorINS1_12basic_stringIcNS1_11char_traitsIcEENS1_9allocatorIcEEEENS6_IS8_EEEERAT__KPKc
FN:2284,_ZN7testing13ArrayAsVectorILm10EEENSt3__16vectorINS1_12basic_stringIcNS1_11char_traitsIcEENS1_9allocatorIcEEEENS6_IS8_EEEERAT__KPKc
FNDA:0,_ZN7testing13ArrayAsVectorILm10EEENSt3__16vectorINS1_12basic_stringIcNS1_11char_traitsIcEENS1_9allocatorIcEEEENS6_IS8_EEEERAT__KPKc
FN:2288,_ZN7testingL31GetReservedAttributesForElementERKNSt3__112basic_stringIcNS0_11char_traitsIcEENS0_9allocatorIcEEEE
FNDA:0,_ZN7testingL31GetReservedAttributesForElementERKNSt3__112basic_stringIcNS0_11char_traitsIcEENS0_9allocatorIcEEEE
FN:2304,_ZN7testingL37GetReservedOutputAttributesForElementERKNSt3__112basic_stringIcNS0_11char_traitsIcEENS0_9allocatorIcEEEE
FNDA:0,_ZN7testingL37GetReservedOutputAttributesForElementERKNSt3__112basic_stringIcNS0_11char_traitsIcEENS0_9allocatorIcEEEE
FN:2319,_ZN7testingL14FormatWordListERKNSt3__16vectorINS0_12basic_stringIcNS0_11char_traitsIcEENS0_9allocatorIcEEEENS5_IS7_EEEE
FNDA:0,_ZN7testingL14FormatWordListERKNSt3__16vectorINS0_12basic_stringIcNS0_11char_traitsIcEENS0_9allocatorIcEEEENS5_IS7_EEEE
FN:2333,_ZN7testingL24ValidateTestPropertyNameERKNSt3__112basic_stringIcNS0_11char_traitsIcEENS0_9allocatorIcEEEERKNS0_6vectorIS6_NS4_IS6_EEEE
FNDA:0,_ZN7testingL24ValidateTestPropertyNameERKNSt3__112basic_stringIcNS0_11char_traitsIcEENS0_9allocatorIcEEEERKNS0_6vectorIS6_NS4_IS6_EEEE
FN:2348,_ZN7testing10TestResult20ValidateTestPropertyERKNSt3__112basic_stringIcNS1_11char_traitsIcEENS1_9allocatorIcEEEERKNS_12TestPropertyE
FNDA:0,_ZN7testing10TestResult20ValidateTestPropertyERKNSt3__112basic_stringIcNS1_11char_traitsIcEENS1_9allocatorIcEEEERKNS_12TestPropertyE
FN:2355,_ZN7testing10TestResult5ClearEv
FNDA:4437,_ZN7testing10TestResult5ClearEv
FN:2363,_ZN7testingL15TestPartSkippedERKNS_14TestPartResultE
FNDA:0,_ZN7testingL15TestPartSkippedERKNS_14TestPartResultE
FN:2368,_ZNK7testing10TestResult7SkippedEv
FNDA:732,_ZNK7testing10TestResult7SkippedEv
FN:2373,_ZNK7testing10TestResult6FailedEv
FNDA:1833,_ZNK7testing10TestResult6FailedEv
FN:2381,_ZN7testingL21TestPartFatallyFailedERKNS_14TestPartResultE
FNDA:0,_ZN7testingL21TestPartFatallyFailedERKNS_14TestPartResultE
FN:2386,_ZNK7testing10TestResult15HasFatalFailureEv
FNDA:345,_ZNK7testing10TestResult15HasFatalFailureEv
FN:2391,_ZN7testingL24TestPartNonfatallyFailedERKNS_14TestPartResultE
FNDA:0,_ZN7testingL24TestPartNonfatallyFailedERKNS_14TestPartResultE
FN:2396,_ZNK7testing10TestResult18HasNonfatalFailureEv
FNDA:0,_ZNK7testing10TestResult18HasNonfatalFailureEv
FN:2402,_ZNK7testing10TestResult16total_part_countEv
FNDA:1833,_ZNK7testing10TestResult16total_part_countEv
FN:2407,_ZNK7testing10TestResult19test_property_countEv
FNDA:0,_ZNK7testing10TestResult19test_property_countEv
FN:2416,_ZN7testing4TestC2Ev
FNDA:129,_ZN7testing4TestC2Ev
FN:2421,_ZN7testing4TestD2Ev
FNDA:129,_ZN7testing4TestD2Ev
FN:2421,_ZN7testing4TestD1Ev
FNDA:0,_ZN7testing4TestD1Ev
FN:2421,_ZN7testing4TestD0Ev
FNDA:0,_ZN7testing4TestD0Ev
FN:2426,_ZN7testing4Test5SetUpEv
FNDA:69,_ZN7testing4Test5SetUpEv
FN:2431,_ZN7testing4Test8TearDownEv
FNDA:69,_ZN7testing4Test8TearDownEv
FN:2434,_ZN7testing4Test14RecordPropertyERKNSt3__112basic_stringIcNS1_11char_traitsIcEENS1_9allocatorIcEEEES9_
FNDA:0,_ZN7testing4Test14RecordPropertyERKNSt3__112basic_stringIcNS1_11char_traitsIcEENS1_9allocatorIcEEEES9_
FN:2439,_ZN7testing4Test14RecordPropertyERKNSt3__112basic_stringIcNS1_11char_traitsIcEENS1_9allocatorIcEEEEi
FNDA:0,_ZN7testing4Test14RecordPropertyERKNSt3__112basic_stringIcNS1_11char_traitsIcEENS1_9allocatorIcEEEEi
FN:2447,_ZN7testing8internal30ReportFailureInUnknownLocationENS_14TestPartResult4TypeERKNSt3__112basic_stringIcNS3_11char_traitsIcEENS3_9allocatorIcEEEE
FNDA:0,_ZN7testing8internal30ReportFailureInUnknownLocationENS_14TestPartResult4TypeERKNSt3__112basic_stringIcNS3_11char_traitsIcEENS3_9allocatorIcEEEE
FN:2466,_ZN7testing4Test19HasSameFixtureClassEv
FNDA:129,_ZN7testing4Test19HasSameFixtureClassEv
FN:2549,_ZN7testing8internalL25FormatCxxExceptionMessageEPKcS2_
FNDA:0,_ZN7testing8internalL25FormatCxxExceptionMessageEPKcS2_
FN:2565,_ZN7testing8internal26GoogleTestFailureExceptionC2ERKNS_14TestPartResultE
FNDA:0,_ZN7testing8internal26GoogleTestFailureExceptionC2ERKNS_14TestPartResultE
FN:2565,_ZN7testing8internal26GoogleTestFailureExceptionC1ERKNS_14TestPartResultE
FNDA:0,_ZN7testing8internal26GoogleTestFailureExceptionC1ERKNS_14TestPartResultE
FN:2580,_ZN7testing8internal38HandleSehExceptionsInMethodIfSupportedINS_4TestEvEET0_PT_MS4_FS3_vEPKc
FNDA:516,_ZN7testing8internal38HandleSehExceptionsInMethodIfSupportedINS_4TestEvEET0_PT_MS4_FS3_vEPKc
FN:2580,_ZN7testing8internal38HandleSehExceptionsInMethodIfSupportedINS0_15TestFactoryBaseEPNS_4TestEEET0_PT_MS6_FS5_vEPKc
FNDA:129,_ZN7testing8internal38HandleSehExceptionsInMethodIfSupportedINS0_15TestFactoryBaseEPNS_4TestEEET0_PT_MS6_FS5_vEPKc
FN:2580,_ZN7testing8internal38HandleSehExceptionsInMethodIfSupportedINS_9TestSuiteEvEET0_PT_MS4_FS3_vEPKc
FNDA:188,_ZN7testing8internal38HandleSehExceptionsInMethodIfSupportedINS_9TestSuiteEvEET0_PT_MS4_FS3_vEPKc
FN:2580,_ZN7testing8internal38HandleSehExceptionsInMethodIfSupportedINS0_12UnitTestImplEbEET0_PT_MS4_FS3_vEPKc
FNDA:90,_ZN7testing8internal38HandleSehExceptionsInMethodIfSupportedINS0_12UnitTestImplEbEET0_PT_MS4_FS3_vEPKc
FN:2607,_ZN7testing8internal35HandleExceptionsInMethodIfSupportedINS_4TestEvEET0_PT_MS4_FS3_vEPKc
FNDA:516,_ZN7testing8internal35HandleExceptionsInMethodIfSupportedINS_4TestEvEET0_PT_MS4_FS3_vEPKc
FN:2607,_ZN7testing8internal35HandleExceptionsInMethodIfSupportedINS0_15TestFactoryBaseEPNS_4TestEEET0_PT_MS6_FS5_vEPKc
FNDA:129,_ZN7testing8internal35HandleExceptionsInMethodIfSupportedINS0_15TestFactoryBaseEPNS_4TestEEET0_PT_MS6_FS5_vEPKc
FN:2607,_ZN7testing8internal35HandleExceptionsInMethodIfSupportedINS_9TestSuiteEvEET0_PT_MS4_FS3_vEPKc
FNDA:188,_ZN7testing8internal35HandleExceptionsInMethodIfSupportedINS_9TestSuiteEvEET0_PT_MS4_FS3_vEPKc
FN:2607,_ZN7testing8internal35HandleExceptionsInMethodIfSupportedINS0_12UnitTestImplEbEET0_PT_MS4_FS3_vEPKc
FNDA:90,_ZN7testing8internal35HandleExceptionsInMethodIfSupportedINS0_12UnitTestImplEbEET0_PT_MS4_FS3_vEPKc
FN:2664,_ZN7testing4Test3RunEv
FNDA:129,_ZN7testing4Test3RunEv
FN:2687,_ZN7testing4Test15HasFatalFailureEv
FNDA:345,_ZN7testing4Test15HasFatalFailureEv
FN:2692,_ZN7testing4Test18HasNonfatalFailureEv
FNDA:0,_ZN7testing4Test18HasNonfatalFailureEv
FN:2699,_ZN7testing4Test9IsSkippedEv
FNDA:345,_ZN7testing4Test9IsSkippedEv
FN:2707,_ZN7testing8TestInfoC2ERKNSt3__112basic_stringIcNS1_11char_traitsIcEENS1_9allocatorIcEEEES9_PKcSB_NS_8internal12CodeLocationEPKvPNSC_15TestFactoryBaseE
FNDA:3870,_ZN7testing8TestInfoC2ERKNSt3__112basic_stringIcNS1_11char_traitsIcEENS1_9allocatorIcEEEES9_PKcSB_NS_8internal12CodeLocationEPKvPNSC_15TestFactoryBaseE
FN:2707,_ZN7testing8TestInfoC1ERKNSt3__112basic_stringIcNS1_11char_traitsIcEENS1_9allocatorIcEEEES9_PKcSB_NS_8internal12CodeLocationEPKvPNSC_15TestFactoryBaseE
FNDA:3870,_ZN7testing8TestInfoC1ERKNSt3__112basic_stringIcNS1_11char_traitsIcEENS1_9allocatorIcEEEES9_PKcSB_NS_8internal12CodeLocationEPKvPNSC_15TestFactoryBaseE
FN:2727,_ZN7testing8TestInfoD2Ev
FNDA:0,_ZN7testing8TestInfoD2Ev
FN:2727,_ZN7testing8TestInfoD1Ev
FNDA:0,_ZN7testing8TestInfoD1Ev
FN:2749,_ZN7testing8internal23MakeAndRegisterTestInfoEPKcS2_S2_S2_NS0_12CodeLocationEPKvPFvvES7_PNS0_15TestFactoryBaseE
FNDA:3870,_ZN7testing8internal23MakeAndRegisterTestInfoEPKcS2_S2_S2_NS0_12CodeLocationEPKvPFvvES7_PNS0_15TestFactoryBaseE
FN:2761,_ZN7testing8internal26ReportInvalidTestSuiteTypeEPKcNS0_12CodeLocationE
FNDA:0,_ZN7testing8internal26ReportInvalidTestSuiteTypeEPKcNS0_12CodeLocationE
FN:2813,_ZN7testing8internal12UnitTestImpl26RegisterParameterizedTestsEv
FNDA:90,_ZN7testing8internal12UnitTestImpl26RegisterParameterizedTestsEv
FN:2825,_ZN7testing8TestInfo3RunEv
FNDA:765,_ZN7testing8TestInfo3RunEv
FN:2874,_ZN7testing8TestInfo4SkipEv
FNDA:0,_ZN7testing8TestInfo4SkipEv
FN:2898,_ZNK7testing9TestSuite21successful_test_countEv
FNDA:696,_ZNK7testing9TestSuite21successful_test_countEv
FN:2903,_ZNK7testing9TestSuite18skipped_test_countEv
FNDA:696,_ZNK7testing9TestSuite18skipped_test_countEv
FN:2908,_ZNK7testing9TestSuite17failed_test_countEv
FNDA:188,_ZNK7testing9TestSuite17failed_test_countEv
FN:2913,_ZNK7testing9TestSuite30reportable_disabled_test_countEv
FNDA:696,_ZNK7testing9TestSuite30reportable_disabled_test_countEv
FN:2918,_ZNK7testing9TestSuite19disabled_test_countEv
FNDA:0,_ZNK7testing9TestSuite19disabled_test_countEv
FN:2923,_ZNK7testing9TestSuite21reportable_test_countEv
FNDA:0,_ZNK7testing9TestSuite21reportable_test_countEv
FN:2928,_ZNK7testing9TestSuite17test_to_run_countEv
FNDA:1580,_ZNK7testing9TestSuite17test_to_run_countEv
FN:2933,_ZNK7testing9TestSuite16total_test_countEv
FNDA:859,_ZNK7testing9TestSuite16total_test_countEv
FN:2946,_ZN7testing9TestSuiteC2EPKcS2_PFvvES4_
FNDA:720,_ZN7testing9TestSuiteC2EPKcS2_PFvvES4_
FN:2946,_ZN7testing9TestSuiteC1EPKcS2_PFvvES4_
FNDA:720,_ZN7testing9TestSuiteC1EPKcS2_PFvvES4_
FN:2958,_ZN7testing9TestSuiteD2Ev
FNDA:0,_ZN7testing9TestSuiteD2Ev
FN:2958,_ZN7testing9TestSuiteD1Ev
FNDA:0,_ZN7testing9TestSuiteD1Ev
FN:2958,_ZN7testing9TestSuiteD0Ev
FNDA:0,_ZN7testing9TestSuiteD0Ev
FN:2965,_ZNK7testing9TestSuite11GetTestInfoEi
FNDA:0,_ZNK7testing9TestSuite11GetTestInfoEi
FN:2972,_ZN7testing9TestSuite18GetMutableTestInfoEi
FNDA:765,_ZN7testing9TestSuite18GetMutableTestInfoEi
FN:2979,_ZN7testing9TestSuite11AddTestInfoEPNS_8TestInfoE
FNDA:3870,_ZN7testing9TestSuite11AddTestInfoEPNS_8TestInfoE
FN:2985,_ZN7testing9TestSuite3RunEv
FNDA:696,_ZN7testing9TestSuite3RunEv
FN:3039,_ZN7testing9TestSuite4SkipEv
FNDA:0,_ZN7testing9TestSuite4SkipEv
FN:3069,_ZN7testing9TestSuite11ClearResultEv
FNDA:696,_ZN7testing9TestSuite11ClearResultEv
FN:3075,_ZN7testing9TestSuite12ShuffleTestsEPNS_8internal6RandomE
FNDA:0,_ZN7testing9TestSuite12ShuffleTestsEPNS_8internal6RandomE
FN:3080,_ZN7testing9TestSuite14UnshuffleTestsEv
FNDA:696,_ZN7testing9TestSuite14UnshuffleTestsEv
FN:3091,_ZN7testingL19FormatCountableNounEiPKcS1_
FNDA:623,_ZN7testingL19FormatCountableNounEiPKcS1_
FN:3098,_ZN7testingL15FormatTestCountEi
FNDA:261,_ZN7testingL15FormatTestCountEi
FN:3103,_ZN7testingL20FormatTestSuiteCountEi
FNDA:174,_ZN7testingL20FormatTestSuiteCountEi
FN:3111,_ZN7testingL26TestPartResultTypeToStringENS_14TestPartResult4TypeE
FNDA:0,_ZN7testingL26TestPartResultTypeToStringENS_14TestPartResult4TypeE
FN:3136,_ZN7testing8internalL27PrintTestPartResultToStringERKNS_14TestPartResultE
FNDA:0,_ZN7testing8internalL27PrintTestPartResultToStringERKNS_14TestPartResultE
FN:3148,_ZN7testing8internalL19PrintTestPartResultERKNS_14TestPartResultE
FNDA:0,_ZN7testing8internalL19PrintTestPartResultERKNS_14TestPartResultE
FN:3218,_ZN7testing8internalL16GetAnsiColorCodeENS0_12_GLOBAL__N_110GTestColorE
FNDA:107,_ZN7testing8internalL16GetAnsiColorCodeENS0_12_GLOBAL__N_110GTestColorE
FN:3234,_ZN7testing8internal14ShouldUseColorEb
FNDA:87,_ZN7testing8internal14ShouldUseColorEb
FN:3277,_ZN7testing8internalL13ColoredPrintfENS0_12_GLOBAL__N_110GTestColorEPKcz
FNDA:967,_ZN7testing8internalL13ColoredPrintfENS0_12_GLOBAL__N_110GTestColorEPKcz
FN:3325,_ZN7testing8internalL29PrintFullTestCommentIfPresentERKNS_8TestInfoE
FNDA:0,_ZN7testing8internalL29PrintFullTestCommentIfPresentERKNS_8TestInfoE
FN:3344,_ZN7testing8internal27PrettyUnitTestResultPrinterD1Ev
FNDA:0,_ZN7testing8internal27PrettyUnitTestResultPrinterD1Ev
FN:3344,_ZN7testing8internal27PrettyUnitTestResultPrinterD0Ev
FNDA:0,_ZN7testing8internal27PrettyUnitTestResultPrinterD0Ev
FN:3344,_ZN7testing8internal27PrettyUnitTestResultPrinterD2Ev
FNDA:0,_ZN7testing8internal27PrettyUnitTestResultPrinterD2Ev
FN:3346,_ZN7testing8internal27PrettyUnitTestResultPrinterC1Ev
FNDA:90,_ZN7testing8internal27PrettyUnitTestResultPrinterC1Ev
FN:3346,_ZN7testing8internal27PrettyUnitTestResultPrinterC2Ev
FNDA:90,_ZN7testing8internal27PrettyUnitTestResultPrinterC2Ev
FN:3347,_ZN7testing8internal27PrettyUnitTestResultPrinter13PrintTestNameEPKcS3_
FNDA:258,_ZN7testing8internal27PrettyUnitTestResultPrinter13PrintTestNameEPKcS3_
FN:3352,_ZN7testing8internal27PrettyUnitTestResultPrinter18OnTestProgramStartERKNS_8UnitTestE
FNDA:87,_ZN7testing8internal27PrettyUnitTestResultPrinter18OnTestProgramStartERKNS_8UnitTestE
FN:3355,_ZN7testing8internal27PrettyUnitTestResultPrinter22OnEnvironmentsSetUpEndERKNS_8UnitTestE
FNDA:87,_ZN7testing8internal27PrettyUnitTestResultPrinter22OnEnvironmentsSetUpEndERKNS_8UnitTestE
FN:3374,_ZN7testing8internal27PrettyUnitTestResultPrinter25OnEnvironmentsTearDownEndERKNS_8UnitTestE
FNDA:87,_ZN7testing8internal27PrettyUnitTestResultPrinter25OnEnvironmentsTearDownEndERKNS_8UnitTestE
FN:3376,_ZN7testing8internal27PrettyUnitTestResultPrinter16OnTestProgramEndERKNS_8UnitTestE
FNDA:87,_ZN7testing8internal27PrettyUnitTestResultPrinter16OnTestProgramEndERKNS_8UnitTestE
FN:3385,_ZN7testing8internal27PrettyUnitTestResultPrinter20OnTestIterationStartERKNS_8UnitTestEi
FNDA:87,_ZN7testing8internal27PrettyUnitTestResultPrinter20OnTestIterationStartERKNS_8UnitTestEi
FN:3420,_ZN7testing8internal27PrettyUnitTestResultPrinter24OnEnvironmentsSetUpStartERKNS_8UnitTestE
FNDA:87,_ZN7testing8internal27PrettyUnitTestResultPrinter24OnEnvironmentsSetUpStartERKNS_8UnitTestE
FN:3428,_ZN7testing8internal27PrettyUnitTestResultPrinter15OnTestCaseStartERKNS_9TestSuiteE
FNDA:94,_ZN7testing8internal27PrettyUnitTestResultPrinter15OnTestCaseStartERKNS_9TestSuiteE
FN:3456,_ZN7testing8internal27PrettyUnitTestResultPrinter11OnTestStartERKNS_8TestInfoE
FNDA:129,_ZN7testing8internal27PrettyUnitTestResultPrinter11OnTestStartERKNS_8TestInfoE
FN:3463,_ZN7testing8internal27PrettyUnitTestResultPrinter14OnTestDisabledERKNS_8TestInfoE
FNDA:0,_ZN7testing8internal27PrettyUnitTestResultPrinter14OnTestDisabledERKNS_8TestInfoE
FN:3471,_ZN7testing8internal27PrettyUnitTestResultPrinter16OnTestPartResultERKNS_14TestPartResultE
FNDA:0,_ZN7testing8internal27PrettyUnitTestResultPrinter16OnTestPartResultERKNS_14TestPartResultE
FN:3485,_ZN7testing8internal27PrettyUnitTestResultPrinter9OnTestEndERKNS_8TestInfoE
FNDA:129,_ZN7testing8internal27PrettyUnitTestResultPrinter9OnTestEndERKNS_8TestInfoE
FN:3507,_ZN7testing8internal27PrettyUnitTestResultPrinter13OnTestCaseEndERKNS_9TestSuiteE
FNDA:94,_ZN7testing8internal27PrettyUnitTestResultPrinter13OnTestCaseEndERKNS_9TestSuiteE
FN:3530,_ZN7testing8internal27PrettyUnitTestResultPrinter27OnEnvironmentsTearDownStartERKNS_8UnitTestE
FNDA:87,_ZN7testing8internal27PrettyUnitTestResultPrinter27OnEnvironmentsTearDownStartERKNS_8UnitTestE
FN:3538,_ZN7testing8internal27PrettyUnitTestResultPrinter16PrintFailedTestsERKNS_8UnitTestE
FNDA:0,_ZN7testing8internal27PrettyUnitTestResultPrinter16PrintFailedTestsERKNS_8UnitTestE
FN:3565,_ZN7testing8internal27PrettyUnitTestResultPrinter21PrintFailedTestSuitesERKNS_8UnitTestE
FNDA:0,_ZN7testing8internal27PrettyUnitTestResultPrinter21PrintFailedTestSuitesERKNS_8UnitTestE
FN:3586,_ZN7testing8internal27PrettyUnitTestResultPrinter17PrintSkippedTestsERKNS_8UnitTestE
FNDA:0,_ZN7testing8internal27PrettyUnitTestResultPrinter17PrintSkippedTestsERKNS_8UnitTestE
FN:3609,_ZN7testing8internal27PrettyUnitTestResultPrinter18OnTestIterationEndERKNS_8UnitTestEi
FNDA:87,_ZN7testing8internal27PrettyUnitTestResultPrinter18OnTestIterationEndERKNS_8UnitTestEi
FN:3652,_ZN7testing8internal26BriefUnitTestResultPrinterD1Ev
FNDA:0,_ZN7testing8internal26BriefUnitTestResultPrinterD1Ev
FN:3652,_ZN7testing8internal26BriefUnitTestResultPrinterD0Ev
FNDA:0,_ZN7testing8internal26BriefUnitTestResultPrinterD0Ev
FN:3652,_ZN7testing8internal26BriefUnitTestResultPrinterD2Ev
FNDA:0,_ZN7testing8internal26BriefUnitTestResultPrinterD2Ev
FN:3654,_ZN7testing8internal26BriefUnitTestResultPrinterC1Ev
FNDA:0,_ZN7testing8internal26BriefUnitTestResultPrinterC1Ev
FN:3654,_ZN7testing8internal26BriefUnitTestResultPrinterC2Ev
FNDA:0,_ZN7testing8internal26BriefUnitTestResultPrinterC2Ev
FN:3655,_ZN7testing8internal26BriefUnitTestResultPrinter13PrintTestNameEPKcS3_
FNDA:0,_ZN7testing8internal26BriefUnitTestResultPrinter13PrintTestNameEPKcS3_
FN:3660,_ZN7testing8internal26BriefUnitTestResultPrinter18OnTestProgramStartERKNS_8UnitTestE
FNDA:0,_ZN7testing8internal26BriefUnitTestResultPrinter18OnTestProgramStartERKNS_8UnitTestE
FN:3661,_ZN7testing8internal26BriefUnitTestResultPrinter20OnTestIterationStartERKNS_8UnitTestEi
FNDA:0,_ZN7testing8internal26BriefUnitTestResultPrinter20OnTestIterationStartERKNS_8UnitTestEi
FN:3663,_ZN7testing8internal26BriefUnitTestResultPrinter24OnEnvironmentsSetUpStartERKNS_8UnitTestE
FNDA:0,_ZN7testing8internal26BriefUnitTestResultPrinter24OnEnvironmentsSetUpStartERKNS_8UnitTestE
FN:3664,_ZN7testing8internal26BriefUnitTestResultPrinter22OnEnvironmentsSetUpEndERKNS_8UnitTestE
FNDA:0,_ZN7testing8internal26BriefUnitTestResultPrinter22OnEnvironmentsSetUpEndERKNS_8UnitTestE
FN:3666,_ZN7testing8internal26BriefUnitTestResultPrinter15OnTestCaseStartERKNS_9TestSuiteE
FNDA:0,_ZN7testing8internal26BriefUnitTestResultPrinter15OnTestCaseStartERKNS_9TestSuiteE
FN:3671,_ZN7testing8internal26BriefUnitTestResultPrinter11OnTestStartERKNS_8TestInfoE
FNDA:0,_ZN7testing8internal26BriefUnitTestResultPrinter11OnTestStartERKNS_8TestInfoE
FN:3672,_ZN7testing8internal26BriefUnitTestResultPrinter14OnTestDisabledERKNS_8TestInfoE
FNDA:0,_ZN7testing8internal26BriefUnitTestResultPrinter14OnTestDisabledERKNS_8TestInfoE
FN:3677,_ZN7testing8internal26BriefUnitTestResultPrinter13OnTestCaseEndERKNS_9TestSuiteE
FNDA:0,_ZN7testing8internal26BriefUnitTestResultPrinter13OnTestCaseEndERKNS_9TestSuiteE
FN:3682,_ZN7testing8internal26BriefUnitTestResultPrinter27OnEnvironmentsTearDownStartERKNS_8UnitTestE
FNDA:0,_ZN7testing8internal26BriefUnitTestResultPrinter27OnEnvironmentsTearDownStartERKNS_8UnitTestE
FN:3683,_ZN7testing8internal26BriefUnitTestResultPrinter25OnEnvironmentsTearDownEndERKNS_8UnitTestE
FNDA:0,_ZN7testing8internal26BriefUnitTestResultPrinter25OnEnvironmentsTearDownEndERKNS_8UnitTestE
FN:3685,_ZN7testing8internal26BriefUnitTestResultPrinter16OnTestProgramEndERKNS_8UnitTestE
FNDA:0,_ZN7testing8internal26BriefUnitTestResultPrinter16OnTestProgramEndERKNS_8UnitTestE
FN:3689,_ZN7testing8internal26BriefUnitTestResultPrinter16OnTestPartResultERKNS_14TestPartResultE
FNDA:0,_ZN7testing8internal26BriefUnitTestResultPrinter16OnTestPartResultERKNS_14TestPartResultE
FN:3703,_ZN7testing8internal26BriefUnitTestResultPrinter9OnTestEndERKNS_8TestInfoE
FNDA:0,_ZN7testing8internal26BriefUnitTestResultPrinter9OnTestEndERKNS_8TestInfoE
FN:3720,_ZN7testing8internal26BriefUnitTestResultPrinter18OnTestIterationEndERKNS_8UnitTestEi
FNDA:0,_ZN7testing8internal26BriefUnitTestResultPrinter18OnTestIterationEndERKNS_8UnitTestEi
FN:3759,_ZN7testing8internal17TestEventRepeaterC1Ev
FNDA:90,_ZN7testing8internal17TestEventRepeaterC1Ev
FN:3759,_ZN7testing8internal17TestEventRepeaterC2Ev
FNDA:90,_ZN7testing8internal17TestEventRepeaterC2Ev
FN:3766,_ZNK7testing8internal17TestEventRepeater18forwarding_enabledEv
FNDA:0,_ZNK7testing8internal17TestEventRepeater18forwarding_enabledEv
FN:3767,_ZN7testing8internal17TestEventRepeater22set_forwarding_enabledEb
FNDA:0,_ZN7testing8internal17TestEventRepeater22set_forwarding_enabledEb
FN:3803,_ZN7testing8internal17TestEventRepeaterD2Ev
FNDA:0,_ZN7testing8internal17TestEventRepeaterD2Ev
FN:3803,_ZN7testing8internal17TestEventRepeaterD1Ev
FNDA:0,_ZN7testing8internal17TestEventRepeaterD1Ev
FN:3803,_ZN7testing8internal17TestEventRepeaterD0Ev
FNDA:0,_ZN7testing8internal17TestEventRepeaterD0Ev
FN:3807,_ZN7testing8internal17TestEventRepeater6AppendEPNS_17TestEventListenerE
FNDA:90,_ZN7testing8internal17TestEventRepeater6AppendEPNS_17TestEventListenerE
FN:3811,_ZN7testing8internal17TestEventRepeater7ReleaseEPNS_17TestEventListenerE
FNDA:90,_ZN7testing8internal17TestEventRepeater7ReleaseEPNS_17TestEventListenerE
FN:3843,_ZN7testing8internal17TestEventRepeater18OnTestProgramStartERKNS_8UnitTestE
FNDA:87,_ZN7testing8internal17TestEventRepeater18OnTestProgramStartERKNS_8UnitTestE
FN:3844,_ZN7testing8internal17TestEventRepeater24OnEnvironmentsSetUpStartERKNS_8UnitTestE
FNDA:87,_ZN7testing8internal17TestEventRepeater24OnEnvironmentsSetUpStartERKNS_8UnitTestE
FN:3847,_ZN7testing8internal17TestEventRepeater15OnTestCaseStartERKNS_9TestSuiteE
FNDA:94,_ZN7testing8internal17TestEventRepeater15OnTestCaseStartERKNS_9TestSuiteE
FN:3849,_ZN7testing8internal17TestEventRepeater16OnTestSuiteStartERKNS_9TestSuiteE
FNDA:94,_ZN7testing8internal17TestEventRepeater16OnTestSuiteStartERKNS_9TestSuiteE
FN:3850,_ZN7testing8internal17TestEventRepeater11OnTestStartERKNS_8TestInfoE
FNDA:129,_ZN7testing8internal17TestEventRepeater11OnTestStartERKNS_8TestInfoE
FN:3851,_ZN7testing8internal17TestEventRepeater14OnTestDisabledERKNS_8TestInfoE
FNDA:0,_ZN7testing8internal17TestEventRepeater14OnTestDisabledERKNS_8TestInfoE
FN:3852,_ZN7testing8internal17TestEventRepeater16OnTestPartResultERKNS_14TestPartResultE
FNDA:0,_ZN7testing8internal17TestEventRepeater16OnTestPartResultERKNS_14TestPartResultE
FN:3853,_ZN7testing8internal17TestEventRepeater27OnEnvironmentsTearDownStartERKNS_8UnitTestE
FNDA:87,_ZN7testing8internal17TestEventRepeater27OnEnvironmentsTearDownStartERKNS_8UnitTestE
FN:3854,_ZN7testing8internal17TestEventRepeater22OnEnvironmentsSetUpEndERKNS_8UnitTestE
FNDA:87,_ZN7testing8internal17TestEventRepeater22OnEnvironmentsSetUpEndERKNS_8UnitTestE
FN:3855,_ZN7testing8internal17TestEventRepeater25OnEnvironmentsTearDownEndERKNS_8UnitTestE
FNDA:87,_ZN7testing8internal17TestEventRepeater25OnEnvironmentsTearDownEndERKNS_8UnitTestE
FN:3856,_ZN7testing8internal17TestEventRepeater9OnTestEndERKNS_8TestInfoE
FNDA:129,_ZN7testing8internal17TestEventRepeater9OnTestEndERKNS_8TestInfoE
FN:3859,_ZN7testing8internal17TestEventRepeater13OnTestCaseEndERKNS_9TestSuiteE
FNDA:94,_ZN7testing8internal17TestEventRepeater13OnTestCaseEndERKNS_9TestSuiteE
FN:3861,_ZN7testing8internal17TestEventRepeater14OnTestSuiteEndERKNS_9TestSuiteE
FNDA:94,_ZN7testing8internal17TestEventRepeater14OnTestSuiteEndERKNS_9TestSuiteE
FN:3862,_ZN7testing8internal17TestEventRepeater16OnTestProgramEndERKNS_8UnitTestE
FNDA:87,_ZN7testing8internal17TestEventRepeater16OnTestProgramEndERKNS_8UnitTestE
FN:3867,_ZN7testing8internal17TestEventRepeater20OnTestIterationStartERKNS_8UnitTestEi
FNDA:87,_ZN7testing8internal17TestEventRepeater20OnTestIterationStartERKNS_8UnitTestEi
FN:3876,_ZN7testing8internal17TestEventRepeater18OnTestIterationEndERKNS_8UnitTestEi
FNDA:87,_ZN7testing8internal17TestEventRepeater18OnTestIterationEndERKNS_8UnitTestEi
FN:3888,_ZN7testing8internal24XmlUnitTestResultPrinterD1Ev
FNDA:0,_ZN7testing8internal24XmlUnitTestResultPrinterD1Ev
FN:3888,_ZN7testing8internal24XmlUnitTestResultPrinterD0Ev
FNDA:0,_ZN7testing8internal24XmlUnitTestResultPrinterD0Ev
FN:3888,_ZN7testing8internal24XmlUnitTestResultPrinterD2Ev
FNDA:0,_ZN7testing8internal24XmlUnitTestResultPrinterD2Ev
FN:3902,_ZN7testing8internal24XmlUnitTestResultPrinter24IsNormalizableWhitespaceEh
FNDA:0,_ZN7testing8internal24XmlUnitTestResultPrinter24IsNormalizableWhitespaceEh
FN:3908,_ZN7testing8internal24XmlUnitTestResultPrinter19IsValidXmlCharacterEh
FNDA:0,_ZN7testing8internal24XmlUnitTestResultPrinter19IsValidXmlCharacterEh
FN:3922,_ZN7testing8internal24XmlUnitTestResultPrinter18EscapeXmlAttributeERKNSt3__112basic_stringIcNS2_11char_traitsIcEENS2_9allocatorIcEEEE
FNDA:0,_ZN7testing8internal24XmlUnitTestResultPrinter18EscapeXmlAttributeERKNSt3__112basic_stringIcNS2_11char_traitsIcEENS2_9allocatorIcEEEE
FN:3983,_ZN7testing8internal24XmlUnitTestResultPrinterC2EPKc
FNDA:0,_ZN7testing8internal24XmlUnitTestResultPrinterC2EPKc
FN:3983,_ZN7testing8internal24XmlUnitTestResultPrinterC1EPKc
FNDA:0,_ZN7testing8internal24XmlUnitTestResultPrinterC1EPKc
FN:3991,_ZN7testing8internal24XmlUnitTestResultPrinter18OnTestIterationEndERKNS_8UnitTestEi
FNDA:0,_ZN7testing8internal24XmlUnitTestResultPrinter18OnTestIterationEndERKNS_8UnitTestEi
FN:4000,_ZN7testing8internal24XmlUnitTestResultPrinter23ListTestsMatchingFilterERKNSt3__16vectorIPNS_9TestSuiteENS2_9allocatorIS5_EEEE
FNDA:0,_ZN7testing8internal24XmlUnitTestResultPrinter23ListTestsMatchingFilterERKNSt3__16vectorIPNS_9TestSuiteENS2_9allocatorIS5_EEEE
FN:4019,_ZN7testing8internal24XmlUnitTestResultPrinter9EscapeXmlERKNSt3__112basic_stringIcNS2_11char_traitsIcEENS2_9allocatorIcEEEEb
FNDA:0,_ZN7testing8internal24XmlUnitTestResultPrinter9EscapeXmlERKNSt3__112basic_stringIcNS2_11char_traitsIcEENS2_9allocatorIcEEEEb
FN:4066,_ZN7testing8internal24XmlUnitTestResultPrinter26RemoveInvalidXmlCharactersERKNSt3__112basic_stringIcNS2_11char_traitsIcEENS2_9allocatorIcEEEE
FNDA:0,_ZN7testing8internal24XmlUnitTestResultPrinter26RemoveInvalidXmlCharactersERKNSt3__112basic_stringIcNS2_11char_traitsIcEENS2_9allocatorIcEEEE
FN:4094,_ZN7testing8internal27FormatTimeInMillisAsSecondsEx
FNDA:0,_ZN7testing8internal27FormatTimeInMillisAsSecondsEx
FN:4100,_ZN7testing8internalL17PortableLocaltimeElP2tm
FNDA:0,_ZN7testing8internalL17PortableLocaltimeElP2tm
FN:4121,_ZN7testing8internal32FormatEpochTimeInMillisAsIso8601Ex
FNDA:0,_ZN7testing8internal32FormatEpochTimeInMillisAsIso8601Ex
FN:4136,_ZN7testing8internal24XmlUnitTestResultPrinter21OutputXmlCDataSectionEPNSt3__113basic_ostreamIcNS2_11char_traitsIcEEEEPKc
FNDA:0,_ZN7testing8internal24XmlUnitTestResultPrinter21OutputXmlCDataSectionEPNSt3__113basic_ostreamIcNS2_11char_traitsIcEEEEPKc
FN:4155,_ZN7testing8internal24XmlUnitTestResultPrinter18OutputXmlAttributeEPNSt3__113basic_ostreamIcNS2_11char_traitsIcEEEERKNS2_12basic_stringIcS5_NS2_9allocatorIcEEEESD_SD_
FNDA:0,_ZN7testing8internal24XmlUnitTestResultPrinter18OutputXmlAttributeEPNSt3__113basic_ostreamIcNS2_11char_traitsIcEEEERKNS2_12basic_stringIcS5_NS2_9allocatorIcEEEESD_SD_
FN:4170,_ZN7testing8internal24XmlUnitTestResultPrinter31OutputXmlTestSuiteForTestResultEPNSt3__113basic_ostreamIcNS2_11char_traitsIcEEEERKNS_10TestResultE
FNDA:0,_ZN7testing8internal24XmlUnitTestResultPrinter31OutputXmlTestSuiteForTestResultEPNSt3__113basic_ostreamIcNS2_11char_traitsIcEEEERKNS_10TestResultE
FN:4207,_ZN7testing8internal24XmlUnitTestResultPrinter17OutputXmlTestInfoEPNSt3__113basic_ostreamIcNS2_11char_traitsIcEEEEPKcRKNS_8TestInfoE
FNDA:0,_ZN7testing8internal24XmlUnitTestResultPrinter17OutputXmlTestInfoEPNSt3__113basic_ostreamIcNS2_11char_traitsIcEEEEPKcRKNS_8TestInfoE
FN:4253,_ZN7testing8internal24XmlUnitTestResultPrinter19OutputXmlTestResultEPNSt3__113basic_ostreamIcNS2_11char_traitsIcEEEERKNS_10TestResultE
FNDA:0,_ZN7testing8internal24XmlUnitTestResultPrinter19OutputXmlTestResultEPNSt3__113basic_ostreamIcNS2_11char_traitsIcEEEERKNS_10TestResultE
FN:4300,_ZN7testing8internal24XmlUnitTestResultPrinter17PrintXmlTestSuiteEPNSt3__113basic_ostreamIcNS2_11char_traitsIcEEEERKNS_9TestSuiteE
FNDA:0,_ZN7testing8internal24XmlUnitTestResultPrinter17PrintXmlTestSuiteEPNSt3__113basic_ostreamIcNS2_11char_traitsIcEEEERKNS_9TestSuiteE
FN:4334,_ZN7testing8internal24XmlUnitTestResultPrinter16PrintXmlUnitTestEPNSt3__113basic_ostreamIcNS2_11char_traitsIcEEEERKNS_8UnitTestE
FNDA:0,_ZN7testing8internal24XmlUnitTestResultPrinter16PrintXmlUnitTestEPNSt3__113basic_ostreamIcNS2_11char_traitsIcEEEERKNS_8UnitTestE
FN:4378,_ZN7testing8internal24XmlUnitTestResultPrinter17PrintXmlTestsListEPNSt3__113basic_ostreamIcNS2_11char_traitsIcEEEERKNS2_6vectorIPNS_9TestSuiteENS2_9allocatorISA_EEEE
FNDA:0,_ZN7testing8internal24XmlUnitTestResultPrinter17PrintXmlTestsListEPNSt3__113basic_ostreamIcNS2_11char_traitsIcEEEERKNS2_6vectorIPNS_9TestSuiteENS2_9allocatorISA_EEEE
FN:4402,_ZN7testing8internal24XmlUnitTestResultPrinter29TestPropertiesAsXmlAttributesERKNS_10TestResultE
FNDA:0,_ZN7testing8internal24XmlUnitTestResultPrinter29TestPropertiesAsXmlAttributesERKNS_10TestResultE
FN:4413,_ZN7testing8internal24XmlUnitTestResultPrinter23OutputXmlTestPropertiesEPNSt3__113basic_ostreamIcNS2_11char_traitsIcEEEERKNS_10TestResultE
FNDA:0,_ZN7testing8internal24XmlUnitTestResultPrinter23OutputXmlTestPropertiesEPNSt3__113basic_ostreamIcNS2_11char_traitsIcEEEERKNS_10TestResultE
FN:4436,_ZN7testing8internal25JsonUnitTestResultPrinterD1Ev
FNDA:0,_ZN7testing8internal25JsonUnitTestResultPrinterD1Ev
FN:4436,_ZN7testing8internal25JsonUnitTestResultPrinterD0Ev
FNDA:0,_ZN7testing8internal25JsonUnitTestResultPrinterD0Ev
FN:4436,_ZN7testing8internal25JsonUnitTestResultPrinterD2Ev
FNDA:0,_ZN7testing8internal25JsonUnitTestResultPrinterD2Ev
FN:4498,_ZN7testing8internal25JsonUnitTestResultPrinterC2EPKc
FNDA:0,_ZN7testing8internal25JsonUnitTestResultPrinterC2EPKc
FN:4498,_ZN7testing8internal25JsonUnitTestResultPrinterC1EPKc
FNDA:0,_ZN7testing8internal25JsonUnitTestResultPrinterC1EPKc
FN:4505,_ZN7testing8internal25JsonUnitTestResultPrinter18OnTestIterationEndERKNS_8UnitTestEi
FNDA:0,_ZN7testing8internal25JsonUnitTestResultPrinter18OnTestIterationEndERKNS_8UnitTestEi
FN:4515,_ZN7testing8internal25JsonUnitTestResultPrinter10EscapeJsonERKNSt3__112basic_stringIcNS2_11char_traitsIcEENS2_9allocatorIcEEEE
FNDA:0,_ZN7testing8internal25JsonUnitTestResultPrinter10EscapeJsonERKNSt3__112basic_stringIcNS2_11char_traitsIcEENS2_9allocatorIcEEEE
FN:4558,_ZN7testing8internalL28FormatTimeInMillisAsDurationEx
FNDA:0,_ZN7testing8internalL28FormatTimeInMillisAsDurationEx
FN:4566,_ZN7testing8internalL32FormatEpochTimeInMillisAsRFC3339Ex
FNDA:0,_ZN7testing8internalL32FormatEpochTimeInMillisAsRFC3339Ex
FN:4579,_ZN7testing8internalL6IndentEm
FNDA:0,_ZN7testing8internalL6IndentEm
FN:4583,_ZN7testing8internal25JsonUnitTestResultPrinter13OutputJsonKeyEPNSt3__113basic_ostreamIcNS2_11char_traitsIcEEEERKNS2_12basic_stringIcS5_NS2_9allocatorIcEEEESD_SD_SD_b
FNDA:0,_ZN7testing8internal25JsonUnitTestResultPrinter13OutputJsonKeyEPNSt3__113basic_ostreamIcNS2_11char_traitsIcEEEERKNS2_12basic_stringIcS5_NS2_9allocatorIcEEEESD_SD_SD_b
FN:4601,_ZN7testing8internal25JsonUnitTestResultPrinter13OutputJsonKeyEPNSt3__113basic_ostreamIcNS2_11char_traitsIcEEEERKNS2_12basic_stringIcS5_NS2_9allocatorIcEEEESD_iSD_b
FNDA:0,_ZN7testing8internal25JsonUnitTestResultPrinter13OutputJsonKeyEPNSt3__113basic_ostreamIcNS2_11char_traitsIcEEEERKNS2_12basic_stringIcS5_NS2_9allocatorIcEEEESD_iSD_b
FN:4617,_ZN7testing8internal25JsonUnitTestResultPrinter32OutputJsonTestSuiteForTestResultEPNSt3__113basic_ostreamIcNS2_11char_traitsIcEEEERKNS_10TestResultE
FNDA:0,_ZN7testing8internal25JsonUnitTestResultPrinter32OutputJsonTestSuiteForTestResultEPNSt3__113basic_ostreamIcNS2_11char_traitsIcEEEERKNS_10TestResultE
FN:4659,_ZN7testing8internal25JsonUnitTestResultPrinter18OutputJsonTestInfoEPNSt3__113basic_ostreamIcNS2_11char_traitsIcEEEEPKcRKNS_8TestInfoE
FNDA:0,_ZN7testing8internal25JsonUnitTestResultPrinter18OutputJsonTestInfoEPNSt3__113basic_ostreamIcNS2_11char_traitsIcEEEEPKcRKNS_8TestInfoE
FN:4706,_ZN7testing8internal25JsonUnitTestResultPrinter20OutputJsonTestResultEPNSt3__113basic_ostreamIcNS2_11char_traitsIcEEEERKNS_10TestResultE
FNDA:0,_ZN7testing8internal25JsonUnitTestResultPrinter20OutputJsonTestResultEPNSt3__113basic_ostreamIcNS2_11char_traitsIcEEEERKNS_10TestResultE
FN:4736,_ZN7testing8internal25JsonUnitTestResultPrinter18PrintJsonTestSuiteEPNSt3__113basic_ostreamIcNS2_11char_traitsIcEEEERKNS_9TestSuiteE
FNDA:0,_ZN7testing8internal25JsonUnitTestResultPrinter18PrintJsonTestSuiteEPNSt3__113basic_ostreamIcNS2_11char_traitsIcEEEERKNS_9TestSuiteE
FN:4779,_ZN7testing8internal25JsonUnitTestResultPrinter17PrintJsonUnitTestEPNSt3__113basic_ostreamIcNS2_11char_traitsIcEEEERKNS_8UnitTestE
FNDA:0,_ZN7testing8internal25JsonUnitTestResultPrinter17PrintJsonUnitTestEPNSt3__113basic_ostreamIcNS2_11char_traitsIcEEEERKNS_8UnitTestE
FN:4832,_ZN7testing8internal25JsonUnitTestResultPrinter17PrintJsonTestListEPNSt3__113basic_ostreamIcNS2_11char_traitsIcEEEERKNS2_6vectorIPNS_9TestSuiteENS2_9allocatorISA_EEEE
FNDA:0,_ZN7testing8internal25JsonUnitTestResultPrinter17PrintJsonTestListEPNSt3__113basic_ostreamIcNS2_11char_traitsIcEEEERKNS2_6vectorIPNS_9TestSuiteENS2_9allocatorISA_EEEE
FN:4859,_ZN7testing8internal25JsonUnitTestResultPrinter20TestPropertiesAsJsonERKNS_10TestResultERKNSt3__112basic_stringIcNS5_11char_traitsIcEENS5_9allocatorIcEEEE
FNDA:0,_ZN7testing8internal25JsonUnitTestResultPrinter20TestPropertiesAsJsonERKNS_10TestResultERKNSt3__112basic_stringIcNS5_11char_traitsIcEENS5_9allocatorIcEEEE
FN:4948,_ZN7testing8internal18OsStackTraceGetter17CurrentStackTraceEii
FNDA:0,_ZN7testing8internal18OsStackTraceGetter17CurrentStackTraceEii
FN:4998,_ZN7testing8internal18OsStackTraceGetter16UponLeavingGTestEv
FNDA:833,_ZN7testing8internal18OsStackTraceGetter16UponLeavingGTestEv
FN:5014,_ZN7testing8internal23ScopedPrematureExitFileC1EPKc
FNDA:90,_ZN7testing8internal23ScopedPrematureExitFileC1EPKc
FN:5014,_ZN7testing8internal23ScopedPrematureExitFileC2EPKc
FNDA:90,_ZN7testing8internal23ScopedPrematureExitFileC2EPKc
FN:5028,_ZN7testing8internal23ScopedPrematureExitFileD1Ev
FNDA:90,_ZN7testing8internal23ScopedPrematureExitFileD1Ev
FN:5028,_ZN7testing8internal23ScopedPrematureExitFileD2Ev
FNDA:90,_ZN7testing8internal23ScopedPrematureExitFileD2Ev
FN:5052,_ZN7testing18TestEventListenersC2Ev
FNDA:90,_ZN7testing18TestEventListenersC2Ev
FN:5052,_ZN7testing18TestEventListenersC1Ev
FNDA:90,_ZN7testing18TestEventListenersC1Ev
FN:5057,_ZN7testing18TestEventListenersD2Ev
FNDA:0,_ZN7testing18TestEventListenersD2Ev
FN:5057,_ZN7testing18TestEventListenersD1Ev
FNDA:0,_ZN7testing18TestEventListenersD1Ev
FN:5063,_ZN7testing18TestEventListeners6AppendEPNS_17TestEventListenerE
FNDA:90,_ZN7testing18TestEventListeners6AppendEPNS_17TestEventListenerE
FN:5070,_ZN7testing18TestEventListeners7ReleaseEPNS_17TestEventListenerE
FNDA:90,_ZN7testing18TestEventListeners7ReleaseEPNS_17TestEventListenerE
FN:5080,_ZN7testing18TestEventListeners8repeaterEv
FNDA:946,_ZN7testing18TestEventListeners8repeaterEv
FN:5087,_ZN7testing18TestEventListeners23SetDefaultResultPrinterEPNS_17TestEventListenerE
FNDA:90,_ZN7testing18TestEventListeners23SetDefaultResultPrinterEPNS_17TestEventListenerE
FN:5102,_ZN7testing18TestEventListeners22SetDefaultXmlGeneratorEPNS_17TestEventListenerE
FNDA:0,_ZN7testing18TestEventListeners22SetDefaultXmlGeneratorEPNS_17TestEventListenerE
FN:5114,_ZNK7testing18TestEventListeners22EventForwardingEnabledEv
FNDA:0,_ZNK7testing18TestEventListeners22EventForwardingEnabledEv
FN:5118,_ZN7testing18TestEventListeners23SuppressEventForwardingEv
FNDA:0,_ZN7testing18TestEventListeners23SuppressEventForwardingEv
FN:5131,_ZN7testing8UnitTest11GetInstanceEv
FNDA:7093,_ZN7testing8UnitTest11GetInstanceEv
FN:5146,_ZNK7testing8UnitTest27successful_test_suite_countEv
FNDA:0,_ZNK7testing8UnitTest27successful_test_suite_countEv
FN:5151,_ZNK7testing8UnitTest23failed_test_suite_countEv
FNDA:0,_ZNK7testing8UnitTest23failed_test_suite_countEv
FN:5156,_ZNK7testing8UnitTest22total_test_suite_countEv
FNDA:0,_ZNK7testing8UnitTest22total_test_suite_countEv
FN:5162,_ZNK7testing8UnitTest23test_suite_to_run_countEv
FNDA:174,_ZNK7testing8UnitTest23test_suite_to_run_countEv
FN:5168,_ZNK7testing8UnitTest26successful_test_case_countEv
FNDA:0,_ZNK7testing8UnitTest26successful_test_case_countEv
FN:5171,_ZNK7testing8UnitTest22failed_test_case_countEv
FNDA:0,_ZNK7testing8UnitTest22failed_test_case_countEv
FN:5174,_ZNK7testing8UnitTest21total_test_case_countEv
FNDA:0,_ZNK7testing8UnitTest21total_test_case_countEv
FN:5177,_ZNK7testing8UnitTest22test_case_to_run_countEv
FNDA:0,_ZNK7testing8UnitTest22test_case_to_run_countEv
FN:5183,_ZNK7testing8UnitTest21successful_test_countEv
FNDA:87,_ZNK7testing8UnitTest21successful_test_countEv
FN:5188,_ZNK7testing8UnitTest18skipped_test_countEv
FNDA:87,_ZNK7testing8UnitTest18skipped_test_countEv
FN:5193,_ZNK7testing8UnitTest17failed_test_countEv
FNDA:0,_ZNK7testing8UnitTest17failed_test_countEv
FN:5196,_ZNK7testing8UnitTest30reportable_disabled_test_countEv
FNDA:87,_ZNK7testing8UnitTest30reportable_disabled_test_countEv
FN:5201,_ZNK7testing8UnitTest19disabled_test_countEv
FNDA:0,_ZNK7testing8UnitTest19disabled_test_countEv
FN:5206,_ZNK7testing8UnitTest21reportable_test_countEv
FNDA:0,_ZNK7testing8UnitTest21reportable_test_countEv
FN:5211,_ZNK7testing8UnitTest16total_test_countEv
FNDA:0,_ZNK7testing8UnitTest16total_test_countEv
FN:5214,_ZNK7testing8UnitTest17test_to_run_countEv
FNDA:174,_ZNK7testing8UnitTest17test_to_run_countEv
FN:5218,_ZNK7testing8UnitTest15start_timestampEv
FNDA:0,_ZNK7testing8UnitTest15start_timestampEv
FN:5223,_ZNK7testing8UnitTest12elapsed_timeEv
FNDA:87,_ZNK7testing8UnitTest12elapsed_timeEv
FN:5229,_ZNK7testing8UnitTest6PassedEv
FNDA:87,_ZNK7testing8UnitTest6PassedEv
FN:5233,_ZNK7testing8UnitTest6FailedEv
FNDA:0,_ZNK7testing8UnitTest6FailedEv
FN:5237,_ZNK7testing8UnitTest12GetTestSuiteEi
FNDA:0,_ZNK7testing8UnitTest12GetTestSuiteEi
FN:5243,_ZNK7testing8UnitTest11GetTestCaseEi
FNDA:0,_ZNK7testing8UnitTest11GetTestCaseEi
FN:5250,_ZNK7testing8UnitTest18ad_hoc_test_resultEv
FNDA:0,_ZNK7testing8UnitTest18ad_hoc_test_resultEv
FN:5256,_ZN7testing8UnitTest19GetMutableTestSuiteEi
FNDA:0,_ZN7testing8UnitTest19GetMutableTestSuiteEi
FN:5262,_ZN7testing8UnitTest9listenersEv
FNDA:859,_ZN7testing8UnitTest9listenersEv
FN:5274,_ZN7testing8UnitTest14AddEnvironmentEPNS_11EnvironmentE
FNDA:0,_ZN7testing8UnitTest14AddEnvironmentEPNS_11EnvironmentE
FN:5287,_ZN7testing8UnitTest17AddTestPartResultENS_14TestPartResult4TypeEPKciRKNSt3__112basic_stringIcNS5_11char_traitsIcEENS5_9allocatorIcEEEESD_
FNDA:0,_ZN7testing8UnitTest17AddTestPartResultENS_14TestPartResult4TypeEPKciRKNSt3__112basic_stringIcNS5_11char_traitsIcEENS5_9allocatorIcEEEESD_
FN:5357,_ZN7testing8UnitTest14RecordPropertyERKNSt3__112basic_stringIcNS1_11char_traitsIcEENS1_9allocatorIcEEEES9_
FNDA:0,_ZN7testing8UnitTest14RecordPropertyERKNSt3__112basic_stringIcNS1_11char_traitsIcEENS1_9allocatorIcEEEES9_
FN:5367,_ZN7testing8UnitTest3RunEv
FNDA:90,_ZN7testing8UnitTest3RunEv
FN:5453,_ZNK7testing8UnitTest20original_working_dirEv
FNDA:0,_ZNK7testing8UnitTest20original_working_dirEv
FN:5459,_ZNK7testing8UnitTest18current_test_suiteEv
FNDA:0,_ZNK7testing8UnitTest18current_test_suiteEv
FN:5467,_ZNK7testing8UnitTest17current_test_caseEv
FNDA:0,_ZNK7testing8UnitTest17current_test_caseEv
FN:5476,_ZNK7testing8UnitTest17current_test_infoEv
FNDA:0,_ZNK7testing8UnitTest17current_test_infoEv
FN:5483,_ZNK7testing8UnitTest11random_seedEv
FNDA:0,_ZNK7testing8UnitTest11random_seedEv
FN:5488,_ZN7testing8UnitTest27parameterized_test_registryEv
FNDA:0,_ZN7testing8UnitTest27parameterized_test_registryEv
FN:5493,_ZN7testing8UnitTestC1Ev
FNDA:90,_ZN7testing8UnitTestC1Ev
FN:5493,_ZN7testing8UnitTestC2Ev
FNDA:90,_ZN7testing8UnitTestC2Ev
FN:5496,_ZN7testing8UnitTestD1Ev
FNDA:0,_ZN7testing8UnitTestD1Ev
FN:5496,_ZN7testing8UnitTestD2Ev
FNDA:0,_ZN7testing8UnitTestD2Ev
FN:5496,_ZN7testing8UnitTestD0Ev
FNDA:0,_ZN7testing8UnitTestD0Ev
FN:5500,_ZN7testing8UnitTest14PushGTestTraceERKNS_8internal9TraceInfoE
FNDA:0,_ZN7testing8UnitTest14PushGTestTraceERKNS_8internal9TraceInfoE
FN:5507,_ZN7testing8UnitTest13PopGTestTraceEv
FNDA:0,_ZN7testing8UnitTest13PopGTestTraceEv
FN:5514,_ZN7testing8internal12UnitTestImplC1EPNS_8UnitTestE
FNDA:90,_ZN7testing8internal12UnitTestImplC1EPNS_8UnitTestE
FN:5514,_ZN7testing8internal12UnitTestImplC2EPNS_8UnitTestE
FNDA:90,_ZN7testing8internal12UnitTestImplC2EPNS_8UnitTestE
FN:5543,_ZN7testing8internal12UnitTestImplD2Ev
FNDA:0,_ZN7testing8internal12UnitTestImplD2Ev
FN:5543,_ZN7testing8internal12UnitTestImplD1Ev
FNDA:0,_ZN7testing8internal12UnitTestImplD1Ev
FN:5543,_ZN7testing8internal12UnitTestImplD0Ev
FNDA:0,_ZN7testing8internal12UnitTestImplD0Ev
FN:5558,_ZN7testing8internal12UnitTestImpl14RecordPropertyERKNS_12TestPropertyE
FNDA:0,_ZN7testing8internal12UnitTestImpl14RecordPropertyERKNS_12TestPropertyE
FN:5578,_ZN7testing8internal12UnitTestImpl32SuppressTestEventsIfInSubprocessEv
FNDA:90,_ZN7testing8internal12UnitTestImpl32SuppressTestEventsIfInSubprocessEv
FN:5586,_ZN7testing8internal12UnitTestImpl18ConfigureXmlOutputEv
FNDA:90,_ZN7testing8internal12UnitTestImpl18ConfigureXmlOutputEv
FN:5623,_ZN7testing8internal12UnitTestImpl19PostFlagParsingInitEv
FNDA:180,_ZN7testing8internal12UnitTestImpl19PostFlagParsingInitEv
FN:5673,_ZN7testing8internal15TestSuiteNameIsD1Ev
FNDA:3870,_ZN7testing8internal15TestSuiteNameIsD1Ev
FN:5673,_ZN7testing8internal15TestSuiteNameIsD2Ev
FNDA:3870,_ZN7testing8internal15TestSuiteNameIsD2Ev
FN:5676,_ZN7testing8internal15TestSuiteNameIsC1ERKNSt3__112basic_stringIcNS2_11char_traitsIcEENS2_9allocatorIcEEEE
FNDA:3870,_ZN7testing8internal15TestSuiteNameIsC1ERKNSt3__112basic_stringIcNS2_11char_traitsIcEENS2_9allocatorIcEEEE
FN:5676,_ZN7testing8internal15TestSuiteNameIsC2ERKNSt3__112basic_stringIcNS2_11char_traitsIcEENS2_9allocatorIcEEEE
FNDA:3870,_ZN7testing8internal15TestSuiteNameIsC2ERKNSt3__112basic_stringIcNS2_11char_traitsIcEENS2_9allocatorIcEEEE
FN:5679,_ZNK7testing8internal15TestSuiteNameIsclEPKNS_9TestSuiteE
FNDA:5670,_ZNK7testing8internal15TestSuiteNameIsclEPKNS_9TestSuiteE
FN:5700,_ZN7testing8internal12UnitTestImpl12GetTestSuiteEPKcS3_PFvvES5_
FNDA:3870,_ZN7testing8internal12UnitTestImpl12GetTestSuiteEPKcS3_PFvvES5_
FN:5736,_ZN7testing8internalL16SetUpEnvironmentEPNS_11EnvironmentE
FNDA:0,_ZN7testing8internalL16SetUpEnvironmentEPNS_11EnvironmentE
FN:5737,_ZN7testing8internalL19TearDownEnvironmentEPNS_11EnvironmentE
FNDA:0,_ZN7testing8internalL19TearDownEnvironmentEPNS_11EnvironmentE
FN:5748,_ZN7testing8internal12UnitTestImpl11RunAllTestsEv
FNDA:90,_ZN7testing8internal12UnitTestImpl11RunAllTestsEv
FN:5947,_ZN7testing8internal30WriteToShardStatusFileIfNeededEv
FNDA:90,_ZN7testing8internal30WriteToShardStatusFileIfNeededEv
FN:5969,_ZN7testing8internal11ShouldShardEPKcS2_b
FNDA:177,_ZN7testing8internal11ShouldShardEPKcS2_b
FN:6013,_ZN7testing8internal17Int32FromEnvOrDieEPKci
FNDA:354,_ZN7testing8internal17Int32FromEnvOrDieEPKci
FN:6031,_ZN7testing8internal20ShouldRunTestOnShardEiii
FNDA:0,_ZN7testing8internal20ShouldRunTestOnShardEiii
FN:6042,_ZN7testing8internal12UnitTestImpl11FilterTestsENS1_18ReactionToShardingE
FNDA:90,_ZN7testing8internal12UnitTestImpl11FilterTestsENS1_18ReactionToShardingE
FN:6101,_ZN7testing8internalL14PrintOnOneLineEPKci
FNDA:0,_ZN7testing8internalL14PrintOnOneLineEPKci
FN:6120,_ZN7testing8internal12UnitTestImpl23ListTestsMatchingFilterEv
FNDA:3,_ZN7testing8internal12UnitTestImpl23ListTestsMatchingFilterEv
FN:6177,_ZN7testing8internal12UnitTestImpl25set_os_stack_trace_getterEPNS0_27OsStackTraceGetterInterfaceE
FNDA:0,_ZN7testing8internal12UnitTestImpl25set_os_stack_trace_getterEPNS0_27OsStackTraceGetterInterfaceE
FN:6188,_ZN7testing8internal12UnitTestImpl21os_stack_trace_getterEv
FNDA:833,_ZN7testing8internal12UnitTestImpl21os_stack_trace_getterEv
FN:6201,_ZN7testing8internal12UnitTestImpl19current_test_resultEv
FNDA:690,_ZN7testing8internal12UnitTestImpl19current_test_resultEv
FN:6213,_ZN7testing8internal12UnitTestImpl12ShuffleTestsEv
FNDA:0,_ZN7testing8internal12UnitTestImpl12ShuffleTestsEv
FN:6228,_ZN7testing8internal12UnitTestImpl14UnshuffleTestsEv
FNDA:87,_ZN7testing8internal12UnitTestImpl14UnshuffleTestsEv
FN:6248,_ZN7testing8internal31GetCurrentOsStackTraceExceptTopEPNS_8UnitTestEi
FNDA:0,_ZN7testing8internal31GetCurrentOsStackTraceExceptTopEPNS_8UnitTestEi
FN:6260,_ZN7testing8internal6IsTrueEb
FNDA:9630,_ZN7testing8internal6IsTrueEb
FN:6262,_ZN7testing8internal10AlwaysTrueEv
FNDA:1800,_ZN7testing8internal10AlwaysTrueEv
FN:6274,_ZN7testing8internal10SkipPrefixEPKcPS2_
FNDA:0,_ZN7testing8internal10SkipPrefixEPKcPS2_
FN:6288,_ZN7testing8internalL14ParseFlagValueEPKcS2_b
FNDA:804,_ZN7testing8internalL14ParseFlagValueEPKcS2_b
FN:6326,_ZN7testing8internalL9ParseFlagEPKcS2_Pb
FNDA:534,_ZN7testing8internalL9ParseFlagEPKcS2_Pb
FN:6342,_ZN7testing8internal9ParseFlagEPKcS2_Pi
FNDA:0,_ZN7testing8internal9ParseFlagEPKcS2_Pi
FN:6359,_ZN7testing8internalL9ParseFlagINSt3__112basic_stringIcNS2_11char_traitsIcEENS2_9allocatorIcEEEEEEbPKcSA_PT_
FNDA:270,_ZN7testing8internalL9ParseFlagINSt3__112basic_stringIcNS2_11char_traitsIcEENS2_9allocatorIcEEEEEEbPKcSA_PT_
FN:6377,_ZN7testing8internalL23HasGoogleTestFlagPrefixEPKc
FNDA:0,_ZN7testing8internalL23HasGoogleTestFlagPrefixEPKc
FN:6394,_ZN7testing8internalL17PrintColorEncodedEPKc
FNDA:0,_ZN7testing8internalL17PrintColorEncodedEPKc
FN:6524,_ZN7testing8internalL19ParseGoogleTestFlagEPKc
FNDA:175,_ZN7testing8internalL19ParseGoogleTestFlagEPKc
FN:6559,_ZN7testing8internalL17LoadFlagsFromFileERKNSt3__112basic_stringIcNS1_11char_traitsIcEENS1_9allocatorIcEEEE
FNDA:0,_ZN7testing8internalL17LoadFlagsFromFileERKNSt3__112basic_stringIcNS1_11char_traitsIcEENS1_9allocatorIcEEEE
FN:6580,_ZN7testing8internal28ParseGoogleTestFlagsOnlyImplIcEEvPiPPT_
FNDA:90,_ZN7testing8internal28ParseGoogleTestFlagsOnlyImplIcEEvPiPPT_
FN:6580,_ZN7testing8internal28ParseGoogleTestFlagsOnlyImplIwEEvPiPPT_
FNDA:0,_ZN7testing8internal28ParseGoogleTestFlagsOnlyImplIwEEvPiPPT_
FN:6631,_ZN7testing8internal24ParseGoogleTestFlagsOnlyEPiPPc
FNDA:90,_ZN7testing8internal24ParseGoogleTestFlagsOnlyEPiPPc
FN:6665,_ZN7testing8internal24ParseGoogleTestFlagsOnlyEPiPPw
FNDA:0,_ZN7testing8internal24ParseGoogleTestFlagsOnlyEPiPPw
FN:6674,_ZN7testing8internal18InitGoogleTestImplIcEEvPiPPT_
FNDA:90,_ZN7testing8internal18InitGoogleTestImplIcEEvPiPPT_
FN:6674,_ZN7testing8internal18InitGoogleTestImplIwEEvPiPPT_
FNDA:0,_ZN7testing8internal18InitGoogleTestImplIwEEvPiPPT_
FN:6710,_ZN7testing14InitGoogleTestEPiPPc
FNDA:90,_ZN7testing14InitGoogleTestEPiPPc
FN:6720,_ZN7testing14InitGoogleTestEPiPPw
FNDA:0,_ZN7testing14InitGoogleTestEPiPPw
FN:6730,_ZN7testing14InitGoogleTestEv
FNDA:0,_ZN7testing14InitGoogleTestEv
FN:6749,_ZN7testingL17GetTempDirFromEnvESt16initializer_listIPKcES2_c
FNDA:0,_ZN7testingL17GetTempDirFromEnvESt16initializer_listIPKcES2_c
FN:6765,_ZN7testing7TempDirEv
FNDA:0,_ZN7testing7TempDirEv
FN:6781,_ZN7testing11ScopedTrace9PushTraceEPKciNSt3__112basic_stringIcNS3_11char_traitsIcEENS3_9allocatorIcEEEE
FNDA:0,_ZN7testing11ScopedTrace9PushTraceEPKciNSt3__112basic_stringIcNS3_11char_traitsIcEENS3_9allocatorIcEEEE
FN:6791,_ZN7testing11ScopedTraceD2Ev
FNDA:0,_ZN7testing11ScopedTraceD2Ev
FN:6791,_ZN7testing11ScopedTraceD1Ev
FNDA:0,_ZN7testing11ScopedTraceD1Ev
DA:190,0
DA:191,0
DA:192,0
DA:193,0
DA:195,0
DA:196,0
DA:197,0
DA:198,0
DA:199,0
DA:200,0
DA:201,0
DA:202,0
DA:208,90
DA:209,90
DA:210,90
DA:211,90
DA:212,0
DA:214,90
DA:215,90
DA:219,90
DA:220,90
DA:221,90
DA:222,90
DA:223,0
DA:225,90
DA:226,90
DA:378,0
DA:381,0
DA:383,0
DA:384,0
DA:385,0
DA:386,0
DA:391,0
DA:392,0
DA:397,180
DA:402,435
DA:404,435
DA:405,3915
DA:406,3480
DA:407,3480
DA:408,435
DA:412,0
DA:413,0
DA:417,1392
DA:418,1392
DA:423,1392
DA:424,1392
DA:428,0
DA:430,0
DA:432,0
DA:435,0
DA:436,0
DA:437,0
DA:438,0
DA:439,0
DA:442,0
DA:457,0
DA:459,0
DA:460,0
DA:461,0
DA:463,0
DA:464,0
DA:465,0
DA:466,0
DA:467,0
DA:468,0
DA:470,0
DA:480,90
DA:481,90
DA:485,0
DA:486,0
DA:487,0
DA:491,0
DA:493,0
DA:494,0
DA:496,0
DA:505,0
DA:515,0
DA:516,0
DA:521,0
DA:522,0
DA:524,0
DA:525,0
DA:526,0
DA:529,0
DA:530,0
DA:532,0
DA:533,0
DA:535,0
DA:537,0
DA:538,0
DA:539,0
DA:541,0
DA:542,0
DA:543,0
DA:544,0
DA:546,0
DA:548,0
DA:549,0
DA:550,0
DA:552,0
DA:554,0
DA:555,0
DA:556,0
DA:557,0
DA:558,0
DA:559,0
DA:561,0
DA:563,90
DA:564,90
DA:565,90
DA:566,0
DA:567,0
DA:570,0
DA:582,0
DA:583,0
DA:586,0
DA:587,0
DA:588,0
DA:591,0
DA:592,0
DA:593,0
DA:595,0
DA:596,0
DA:597,90
DA:602,180
DA:609,180
DA:615,0
DA:616,0
DA:621,0
DA:624,0
DA:625,0
DA:630,93
DA:631,93
DA:632,93
DA:633,93
DA:634,186
DA:635,93
DA:636,0
DA:637,0
DA:638,93
DA:642,0
DA:643,0
DA:644,0
DA:646,0
DA:647,0
DA:649,0
DA:650,0
DA:651,0
DA:652,0
DA:653,0
DA:654,0
DA:655,0
DA:657,0
DA:658,0
DA:659,0
DA:660,0
DA:661,0
DA:663,0
DA:665,0
DA:666,0
DA:667,0
DA:668,0
DA:669,0
DA:677,17092
DA:679,17092
DA:680,17092
DA:681,17092
DA:683,17092
DA:684,17092
DA:686,398718
DA:687,398546
DA:688,391554
DA:690,197820
DA:691,3510
DA:692,3510
DA:693,3510
DA:695,194310
DA:697,0
DA:698,0
DA:699,0
DA:700,0
DA:702,0
DA:707,193734
DA:708,193734
DA:709,193734
DA:710,193734
DA:712,194310
DA:714,195058
DA:715,184382
DA:716,184382
DA:717,184382
DA:719,16920
DA:721,172
DA:722,17092
DA:726,1710
DA:727,1710
DA:728,5930
DA:733,360
DA:736,1800
DA:738,900
DA:739,900
DA:740,900
DA:741,900
DA:743,900
DA:744,900
DA:745,900
DA:746,900
DA:747,900
DA:748,900
DA:749,900
DA:750,1800
DA:754,12588
DA:755,12588
DA:756,25004
DA:757,29594
DA:758,17092
DA:759,17092
DA:760,17092
DA:776,180
DA:777,90
DA:780,90
DA:781,90
DA:783,90
DA:784,0
DA:785,0
DA:790,0
DA:791,0
DA:792,0
DA:793,0
DA:794,0
DA:795,0
DA:799,90
DA:801,180
DA:806,3870
DA:808,3870
DA:809,0
DA:813,3870
DA:814,4128
DA:815,258
DA:824,0
DA:826,0
DA:827,0
DA:831,0
DA:835,0
DA:836,0
DA:837,0
DA:872,0
DA:874,0
DA:875,0
DA:876,0
DA:881,0
DA:883,0
DA:884,0
DA:885,0
DA:887,0
DA:888,0
DA:889,0
DA:890,0
DA:891,0
DA:892,0
DA:893,0
DA:894,0
DA:896,0
DA:900,0
DA:901,0
DA:902,0
DA:903,0
DA:904,0
DA:905,0
DA:907,0
DA:911,0
DA:913,0
DA:914,0
DA:927,2160
DA:936,0
DA:942,0
DA:945,0
DA:946,0
DA:947,0
DA:948,0
DA:949,0
DA:950,0
DA:951,0
DA:952,0
DA:955,0
DA:956,0
DA:957,0
DA:958,0
DA:959,0
DA:962,0
DA:963,0
DA:964,0
DA:965,0
DA:966,0
DA:969,0
DA:970,0
DA:975,0
DA:978,0
DA:984,0
DA:985,0
DA:986,0
DA:988,270
DA:990,270
DA:992,0
DA:994,0
DA:995,0
DA:996,0
DA:998,270
DA:1000,270
DA:1002,0
DA:1004,0
DA:1005,0
DA:1009,0
DA:1010,0
DA:1011,0
DA:1012,0
DA:1015,0
DA:1017,0
DA:1018,0
DA:1019,0
DA:1023,0
DA:1024,0
DA:1028,0
DA:1030,0
DA:1031,0
DA:1034,0
DA:1035,0
DA:1039,174
DA:1040,174
DA:1044,783
DA:1045,783
DA:1050,174
DA:1051,174
DA:1055,87
DA:1056,87
DA:1060,87
DA:1061,87
DA:1065,0
DA:1066,0
DA:1070,87
DA:1071,87
DA:1076,0
DA:1077,0
DA:1081,0
DA:1082,0
DA:1086,0
DA:1087,0
DA:1091,174
DA:1092,174
DA:1105,0
DA:1106,0
DA:1107,0
DA:1116,620
DA:1119,310
DA:1120,620
DA:1121,310
DA:1122,310
DA:1132,397
DA:1133,794
DA:1134,794
DA:1135,397
DA:1136,397
DA:1182,1036
DA:1183,1036
DA:1185,90
DA:1187,90
DA:1188,1036
DA:1194,0
DA:1196,0
DA:1197,0
DA:1198,0
DA:1199,0
DA:1200,0
DA:1201,0
DA:1202,0
DA:1205,0
DA:1209,990
DA:1211,990
DA:1212,990
DA:1213,1800
DA:1214,1800
DA:1215,1800
DA:1216,990
DA:1217,990
DA:1219,810
DA:1220,810
DA:1223,990
DA:1224,990
DA:1233,10306
DA:1236,5153
DA:1237,10306
DA:1241,0
DA:1242,0
DA:1243,0
DA:1244,0
DA:1245,0
DA:1246,0
DA:1251,0
DA:1252,0
DA:1253,0
DA:1259,5153
DA:1260,5153
DA:1266,0
DA:1268,0
DA:1269,0
DA:1270,0
DA:1271,0
DA:1274,0
DA:1275,0
DA:1276,0
DA:1277,0
DA:1279,0
DA:1280,0
DA:1281,0
DA:1282,0
DA:1284,0
DA:1285,0
DA:1286,0
DA:1288,0
DA:1289,0
DA:1290,0
DA:1293,0
DA:1294,0
DA:1295,0
DA:1296,0
DA:1297,0
DA:1298,0
DA:1299,0
DA:1300,0
DA:1301,0
DA:1302,0
DA:1305,0
DA:1306,0
DA:1308,0
DA:1309,0
DA:1312,0
DA:1313,0
DA:1314,0
DA:1315,0
DA:1316,0
DA:1317,0
DA:1319,0
DA:1320,0
DA:1321,0
DA:1328,0
DA:1329,0
DA:1330,0
DA:1331,0
DA:1332,0
DA:1333,0
DA:1342,0
DA:1345,0
DA:1347,0
DA:1348,0
DA:1349,0
DA:1350,0
DA:1351,0
DA:1352,0
DA:1353,0
DA:1354,0
DA:1355,0
DA:1356,0
DA:1366,0
DA:1367,0
DA:1368,0
DA:1369,0
DA:1370,0
DA:1371,0
DA:1373,0
DA:1374,0
DA:1376,0
DA:1377,0
DA:1378,0
DA:1379,0
DA:1381,0
DA:1382,0
DA:1383,0
DA:1385,0
DA:1386,0
DA:1387,0
DA:1389,0
DA:1391,0
DA:1392,0
DA:1393,0
DA:1394,0
DA:1395,0
DA:1396,0
DA:1397,0
DA:1398,0
DA:1399,0
DA:1401,0
DA:1404,0
DA:1405,0
DA:1406,0
DA:1407,0
DA:1413,0
DA:1414,0
DA:1415,0
DA:1416,0
DA:1417,0
DA:1418,0
DA:1419,0
DA:1420,0
DA:1421,0
DA:1422,0
DA:1423,0
DA:1424,0
DA:1425,0
DA:1441,0
DA:1444,0
DA:1446,0
DA:1447,0
DA:1448,0
DA:1450,0
DA:1451,0
DA:1452,0
DA:1453,0
DA:1457,0
DA:1458,0
DA:1459,0
DA:1460,0
DA:1461,0
DA:1465,0
DA:1466,0
DA:1467,0
DA:1469,0
DA:1470,0
DA:1471,0
DA:1472,0
DA:1474,0
DA:1476,0
DA:1478,0
DA:1480,0
DA:1482,0
DA:1483,0
DA:1484,0
DA:1485,0
DA:1486,0
DA:1487,0
DA:1490,0
DA:1491,0
DA:1492,0
DA:1494,0
DA:1496,0
DA:1499,0
DA:1500,0
DA:1501,0
DA:1502,0
DA:1511,0
DA:1512,0
DA:1513,0
DA:1514,0
DA:1515,0
DA:1516,0
DA:1517,0
DA:1518,0
DA:1519,0
DA:1520,0
DA:1521,0
DA:1522,0
DA:1523,0
DA:1524,0
DA:1525,0
DA:1526,0
DA:1527,0
DA:1529,0
DA:1530,0
DA:1531,0
DA:1532,0
DA:1551,0
DA:1555,0
DA:1556,0
DA:1557,0
DA:1558,0
DA:1559,0
DA:1560,0
DA:1561,0
DA:1562,0
DA:1563,0
DA:1564,0
DA:1566,0
DA:1567,0
DA:1568,0
DA:1570,0
DA:1571,0
DA:1572,0
DA:1573,0
DA:1574,0
DA:1575,0
DA:1576,0
DA:1577,0
DA:1579,0
DA:1580,0
DA:1583,0
DA:1586,0
DA:1587,0
DA:1588,0
DA:1589,0
DA:1590,0
DA:1591,0
DA:1592,0
DA:1593,0
DA:1596,0
DA:1599,0
DA:1600,0
DA:1603,0
DA:1605,0
DA:1606,0
DA:1613,0
DA:1614,0
DA:1615,0
DA:1616,0
DA:1617,0
DA:1618,0
DA:1619,0
DA:1620,0
DA:1621,0
DA:1623,0
DA:1624,0
DA:1627,0
DA:1628,0
DA:1629,0
DA:1630,0
DA:1631,0
DA:1632,0
DA:1633,0
DA:1637,0
DA:1640,0
DA:1641,0
DA:1645,0
DA:1646,0
DA:1647,0
DA:1654,0
DA:1655,0
DA:1656,0
DA:1658,0
DA:1659,0
DA:1660,0
DA:1662,0
DA:1663,0
DA:1664,0
DA:1665,0
DA:1666,0
DA:1672,0
DA:1674,0
DA:1679,0
DA:1681,0
DA:1687,0
DA:1690,0
DA:1691,0
DA:1694,0
DA:1695,0
DA:1696,0
DA:1699,0
DA:1702,0
DA:1703,0
DA:1706,0
DA:1707,0
DA:1708,0
DA:1711,0
DA:1714,0
DA:1715,0
DA:1717,0
DA:1718,0
DA:1719,0
DA:1721,0
DA:1724,0
DA:1727,0
DA:1728,0
DA:1730,0
DA:1731,0
DA:1732,0
DA:1734,0
DA:1746,0
DA:1747,0
DA:1749,0
DA:1750,0
DA:1752,0
DA:1753,0
DA:1755,0
DA:1756,0
DA:1760,0
DA:1761,0
DA:1769,0
DA:1774,0
DA:1775,0
DA:1777,0
DA:1778,0
DA:1779,0
DA:1780,0
DA:1781,0
DA:1782,0
DA:1783,0
DA:1784,0
DA:1785,0
DA:1793,0
DA:1795,0
DA:1798,0
DA:1800,0
DA:1803,0
DA:1806,0
DA:1809,0
DA:1812,0
DA:1815,0
DA:1818,0
DA:1821,0
DA:1825,0
DA:1829,0
DA:1832,0
DA:1835,0
DA:1839,0
DA:1935,0
DA:1936,0
DA:1937,0
DA:1938,0
DA:1947,0
DA:1948,0
DA:1949,0
DA:1953,0
DA:1954,0
DA:1955,0
DA:1956,0
DA:1957,0
DA:1958,0
DA:1959,0
DA:1960,0
DA:1961,0
DA:1962,0
DA:1963,0
DA:1964,0
DA:1965,0
DA:1966,0
DA:1967,0
DA:1968,0
DA:1969,0
DA:1970,0
DA:1972,0
DA:1973,0
DA:1982,0
DA:1983,0
DA:1988,0
DA:1990,0
DA:1991,0
DA:1992,0
DA:1993,0
DA:1998,0
DA:2014,0
DA:2015,0
DA:2017,0
DA:2018,0
DA:2021,0
DA:2022,0
DA:2023,0
DA:2024,0
DA:2025,0
DA:2026,0
DA:2027,0
DA:2028,0
DA:2031,0
DA:2032,0
DA:2033,0
DA:2034,0
DA:2038,0
DA:2039,0
DA:2041,0
DA:2042,0
DA:2050,0
DA:2051,0
DA:2053,0
DA:2055,0
DA:2056,0
DA:2059,0
DA:2062,0
DA:2063,0
DA:2066,0
DA:2067,0
DA:2068,0
DA:2071,0
DA:2074,0
DA:2075,0
DA:2078,0
DA:2079,0
DA:2080,0
DA:2081,0
DA:2089,87
DA:2090,87
DA:2091,87
DA:2092,87
DA:2093,87
DA:2107,0
DA:2109,0
DA:2111,0
DA:2121,0
DA:2122,0
DA:2123,0
DA:2124,0
DA:2125,0
DA:2127,0
DA:2131,0
DA:2133,0
DA:2134,0
DA:2135,0
DA:2136,0
DA:2137,0
DA:2141,0
DA:2142,0
DA:2146,0
DA:2147,0
DA:2148,0
DA:2149,0
DA:2150,0
DA:2153,0
DA:2154,0
DA:2155,0
DA:2156,0
DA:2157,0
DA:2160,0
DA:2161,0
DA:2165,0
DA:2166,0
DA:2167,0
DA:2168,0
DA:2169,0
DA:2170,0
DA:2174,5153
DA:2175,5153
DA:2176,5153
DA:2177,5153
DA:2179,5153
DA:2180,5153
DA:2181,104034
DA:2182,98881
DA:2183,0
DA:2184,0
DA:2185,98881
DA:2187,98881
DA:2189,5153
DA:2190,5153
DA:2193,0
DA:2196,0
DA:2197,0
DA:2198,0
DA:2200,0
DA:2201,0
DA:2203,0
DA:2204,0
DA:2211,9360
DA:2212,9360
DA:2215,0
DA:2220,0
DA:2221,0
DA:2222,0
DA:2228,0
DA:2229,0
DA:2230,0
DA:2234,0
DA:2237,0
DA:2238,0
DA:2239,0
DA:2244,0
DA:2246,0
DA:2247,0
DA:2249,0
DA:2251,0
DA:2252,0
DA:2253,0
DA:2254,0
DA:2255,0
DA:2257,0
DA:2258,0
DA:2284,0
DA:2285,0
DA:2288,0
DA:2290,0
DA:2291,0
DA:2292,0
DA:2293,0
DA:2294,0
DA:2295,0
DA:2297,0
DA:2300,0
DA:2301,0
DA:2304,0
DA:2306,0
DA:2307,0
DA:2308,0
DA:2309,0
DA:2310,0
DA:2311,0
DA:2313,0
DA:2316,0
DA:2317,0
DA:2319,0
DA:2320,0
DA:2321,0
DA:2322,0
DA:2323,0
DA:2324,0
DA:2325,0
DA:2326,0
DA:2327,0
DA:2328,0
DA:2329,0
DA:2330,0
DA:2331,0
DA:2333,0
DA:2336,0
DA:2337,0
DA:2338,0
DA:2339,0
DA:2340,0
DA:2341,0
DA:2343,0
DA:2344,0
DA:2348,0
DA:2350,0
DA:2351,0
DA:2352,0
DA:2355,4437
DA:2356,4437
DA:2357,4437
DA:2358,4437
DA:2359,4437
DA:2360,4437
DA:2363,0
DA:2364,0
DA:2368,732
DA:2369,732
DA:2373,1833
DA:2374,1833
DA:2375,0
DA:2376,0
DA:2377,1833
DA:2378,1833
DA:2381,0
DA:2382,0
DA:2386,345
DA:2387,345
DA:2391,0
DA:2392,0
DA:2396,0
DA:2397,0
DA:2402,1833
DA:2403,1833
DA:2407,0
DA:2408,0
DA:2416,129
DA:2421,129
DA:2426,69
DA:2431,69
DA:2434,0
DA:2435,0
DA:2436,0
DA:2439,0
DA:2440,0
DA:2441,0
DA:2442,0
DA:2443,0
DA:2447,0
DA:2451,0
DA:2452,0
DA:2455,0
DA:2456,0
DA:2457,0
DA:2466,129
DA:2467,129
DA:2468,129
DA:2471,129
DA:2472,129
DA:2473,129
DA:2476,129
DA:2477,129
DA:2478,129
DA:2480,129
DA:2482,0
DA:2484,0
DA:2486,0
DA:2493,0
DA:2494,0
DA:2495,0
DA:2496,0
DA:2498,0
DA:2499,0
DA:2500,0
DA:2501,0
DA:2502,0
DA:2503,0
DA:2504,0
DA:2505,0
DA:2506,0
DA:2507,0
DA:2510,0
DA:2511,0
DA:2512,0
DA:2513,0
DA:2514,0
DA:2515,0
DA:2516,0
DA:2517,0
DA:2518,0
DA:2519,0
DA:2521,0
DA:2524,129
DA:2525,129
DA:2549,0
DA:2551,0
DA:2552,0
DA:2553,0
DA:2554,0
DA:2555,0
DA:2557,0
DA:2559,0
DA:2560,0
DA:2565,0
DA:2567,0
DA:2580,923
DA:2599,923
DA:2607,923
DA:2632,923
DA:2635,923
DA:2636,0
DA:2638,0
DA:2642,0
DA:2643,0
DA:2644,0
DA:2646,0
DA:2647,0
DA:2648,0
DA:2650,0
DA:2651,0
DA:2652,0
DA:2657,0
DA:2659,923
DA:2664,129
DA:2665,129
DA:2667,129
DA:2668,129
DA:2669,129
DA:2672,129
DA:2673,129
DA:2674,129
DA:2676,129
DA:2681,129
DA:2682,129
DA:2684,129
DA:2687,345
DA:2688,345
DA:2692,0
DA:2693,0
DA:2694,0
DA:2695,0
DA:2699,345
DA:2700,345
DA:2707,7740
DA:2713,3870
DA:2714,3870
DA:2715,3870
DA:2716,3870
DA:2717,3870
DA:2718,3870
DA:2719,3870
DA:2720,3870
DA:2721,3870
DA:2722,3870
DA:2723,3870
DA:2724,7740
DA:2727,0
DA:2749,3870
DA:2754,3870
DA:2755,3870
DA:2756,3870
DA:2757,3870
DA:2758,3870
DA:2759,0
DA:2761,0
DA:2763,0
DA:2765,0
DA:2766,0
DA:2767,0
DA:2768,0
DA:2769,0
DA:2770,0
DA:2771,0
DA:2772,0
DA:2774,0
DA:2775,0
DA:2776,0
DA:2777,0
DA:2813,90
DA:2814,90
DA:2815,90
DA:2816,90
DA:2817,90
DA:2818,90
DA:2819,90
DA:2825,765
DA:2826,765
DA:2827,765
DA:2828,636
DA:2829,636
DA:2833,129
DA:2834,129
DA:2837,129
DA:2838,129
DA:2839,129
DA:2840,129
DA:2843,129
DA:2844,129
DA:2850,129
DA:2853,129
DA:2854,129
DA:2856,129
DA:2858,129
DA:2859,129
DA:2860,129
DA:2861,129
DA:2863,129
DA:2866,129
DA:2870,129
DA:2871,765
DA:2874,0
DA:2875,0
DA:2877,0
DA:2878,0
DA:2880,0
DA:2883,0
DA:2886,0
DA:2887,0
DA:2891,0
DA:2892,0
DA:2893,0
DA:2898,696
DA:2899,696
DA:2903,696
DA:2904,696
DA:2908,188
DA:2909,188
DA:2913,696
DA:2914,696
DA:2918,0
DA:2919,0
DA:2923,0
DA:2924,0
DA:2928,1580
DA:2929,1580
DA:2933,859
DA:2934,859
DA:2946,2880
DA:2949,720
DA:2950,720
DA:2951,720
DA:2952,720
DA:2953,720
DA:2954,720
DA:2955,2160
DA:2958,0
DA:2960,0
DA:2961,0
DA:2965,0
DA:2966,0
DA:2967,0
DA:2972,765
DA:2973,765
DA:2974,765
DA:2979,3870
DA:2980,3870
DA:2981,3870
DA:2982,3870
DA:2985,696
DA:2986,696
DA:2988,94
DA:2989,94
DA:2991,94
DA:2994,94
DA:2997,94
DA:3000,94
DA:3001,94
DA:3004,94
DA:3006,94
DA:3007,94
DA:3008,859
DA:3009,765
DA:3010,0
DA:3011,0
DA:3012,765
DA:3014,765
DA:3015,0
DA:3016,0
DA:3017,0
DA:3018,0
DA:3019,0
DA:3021,765
DA:3022,94
DA:3024,94
DA:3025,94
DA:3029,94
DA:3032,94
DA:3035,94
DA:3036,696
DA:3039,0
DA:3040,0
DA:3042,0
DA:3043,0
DA:3045,0
DA:3048,0
DA:3051,0
DA:3054,0
DA:3055,0
DA:3056,0
DA:3059,0
DA:3062,0
DA:3065,0
DA:3066,0
DA:3069,696
DA:3070,696
DA:3071,696
DA:3072,696
DA:3075,0
DA:3076,0
DA:3077,0
DA:3080,696
DA:3081,4437
DA:3082,3741
DA:3083,3741
DA:3084,696
DA:3091,623
DA:3093,1246
DA:3094,623
DA:3095,0
DA:3098,261
DA:3099,261
DA:3103,174
DA:3104,174
DA:3111,0
DA:3112,0
DA:3114,0
DA:3116,0
DA:3123,0
DA:3126,0
DA:3128,0
DA:3136,0
DA:3138,0
DA:3139,0
DA:3140,0
DA:3141,0
DA:3142,0
DA:3143,0
DA:3144,0
DA:3145,0
DA:3148,0
DA:3149,0
DA:3150,0
DA:3151,0
DA:3163,0
DA:3218,107
DA:3219,107
DA:3221,0
DA:3223,107
DA:3225,0
DA:3227,0
DA:3229,107
DA:3234,87
DA:3235,87
DA:3236,87
DA:3238,87
DA:3245,87
DA:3246,171
DA:3247,87
DA:3248,87
DA:3249,87
DA:3250,86
DA:3251,86
DA:3252,86
DA:3253,86
DA:3254,86
DA:3255,86
DA:3256,172
DA:3257,86
DA:3258,171
DA:3262,0
DA:3263,0
DA:3264,0
DA:3265,0
DA:3269,87
DA:3277,967
DA:3279,967
DA:3281,1054
DA:3282,87
DA:3283,107
DA:3285,967
DA:3286,860
DA:3287,860
DA:3288,860
DA:3313,107
DA:3314,107
DA:3315,107
DA:3317,107
DA:3318,967
DA:3325,0
DA:3326,0
DA:3327,0
DA:3329,0
DA:3330,0
DA:3331,0
DA:3332,0
DA:3333,0
DA:3334,0
DA:3335,0
DA:3336,0
DA:3337,0
DA:3338,0
DA:3339,0
DA:3346,180
DA:3347,258
DA:3348,258
DA:3349,258
DA:3352,87
DA:3355,87
DA:3374,87
DA:3376,87
DA:3385,87
DA:3387,87
DA:3388,0
DA:3390,87
DA:3391,87
DA:3395,87
DA:3396,86
DA:3397,86
DA:3398,86
DA:3400,87
DA:3401,0
DA:3402,0
DA:3403,0
DA:3404,0
DA:3405,0
DA:3407,0
DA:3408,0
DA:3410,0
DA:3411,0
DA:3413,87
DA:3414,87
DA:3415,87
DA:3416,87
DA:3417,87
DA:3418,87
DA:3420,87
DA:3422,87
DA:3423,87
DA:3424,87
DA:3425,87
DA:3428,94
DA:3430,94
DA:3431,94
DA:3432,94
DA:3433,94
DA:3434,94
DA:3435,94
DA:3436,0
DA:3438,94
DA:3439,94
DA:3456,129
DA:3457,129
DA:3458,129
DA:3459,129
DA:3460,129
DA:3461,129
DA:3463,0
DA:3464,0
DA:3465,0
DA:3466,0
DA:3467,0
DA:3468,0
DA:3471,0
DA:3473,0
DA:3476,0
DA:3480,0
DA:3481,0
DA:3482,0
DA:3483,0
DA:3485,129
DA:3486,129
DA:3487,129
DA:3488,129
DA:3489,0
DA:3490,0
DA:3491,0
DA:3493,129
DA:3494,129
DA:3496,129
DA:3497,129
DA:3498,129
DA:3499,129
DA:3500,129
DA:3501,0
DA:3503,129
DA:3504,129
DA:3507,94
DA:3508,94
DA:3511,94
DA:3512,94
DA:3513,188
DA:3514,94
DA:3515,94
DA:3516,94
DA:3530,87
DA:3532,87
DA:3533,87
DA:3534,87
DA:3535,87
DA:3538,0
DA:3539,0
DA:3540,0
DA:3541,0
DA:3543,0
DA:3544,0
DA:3545,0
DA:3546,0
DA:3548,0
DA:3549,0
DA:3550,0
DA:3551,0
DA:3553,0
DA:3554,0
DA:3555,0
DA:3556,0
DA:3557,0
DA:3558,0
DA:3559,0
DA:3560,0
DA:3561,0
DA:3565,0
DA:3567,0
DA:3568,0
DA:3569,0
DA:3570,0
DA:3571,0
DA:3573,0
DA:3574,0
DA:3575,0
DA:3576,0
DA:3577,0
DA:3578,0
DA:3579,0
DA:3580,0
DA:3581,0
DA:3582,0
DA:3583,0
DA:3586,0
DA:3587,0
DA:3588,0
DA:3589,0
DA:3592,0
DA:3593,0
DA:3594,0
DA:3595,0
DA:3597,0
DA:3598,0
DA:3599,0
DA:3600,0
DA:3602,0
DA:3603,0
DA:3604,0
DA:3605,0
DA:3606,0
DA:3607,0
DA:3609,87
DA:3611,87
DA:3612,87
DA:3613,87
DA:3614,87
DA:3615,87
DA:3616,87
DA:3617,87
DA:3618,87
DA:3619,87
DA:3620,87
DA:3621,87
DA:3623,87
DA:3624,87
DA:3625,0
DA:3626,0
DA:3627,0
DA:3628,0
DA:3630,0
DA:3631,0
DA:3632,0
DA:3633,0
DA:3635,0
DA:3636,0
DA:3637,0
DA:3638,0
DA:3639,0
DA:3640,0
DA:3641,0
DA:3642,0
DA:3644,87
DA:3645,87
DA:3654,0
DA:3655,0
DA:3656,0
DA:3657,0
DA:3660,0
DA:3661,0
DA:3662,0
DA:3663,0
DA:3664,0
DA:3666,0
DA:3671,0
DA:3672,0
DA:3677,0
DA:3682,0
DA:3683,0
DA:3685,0
DA:3689,0
DA:3691,0
DA:3694,0
DA:3698,0
DA:3699,0
DA:3700,0
DA:3701,0
DA:3703,0
DA:3704,0
DA:3705,0
DA:3706,0
DA:3707,0
DA:3709,0
DA:3710,0
DA:3711,0
DA:3712,0
DA:3713,0
DA:3714,0
DA:3716,0
DA:3717,0
DA:3718,0
DA:3720,0
DA:3722,0
DA:3723,0
DA:3724,0
DA:3725,0
DA:3726,0
DA:3727,0
DA:3728,0
DA:3729,0
DA:3730,0
DA:3731,0
DA:3732,0
DA:3734,0
DA:3735,0
DA:3736,0
DA:3737,0
DA:3738,0
DA:3740,0
DA:3741,0
DA:3742,0
DA:3743,0
DA:3744,0
DA:3745,0
DA:3746,0
DA:3747,0
DA:3749,0
DA:3750,0
DA:3759,180
DA:3766,0
DA:3767,0
DA:3803,0
DA:3804,0
DA:3805,0
DA:3807,90
DA:3808,90
DA:3809,90
DA:3811,90
DA:3812,90
DA:3813,0
DA:3814,0
DA:3815,0
DA:3817,0
DA:3819,90
DA:3820,90
DA:3843,174
DA:3844,174
DA:3847,188
DA:3849,188
DA:3850,258
DA:3851,0
DA:3852,0
DA:3853,174
DA:3854,174
DA:3855,174
DA:3856,258
DA:3859,188
DA:3861,188
DA:3862,174
DA:3867,87
DA:3869,87
DA:3870,174
DA:3871,87
DA:3872,87
DA:3873,87
DA:3874,87
DA:3876,87
DA:3878,87
DA:3879,174
DA:3880,87
DA:3881,87
DA:3882,87
DA:3883,87
DA:3902,0
DA:3903,0
DA:3908,0
DA:3909,0
DA:3922,0
DA:3923,0
DA:3983,0
DA:3984,0
DA:3985,0
DA:3986,0
DA:3987,0
DA:3988,0
DA:3991,0
DA:3993,0
DA:3994,0
DA:3995,0
DA:3996,0
DA:3997,0
DA:3998,0
DA:4000,0
DA:4002,0
DA:4003,0
DA:4004,0
DA:4005,0
DA:4006,0
DA:4007,0
DA:4019,0
DA:4021,0
DA:4023,0
DA:4024,0
DA:4025,0
DA:4027,0
DA:4028,0
DA:4030,0
DA:4031,0
DA:4033,0
DA:4034,0
DA:4036,0
DA:4037,0
DA:4039,0
DA:4040,0
DA:4042,0
DA:4043,0
DA:4045,0
DA:4046,0
DA:4048,0
DA:4049,0
DA:4050,0
DA:4051,0
DA:4052,0
DA:4054,0
DA:4055,0
DA:4056,0
DA:4058,0
DA:4060,0
DA:4061,0
DA:4066,0
DA:4068,0
DA:4069,0
DA:4070,0
DA:4071,0
DA:4072,0
DA:4074,0
DA:4075,0
DA:4094,0
DA:4095,0
DA:4096,0
DA:4097,0
DA:4098,0
DA:4100,0
DA:4115,0
DA:4121,0
DA:4123,0
DA:4124,0
DA:4126,0
DA:4127,0
DA:4128,0
DA:4129,0
DA:4130,0
DA:4131,0
DA:4132,0
DA:4133,0
DA:4136,0
DA:4138,0
DA:4139,0
DA:4140,0
DA:4141,0
DA:4142,0
DA:4143,0
DA:4144,0
DA:4145,0
DA:4146,0
DA:4147,0
DA:4148,0
DA:4149,0
DA:4152,0
DA:4153,0
DA:4155,0
DA:4158,0
DA:4159,0
DA:4161,0
DA:4163,0
DA:4164,0
DA:4166,0
DA:4167,0
DA:4170,0
DA:4173,0
DA:4174,0
DA:4175,0
DA:4176,0
DA:4177,0
DA:4178,0
DA:4179,0
DA:4180,0
DA:4181,0
DA:4182,0
DA:4183,0
DA:4184,0
DA:4185,0
DA:4188,0
DA:4189,0
DA:4190,0
DA:4191,0
DA:4192,0
DA:4193,0
DA:4194,0
DA:4195,0
DA:4196,0
DA:4197,0
DA:4200,0
DA:4203,0
DA:4204,0
DA:4207,0
DA:4210,0
DA:4211,0
DA:4213,0
DA:4214,0
DA:4217,0
DA:4218,0
DA:4220,0
DA:4221,0
DA:4222,0
DA:4223,0
DA:4224,0
DA:4225,0
DA:4226,0
DA:4227,0
DA:4229,0
DA:4230,0
DA:4231,0
DA:4232,0
DA:4233,0
DA:4234,0
DA:4237,0
DA:4238,0
DA:4239,0
DA:4240,0
DA:4241,0
DA:4243,0
DA:4244,0
DA:4245,0
DA:4246,0
DA:4247,0
DA:4248,0
DA:4250,0
DA:4251,0
DA:4253,0
DA:4255,0
DA:4256,0
DA:4257,0
DA:4258,0
DA:4259,0
DA:4260,0
DA:4261,0
DA:4262,0
DA:4264,0
DA:4265,0
DA:4266,0
DA:4267,0
DA:4268,0
DA:4269,0
DA:4270,0
DA:4271,0
DA:4272,0
DA:4273,0
DA:4274,0
DA:4275,0
DA:4277,0
DA:4278,0
DA:4279,0
DA:4280,0
DA:4281,0
DA:4282,0
DA:4283,0
DA:4284,0
DA:4285,0
DA:4286,0
DA:4288,0
DA:4289,0
DA:4290,0
DA:4291,0
DA:4292,0
DA:4293,0
DA:4294,0
DA:4295,0
DA:4297,0
DA:4300,0
DA:4302,0
DA:4303,0
DA:4304,0
DA:4305,0
DA:4306,0
DA:4307,0
DA:4308,0
DA:4309,0
DA:4310,0
DA:4311,0
DA:4312,0
DA:4313,0
DA:4314,0
DA:4316,0
DA:4318,0
DA:4319,0
DA:4320,0
DA:4321,0
DA:4322,0
DA:4323,0
DA:4324,0
DA:4325,0
DA:4326,0
DA:4327,0
DA:4328,0
DA:4329,0
DA:4330,0
DA:4331,0
DA:4334,0
DA:4336,0
DA:4338,0
DA:4339,0
DA:4341,0
DA:4342,0
DA:4343,0
DA:4344,0
DA:4345,0
DA:4346,0
DA:4347,0
DA:4348,0
DA:4349,0
DA:4350,0
DA:4351,0
DA:4352,0
DA:4353,0
DA:4355,0
DA:4356,0
DA:4357,0
DA:4358,0
DA:4359,0
DA:4361,0
DA:4362,0
DA:4364,0
DA:4365,0
DA:4366,0
DA:4367,0
DA:4371,0
DA:4372,0
DA:4373,0
DA:4375,0
DA:4376,0
DA:4378,0
DA:4380,0
DA:4382,0
DA:4383,0
DA:4385,0
DA:4386,0
DA:4387,0
DA:4389,0
DA:4390,0
DA:4391,0
DA:4392,0
DA:4394,0
DA:4395,0
DA:4397,0
DA:4398,0
DA:4402,0
DA:4404,0
DA:4405,0
DA:4406,0
DA:4407,0
DA:4408,0
DA:4409,0
DA:4410,0
DA:4411,0
DA:4413,0
DA:4415,0
DA:4416,0
DA:4418,0
DA:4419,0
DA:4422,0
DA:4423,0
DA:4424,0
DA:4425,0
DA:4426,0
DA:4427,0
DA:4428,0
DA:4429,0
DA:4430,0
DA:4431,0
DA:4498,0
DA:4499,0
DA:4500,0
DA:4501,0
DA:4502,0
DA:4503,0
DA:4505,0
DA:4507,0
DA:4508,0
DA:4509,0
DA:4510,0
DA:4511,0
DA:4512,0
DA:4515,0
DA:4516,0
DA:4518,0
DA:4519,0
DA:4520,0
DA:4524,0
DA:4525,0
DA:4527,0
DA:4528,0
DA:4530,0
DA:4531,0
DA:4533,0
DA:4534,0
DA:4536,0
DA:4537,0
DA:4539,0
DA:4540,0
DA:4542,0
DA:4543,0
DA:4544,0
DA:4545,0
DA:4547,0
DA:4549,0
DA:4551,0
DA:4552,0
DA:4558,0
DA:4559,0
DA:4560,0
DA:4561,0
DA:4562,0
DA:4566,0
DA:4568,0
DA:4569,0
DA:4571,0
DA:4572,0
DA:4573,0
DA:4574,0
DA:4575,0
DA:4576,0
DA:4577,0
DA:4579,0
DA:4580,0
DA:4583,0
DA:4589,0
DA:4590,0
DA:4592,0
DA:4594,0
DA:4595,0
DA:4597,0
DA:4598,0
DA:4599,0
DA:4601,0
DA:4604,0
DA:4605,0
DA:4607,0
DA:4609,0
DA:4610,0
DA:4612,0
DA:4613,0
DA:4614,0
DA:4617,0
DA:4620,0
DA:4621,0
DA:4622,0
DA:4623,0
DA:4624,0
DA:4625,0
DA:4626,0
DA:4627,0
DA:4628,0
DA:4629,0
DA:4630,0
DA:4631,0
DA:4632,0
DA:4633,0
DA:4634,0
DA:4635,0
DA:4638,0
DA:4639,0
DA:4640,0
DA:4641,0
DA:4642,0
DA:4643,0
DA:4644,0
DA:4645,0
DA:4646,0
DA:4647,0
DA:4648,0
DA:4649,0
DA:4652,0
DA:4655,0
DA:4656,0
DA:4659,0
DA:4662,0
DA:4663,0
DA:4664,0
DA:4666,0
DA:4667,0
DA:4669,0
DA:4670,0
DA:4672,0
DA:4673,0
DA:4674,0
DA:4676,0
DA:4678,0
DA:4679,0
DA:4680,0
DA:4681,0
DA:4682,0
DA:4684,0
DA:4687,0
DA:4688,0
DA:4689,0
DA:4690,0
DA:4691,0
DA:4694,0
DA:4695,0
DA:4697,0
DA:4698,0
DA:4699,0
DA:4701,0
DA:4703,0
DA:4704,0
DA:4706,0
DA:4708,0
DA:4710,0
DA:4711,0
DA:4712,0
DA:4713,0
DA:4714,0
DA:4715,0
DA:4716,0
DA:4717,0
DA:4718,0
DA:4719,0
DA:4721,0
DA:4722,0
DA:4723,0
DA:4724,0
DA:4725,0
DA:4726,0
DA:4727,0
DA:4728,0
DA:4729,0
DA:4731,0
DA:4732,0
DA:4733,0
DA:4736,0
DA:4738,0
DA:4739,0
DA:4741,0
DA:4742,0
DA:4743,0
DA:4745,0
DA:4746,0
DA:4747,0
DA:4748,0
DA:4749,0
DA:4750,0
DA:4751,0
DA:4752,0
DA:4753,0
DA:4755,0
DA:4756,0
DA:4758,0
DA:4759,0
DA:4760,0
DA:4762,0
DA:4764,0
DA:4765,0
DA:4766,0
DA:4767,0
DA:4768,0
DA:4769,0
DA:4770,0
DA:4772,0
DA:4773,0
DA:4774,0
DA:4775,0
DA:4776,0
DA:4779,0
DA:4781,0
DA:4782,0
DA:4783,0
DA:4785,0
DA:4787,0
DA:4789,0
DA:4790,0
DA:4791,0
DA:4792,0
DA:4793,0
DA:4795,0
DA:4796,0
DA:4797,0
DA:4799,0
DA:4800,0
DA:4803,0
DA:4804,0
DA:4806,0
DA:4807,0
DA:4809,0
DA:4810,0
DA:4811,0
DA:4812,0
DA:4813,0
DA:4814,0
DA:4815,0
DA:4817,0
DA:4818,0
DA:4819,0
DA:4823,0
DA:4824,0
DA:4825,0
DA:4827,0
DA:4828,0
DA:4829,0
DA:4830,0
DA:4832,0
DA:4834,0
DA:4835,0
DA:4836,0
DA:4837,0
DA:4838,0
DA:4839,0
DA:4841,0
DA:4843,0
DA:4844,0
DA:4846,0
DA:4847,0
DA:4848,0
DA:4849,0
DA:4850,0
DA:4851,0
DA:4853,0
DA:4854,0
DA:4855,0
DA:4856,0
DA:4859,0
DA:4861,0
DA:4862,0
DA:4863,0
DA:4864,0
DA:4865,0
DA:4866,0
DA:4867,0
DA:4868,0
DA:4869,0
DA:4948,0
DA:4994,0
DA:4998,833
DA:5008,833
DA:5014,180
DA:5015,180
DA:5016,180
DA:5018,90
DA:5022,0
DA:5023,0
DA:5024,0
DA:5025,0
DA:5026,180
DA:5028,180
DA:5030,90
DA:5031,0
DA:5032,0
DA:5033,0
DA:5034,0
DA:5035,0
DA:5036,0
DA:5037,0
DA:5039,180
DA:5052,180
DA:5053,90
DA:5054,90
DA:5055,180
DA:5057,0
DA:5063,90
DA:5064,90
DA:5065,90
DA:5070,90
DA:5071,90
DA:5072,90
DA:5073,0
DA:5074,0
DA:5075,90
DA:5080,946
DA:5087,90
DA:5088,90
DA:5091,90
DA:5092,90
DA:5093,90
DA:5094,90
DA:5095,90
DA:5102,0
DA:5103,0
DA:5106,0
DA:5107,0
DA:5108,0
DA:5109,0
DA:5110,0
DA:5114,0
DA:5115,0
DA:5118,0
DA:5119,0
DA:5120,0
DA:5131,7093
DA:5140,7093
DA:5141,7093
DA:5143,0
DA:5146,0
DA:5147,0
DA:5151,0
DA:5152,0
DA:5156,0
DA:5157,0
DA:5162,174
DA:5163,174
DA:5168,0
DA:5169,0
DA:5171,0
DA:5172,0
DA:5174,0
DA:5175,0
DA:5177,0
DA:5178,0
DA:5183,87
DA:5184,87
DA:5188,87
DA:5189,87
DA:5193,0
DA:5196,87
DA:5197,87
DA:5201,0
DA:5202,0
DA:5206,0
DA:5207,0
DA:5211,0
DA:5214,174
DA:5218,0
DA:5219,0
DA:5223,87
DA:5224,87
DA:5229,87
DA:5233,0
DA:5237,0
DA:5238,0
DA:5243,0
DA:5244,0
DA:5250,0
DA:5251,0
DA:5256,0
DA:5257,0
DA:5262,859
DA:5274,0
DA:5275,0
DA:5276,0
DA:5279,0
DA:5280,0
DA:5281,0
DA:5287,0
DA:5292,0
DA:5293,0
DA:5295,0
DA:5296,0
DA:5297,0
DA:5299,0
DA:5300,0
DA:5301,0
DA:5302,0
DA:5303,0
DA:5304,0
DA:5305,0
DA:5307,0
DA:5308,0
DA:5309,0
DA:5311,0
DA:5312,0
DA:5313,0
DA:5316,0
DA:5317,0
DA:5323,0
DA:5333,0
DA:5340,0
DA:5342,0
DA:5349,0
DA:5350,0
DA:5357,0
DA:5359,0
DA:5360,0
DA:5367,90
DA:5368,90
DA:5369,90
DA:5392,90
DA:5393,90
DA:5395,90
DA:5399,90
DA:5444,90
DA:5445,90
DA:5449,90
DA:5453,0
DA:5454,0
DA:5459,0
DA:5461,0
DA:5462,0
DA:5463,0
DA:5467,0
DA:5469,0
DA:5470,0
DA:5471,0
DA:5476,0
DA:5478,0
DA:5479,0
DA:5480,0
DA:5483,0
DA:5488,0
DA:5489,0
DA:5493,180
DA:5496,0
DA:5500,0
DA:5502,0
DA:5503,0
DA:5504,0
DA:5507,0
DA:5508,0
DA:5509,0
DA:5510,0
DA:5514,540
DA:5515,90
DA:5517,90
DA:5518,90
DA:5519,180
DA:5520,90
DA:5521,180
DA:5522,90
DA:5523,90
DA:5524,90
DA:5525,90
DA:5526,90
DA:5527,90
DA:5528,90
DA:5529,90
DA:5530,90
DA:5531,90
DA:5532,90
DA:5533,90
DA:5534,90
DA:5536,90
DA:5539,270
DA:5540,90
DA:5541,180
DA:5543,0
DA:5545,0
DA:5548,0
DA:5550,0
DA:5551,0
DA:5558,0
DA:5559,0
DA:5562,0
DA:5563,0
DA:5564,0
DA:5565,0
DA:5566,0
DA:5567,0
DA:5568,0
DA:5569,0
DA:5570,0
DA:5572,0
DA:5573,0
DA:5578,90
DA:5579,90
DA:5580,0
DA:5581,90
DA:5586,90
DA:5587,90
DA:5588,90
DA:5589,0
DA:5590,0
DA:5591,90
DA:5592,0
DA:5593,0
DA:5594,90
DA:5595,0
DA:5596,0
DA:5597,0
DA:5598,90
DA:5623,180
DA:5625,180
DA:5626,90
DA:5634,90
DA:5635,90
DA:5641,90
DA:5645,90
DA:5647,90
DA:5648,0
DA:5649,0
DA:5662,90
DA:5663,180
DA:5676,7740
DA:5679,5670
DA:5680,11340
DA:5681,5670
DA:5700,3870
DA:5706,3870
DA:5707,3870
DA:5709,3870
DA:5712,720
DA:5713,720
DA:5715,720
DA:5717,720
DA:5722,0
DA:5723,0
DA:5725,0
DA:5727,720
DA:5730,720
DA:5731,720
DA:5732,3870
DA:5736,0
DA:5737,0
DA:5748,90
DA:5751,90
DA:5754,90
DA:5758,90
DA:5763,90
DA:5767,90
DA:5770,90
DA:5771,90
DA:5779,90
DA:5780,90
DA:5784,90
DA:5785,90
DA:5786,90
DA:5789,90
DA:5791,3
DA:5792,3
DA:5795,87
DA:5798,87
DA:5800,87
DA:5802,87
DA:5803,87
DA:5807,87
DA:5810,87
DA:5818,87
DA:5819,87
DA:5820,87
DA:5822,174
DA:5825,87
DA:5827,87
DA:5830,87
DA:5831,0
DA:5835,0
DA:5836,0
DA:5839,87
DA:5842,87
DA:5845,87
DA:5846,87
DA:5847,87
DA:5848,87
DA:5849,87
DA:5853,87
DA:5856,0
DA:5857,0
DA:5858,0
DA:5859,0
DA:5860,0
DA:5861,0
DA:5862,0
DA:5863,0
DA:5864,0
DA:5865,0
DA:5866,0
DA:5867,87
DA:5868,783
DA:5869,696
DA:5870,696
DA:5871,696
DA:5872,0
DA:5873,0
DA:5874,0
DA:5875,0
DA:5876,0
DA:5878,696
DA:5879,87
DA:5883,0
DA:5884,0
DA:5885,0
DA:5886,0
DA:5887,0
DA:5892,87
DA:5893,87
DA:5894,87
DA:5896,87
DA:5897,87
DA:5898,87
DA:5900,174
DA:5903,174
DA:5906,174
DA:5907,0
DA:5908,0
DA:5916,0
DA:5918,0
DA:5920,0
DA:5921,0
DA:5922,87
DA:5924,87
DA:5926,87
DA:5927,0
DA:5938,0
DA:5940,87
DA:5941,90
DA:5947,90
DA:5948,90
DA:5949,90
DA:5950,0
DA:5951,0
DA:5952,0
DA:5955,0
DA:5956,0
DA:5957,0
DA:5959,0
DA:5960,0
DA:5961,90
DA:5969,177
DA:5971,177
DA:5972,0
DA:5975,177
DA:5976,177
DA:5978,177
DA:5979,177
DA:5980,0
DA:5981,0
DA:5982,0
DA:5983,0
DA:5984,0
DA:5985,0
DA:5986,0
DA:5987,0
DA:5988,0
DA:5989,0
DA:5990,0
DA:5991,0
DA:5992,0
DA:5993,0
DA:5994,0
DA:5995,0
DA:5996,0
DA:5998,0
DA:5999,0
DA:6000,0
DA:6001,0
DA:6002,0
DA:6003,0
DA:6004,0
DA:6005,0
DA:6007,0
DA:6008,177
DA:6013,354
DA:6014,354
DA:6015,354
DA:6016,354
DA:6020,0
DA:6021,0
DA:6022,0
DA:6024,0
DA:6025,354
DA:6031,0
DA:6032,0
DA:6042,90
DA:6043,90
DA:6044,0
DA:6046,90
DA:6047,0
DA:6050,90
DA:6052,90
DA:6057,90
DA:6058,90
DA:6059,810
DA:6060,720
DA:6061,720
DA:6063,4590
DA:6064,3870
DA:6065,3870
DA:6068,3870
DA:6069,7740
DA:6070,3870
DA:6071,3870
DA:6073,3870
DA:6074,3870
DA:6075,3870
DA:6077,7740
DA:6078,3870
DA:6079,3870
DA:6081,258
DA:6082,7740
DA:6083,0
DA:6084,258
DA:6085,258
DA:6087,3870
DA:6088,3870
DA:6090,3870
DA:6091,3870
DA:6092,3870
DA:6093,720
DA:6094,90
DA:6095,90
DA:6101,0
DA:6102,0
DA:6103,0
DA:6104,0
DA:6105,0
DA:6106,0
DA:6108,0
DA:6109,0
DA:6110,0
DA:6111,0
DA:6112,0
DA:6113,0
DA:6115,0
DA:6116,0
DA:6117,0
DA:6120,3
DA:6122,3
DA:6124,27
DA:6125,24
DA:6127,153
DA:6128,129
DA:6129,129
DA:6130,129
DA:6131,24
DA:6132,24
DA:6133,24
DA:6134,0
DA:6137,0
DA:6138,0
DA:6139,24
DA:6140,24
DA:6141,48
DA:6142,48
DA:6143,0
DA:6146,0
DA:6147,0
DA:6148,129
DA:6149,129
DA:6150,129
DA:6152,3
DA:6153,3
DA:6154,3
DA:6155,0
DA:6156,0
DA:6157,0
DA:6158,0
DA:6159,0
DA:6160,0
DA:6161,0
DA:6162,0
DA:6163,0
DA:6164,0
DA:6165,0
DA:6166,0
DA:6167,0
DA:6168,0
DA:6169,0
DA:6170,3
DA:6177,0
DA:6179,0
DA:6180,0
DA:6181,0
DA:6182,0
DA:6183,0
DA:6188,833
DA:6189,833
DA:6193,87
DA:6195,87
DA:6197,833
DA:6198,0
DA:6201,690
DA:6202,690
DA:6203,516
DA:6205,174
DA:6206,0
DA:6208,174
DA:6209,690
DA:6213,0
DA:6215,0
DA:6218,0
DA:6219,0
DA:6222,0
DA:6223,0
DA:6225,0
DA:6228,87
DA:6229,783
DA:6231,696
DA:6233,696
DA:6234,696
DA:6235,87
DA:6248,0
DA:6251,0
DA:6260,9630
DA:6262,1800
DA:6266,1800
DA:6268,1800
DA:6274,0
DA:6275,0
DA:6276,0
DA:6277,0
DA:6278,0
DA:6280,0
